
2021-Firmware-Bootcamp.elf:     file format elf32-littlearm

Sections:
Idx Name          Size      VMA       LMA       File off  Algn
  0 .isr_vector   000000c0  08000000  08000000  00010000  2**0
                  CONTENTS, ALLOC, LOAD, READONLY, DATA
  1 .text         00004348  080000c0  080000c0  000100c0  2**2
                  CONTENTS, ALLOC, LOAD, READONLY, CODE
  2 .rodata       00000080  08004408  08004408  00014408  2**2
                  CONTENTS, ALLOC, LOAD, READONLY, DATA
  3 .ARM.extab    00000000  08004488  08004488  0002000c  2**0
                  CONTENTS
  4 .ARM          00000000  08004488  08004488  0002000c  2**0
                  CONTENTS
  5 .preinit_array 00000000  08004488  08004488  0002000c  2**0
                  CONTENTS, ALLOC, LOAD, DATA
  6 .init_array   00000004  08004488  08004488  00014488  2**2
                  CONTENTS, ALLOC, LOAD, DATA
  7 .fini_array   00000004  0800448c  0800448c  0001448c  2**2
                  CONTENTS, ALLOC, LOAD, DATA
  8 .data         0000000c  20000000  08004490  00020000  2**2
                  CONTENTS, ALLOC, LOAD, DATA
  9 .bss          00000150  2000000c  0800449c  0002000c  2**2
                  ALLOC
 10 ._user_heap_stack 00000604  2000015c  0800449c  0002015c  2**0
                  ALLOC
 11 .ARM.attributes 00000028  00000000  00000000  0002000c  2**0
                  CONTENTS, READONLY
 12 .debug_info   0000ecee  00000000  00000000  00020034  2**0
                  CONTENTS, READONLY, DEBUGGING, OCTETS
 13 .debug_abbrev 00001fda  00000000  00000000  0002ed22  2**0
                  CONTENTS, READONLY, DEBUGGING, OCTETS
 14 .debug_aranges 00000db0  00000000  00000000  00030d00  2**3
                  CONTENTS, READONLY, DEBUGGING, OCTETS
 15 .debug_ranges 00000cc8  00000000  00000000  00031ab0  2**3
                  CONTENTS, READONLY, DEBUGGING, OCTETS
 16 .debug_macro  00019c67  00000000  00000000  00032778  2**0
                  CONTENTS, READONLY, DEBUGGING, OCTETS
 17 .debug_line   00011168  00000000  00000000  0004c3df  2**0
                  CONTENTS, READONLY, DEBUGGING, OCTETS
 18 .debug_str    00096c42  00000000  00000000  0005d547  2**0
                  CONTENTS, READONLY, DEBUGGING, OCTETS
 19 .comment      00000050  00000000  00000000  000f4189  2**0
                  CONTENTS, READONLY
 20 .debug_frame  00003258  00000000  00000000  000f41dc  2**2
                  CONTENTS, READONLY, DEBUGGING, OCTETS

Disassembly of section .text:

080000c0 <__do_global_dtors_aux>:
 80000c0:	b510      	push	{r4, lr}
 80000c2:	4c06      	ldr	r4, [pc, #24]	; (80000dc <__do_global_dtors_aux+0x1c>)
 80000c4:	7823      	ldrb	r3, [r4, #0]
 80000c6:	2b00      	cmp	r3, #0
 80000c8:	d107      	bne.n	80000da <__do_global_dtors_aux+0x1a>
 80000ca:	4b05      	ldr	r3, [pc, #20]	; (80000e0 <__do_global_dtors_aux+0x20>)
 80000cc:	2b00      	cmp	r3, #0
 80000ce:	d002      	beq.n	80000d6 <__do_global_dtors_aux+0x16>
 80000d0:	4804      	ldr	r0, [pc, #16]	; (80000e4 <__do_global_dtors_aux+0x24>)
 80000d2:	e000      	b.n	80000d6 <__do_global_dtors_aux+0x16>
 80000d4:	bf00      	nop
 80000d6:	2301      	movs	r3, #1
 80000d8:	7023      	strb	r3, [r4, #0]
 80000da:	bd10      	pop	{r4, pc}
 80000dc:	2000000c 	.word	0x2000000c
 80000e0:	00000000 	.word	0x00000000
 80000e4:	080043f0 	.word	0x080043f0

080000e8 <frame_dummy>:
 80000e8:	4b04      	ldr	r3, [pc, #16]	; (80000fc <frame_dummy+0x14>)
 80000ea:	b510      	push	{r4, lr}
 80000ec:	2b00      	cmp	r3, #0
 80000ee:	d003      	beq.n	80000f8 <frame_dummy+0x10>
 80000f0:	4903      	ldr	r1, [pc, #12]	; (8000100 <frame_dummy+0x18>)
 80000f2:	4804      	ldr	r0, [pc, #16]	; (8000104 <frame_dummy+0x1c>)
 80000f4:	e000      	b.n	80000f8 <frame_dummy+0x10>
 80000f6:	bf00      	nop
 80000f8:	bd10      	pop	{r4, pc}
 80000fa:	46c0      	nop			; (mov r8, r8)
 80000fc:	00000000 	.word	0x00000000
 8000100:	20000010 	.word	0x20000010
 8000104:	080043f0 	.word	0x080043f0

08000108 <__udivsi3>:
 8000108:	2200      	movs	r2, #0
 800010a:	0843      	lsrs	r3, r0, #1
 800010c:	428b      	cmp	r3, r1
 800010e:	d374      	bcc.n	80001fa <__udivsi3+0xf2>
 8000110:	0903      	lsrs	r3, r0, #4
 8000112:	428b      	cmp	r3, r1
 8000114:	d35f      	bcc.n	80001d6 <__udivsi3+0xce>
 8000116:	0a03      	lsrs	r3, r0, #8
 8000118:	428b      	cmp	r3, r1
 800011a:	d344      	bcc.n	80001a6 <__udivsi3+0x9e>
 800011c:	0b03      	lsrs	r3, r0, #12
 800011e:	428b      	cmp	r3, r1
 8000120:	d328      	bcc.n	8000174 <__udivsi3+0x6c>
 8000122:	0c03      	lsrs	r3, r0, #16
 8000124:	428b      	cmp	r3, r1
 8000126:	d30d      	bcc.n	8000144 <__udivsi3+0x3c>
 8000128:	22ff      	movs	r2, #255	; 0xff
 800012a:	0209      	lsls	r1, r1, #8
 800012c:	ba12      	rev	r2, r2
 800012e:	0c03      	lsrs	r3, r0, #16
 8000130:	428b      	cmp	r3, r1
 8000132:	d302      	bcc.n	800013a <__udivsi3+0x32>
 8000134:	1212      	asrs	r2, r2, #8
 8000136:	0209      	lsls	r1, r1, #8
 8000138:	d065      	beq.n	8000206 <__udivsi3+0xfe>
 800013a:	0b03      	lsrs	r3, r0, #12
 800013c:	428b      	cmp	r3, r1
 800013e:	d319      	bcc.n	8000174 <__udivsi3+0x6c>
 8000140:	e000      	b.n	8000144 <__udivsi3+0x3c>
 8000142:	0a09      	lsrs	r1, r1, #8
 8000144:	0bc3      	lsrs	r3, r0, #15
 8000146:	428b      	cmp	r3, r1
 8000148:	d301      	bcc.n	800014e <__udivsi3+0x46>
 800014a:	03cb      	lsls	r3, r1, #15
 800014c:	1ac0      	subs	r0, r0, r3
 800014e:	4152      	adcs	r2, r2
 8000150:	0b83      	lsrs	r3, r0, #14
 8000152:	428b      	cmp	r3, r1
 8000154:	d301      	bcc.n	800015a <__udivsi3+0x52>
 8000156:	038b      	lsls	r3, r1, #14
 8000158:	1ac0      	subs	r0, r0, r3
 800015a:	4152      	adcs	r2, r2
 800015c:	0b43      	lsrs	r3, r0, #13
 800015e:	428b      	cmp	r3, r1
 8000160:	d301      	bcc.n	8000166 <__udivsi3+0x5e>
 8000162:	034b      	lsls	r3, r1, #13
 8000164:	1ac0      	subs	r0, r0, r3
 8000166:	4152      	adcs	r2, r2
 8000168:	0b03      	lsrs	r3, r0, #12
 800016a:	428b      	cmp	r3, r1
 800016c:	d301      	bcc.n	8000172 <__udivsi3+0x6a>
 800016e:	030b      	lsls	r3, r1, #12
 8000170:	1ac0      	subs	r0, r0, r3
 8000172:	4152      	adcs	r2, r2
 8000174:	0ac3      	lsrs	r3, r0, #11
 8000176:	428b      	cmp	r3, r1
 8000178:	d301      	bcc.n	800017e <__udivsi3+0x76>
 800017a:	02cb      	lsls	r3, r1, #11
 800017c:	1ac0      	subs	r0, r0, r3
 800017e:	4152      	adcs	r2, r2
 8000180:	0a83      	lsrs	r3, r0, #10
 8000182:	428b      	cmp	r3, r1
 8000184:	d301      	bcc.n	800018a <__udivsi3+0x82>
 8000186:	028b      	lsls	r3, r1, #10
 8000188:	1ac0      	subs	r0, r0, r3
 800018a:	4152      	adcs	r2, r2
 800018c:	0a43      	lsrs	r3, r0, #9
 800018e:	428b      	cmp	r3, r1
 8000190:	d301      	bcc.n	8000196 <__udivsi3+0x8e>
 8000192:	024b      	lsls	r3, r1, #9
 8000194:	1ac0      	subs	r0, r0, r3
 8000196:	4152      	adcs	r2, r2
 8000198:	0a03      	lsrs	r3, r0, #8
 800019a:	428b      	cmp	r3, r1
 800019c:	d301      	bcc.n	80001a2 <__udivsi3+0x9a>
 800019e:	020b      	lsls	r3, r1, #8
 80001a0:	1ac0      	subs	r0, r0, r3
 80001a2:	4152      	adcs	r2, r2
 80001a4:	d2cd      	bcs.n	8000142 <__udivsi3+0x3a>
 80001a6:	09c3      	lsrs	r3, r0, #7
 80001a8:	428b      	cmp	r3, r1
 80001aa:	d301      	bcc.n	80001b0 <__udivsi3+0xa8>
 80001ac:	01cb      	lsls	r3, r1, #7
 80001ae:	1ac0      	subs	r0, r0, r3
 80001b0:	4152      	adcs	r2, r2
 80001b2:	0983      	lsrs	r3, r0, #6
 80001b4:	428b      	cmp	r3, r1
 80001b6:	d301      	bcc.n	80001bc <__udivsi3+0xb4>
 80001b8:	018b      	lsls	r3, r1, #6
 80001ba:	1ac0      	subs	r0, r0, r3
 80001bc:	4152      	adcs	r2, r2
 80001be:	0943      	lsrs	r3, r0, #5
 80001c0:	428b      	cmp	r3, r1
 80001c2:	d301      	bcc.n	80001c8 <__udivsi3+0xc0>
 80001c4:	014b      	lsls	r3, r1, #5
 80001c6:	1ac0      	subs	r0, r0, r3
 80001c8:	4152      	adcs	r2, r2
 80001ca:	0903      	lsrs	r3, r0, #4
 80001cc:	428b      	cmp	r3, r1
 80001ce:	d301      	bcc.n	80001d4 <__udivsi3+0xcc>
 80001d0:	010b      	lsls	r3, r1, #4
 80001d2:	1ac0      	subs	r0, r0, r3
 80001d4:	4152      	adcs	r2, r2
 80001d6:	08c3      	lsrs	r3, r0, #3
 80001d8:	428b      	cmp	r3, r1
 80001da:	d301      	bcc.n	80001e0 <__udivsi3+0xd8>
 80001dc:	00cb      	lsls	r3, r1, #3
 80001de:	1ac0      	subs	r0, r0, r3
 80001e0:	4152      	adcs	r2, r2
 80001e2:	0883      	lsrs	r3, r0, #2
 80001e4:	428b      	cmp	r3, r1
 80001e6:	d301      	bcc.n	80001ec <__udivsi3+0xe4>
 80001e8:	008b      	lsls	r3, r1, #2
 80001ea:	1ac0      	subs	r0, r0, r3
 80001ec:	4152      	adcs	r2, r2
 80001ee:	0843      	lsrs	r3, r0, #1
 80001f0:	428b      	cmp	r3, r1
 80001f2:	d301      	bcc.n	80001f8 <__udivsi3+0xf0>
 80001f4:	004b      	lsls	r3, r1, #1
 80001f6:	1ac0      	subs	r0, r0, r3
 80001f8:	4152      	adcs	r2, r2
 80001fa:	1a41      	subs	r1, r0, r1
 80001fc:	d200      	bcs.n	8000200 <__udivsi3+0xf8>
 80001fe:	4601      	mov	r1, r0
 8000200:	4152      	adcs	r2, r2
 8000202:	4610      	mov	r0, r2
 8000204:	4770      	bx	lr
 8000206:	e7ff      	b.n	8000208 <__udivsi3+0x100>
 8000208:	b501      	push	{r0, lr}
 800020a:	2000      	movs	r0, #0
 800020c:	f000 f806 	bl	800021c <__aeabi_idiv0>
 8000210:	bd02      	pop	{r1, pc}
 8000212:	46c0      	nop			; (mov r8, r8)

08000214 <__aeabi_uidivmod>:
 8000214:	2900      	cmp	r1, #0
 8000216:	d0f7      	beq.n	8000208 <__udivsi3+0x100>
 8000218:	e776      	b.n	8000108 <__udivsi3>
 800021a:	4770      	bx	lr

0800021c <__aeabi_idiv0>:
 800021c:	4770      	bx	lr
 800021e:	46c0      	nop			; (mov r8, r8)

08000220 <__aeabi_f2uiz>:
 8000220:	219e      	movs	r1, #158	; 0x9e
 8000222:	b510      	push	{r4, lr}
 8000224:	05c9      	lsls	r1, r1, #23
 8000226:	1c04      	adds	r4, r0, #0
 8000228:	f000 fd22 	bl	8000c70 <__aeabi_fcmpge>
 800022c:	2800      	cmp	r0, #0
 800022e:	d103      	bne.n	8000238 <__aeabi_f2uiz+0x18>
 8000230:	1c20      	adds	r0, r4, #0
 8000232:	f000 fc7f 	bl	8000b34 <__aeabi_f2iz>
 8000236:	bd10      	pop	{r4, pc}
 8000238:	219e      	movs	r1, #158	; 0x9e
 800023a:	1c20      	adds	r0, r4, #0
 800023c:	05c9      	lsls	r1, r1, #23
 800023e:	f000 facb 	bl	80007d8 <__aeabi_fsub>
 8000242:	f000 fc77 	bl	8000b34 <__aeabi_f2iz>
 8000246:	2380      	movs	r3, #128	; 0x80
 8000248:	061b      	lsls	r3, r3, #24
 800024a:	469c      	mov	ip, r3
 800024c:	4460      	add	r0, ip
 800024e:	e7f2      	b.n	8000236 <__aeabi_f2uiz+0x16>

08000250 <__aeabi_fadd>:
 8000250:	b5f0      	push	{r4, r5, r6, r7, lr}
 8000252:	46c6      	mov	lr, r8
 8000254:	0243      	lsls	r3, r0, #9
 8000256:	0a5b      	lsrs	r3, r3, #9
 8000258:	024e      	lsls	r6, r1, #9
 800025a:	0045      	lsls	r5, r0, #1
 800025c:	004f      	lsls	r7, r1, #1
 800025e:	00da      	lsls	r2, r3, #3
 8000260:	0fc4      	lsrs	r4, r0, #31
 8000262:	469c      	mov	ip, r3
 8000264:	0a70      	lsrs	r0, r6, #9
 8000266:	4690      	mov	r8, r2
 8000268:	b500      	push	{lr}
 800026a:	0e2d      	lsrs	r5, r5, #24
 800026c:	0e3f      	lsrs	r7, r7, #24
 800026e:	0fc9      	lsrs	r1, r1, #31
 8000270:	09b6      	lsrs	r6, r6, #6
 8000272:	428c      	cmp	r4, r1
 8000274:	d04b      	beq.n	800030e <__aeabi_fadd+0xbe>
 8000276:	1bea      	subs	r2, r5, r7
 8000278:	2a00      	cmp	r2, #0
 800027a:	dd36      	ble.n	80002ea <__aeabi_fadd+0x9a>
 800027c:	2f00      	cmp	r7, #0
 800027e:	d061      	beq.n	8000344 <__aeabi_fadd+0xf4>
 8000280:	2dff      	cmp	r5, #255	; 0xff
 8000282:	d100      	bne.n	8000286 <__aeabi_fadd+0x36>
 8000284:	e0ad      	b.n	80003e2 <__aeabi_fadd+0x192>
 8000286:	2380      	movs	r3, #128	; 0x80
 8000288:	04db      	lsls	r3, r3, #19
 800028a:	431e      	orrs	r6, r3
 800028c:	2a1b      	cmp	r2, #27
 800028e:	dc00      	bgt.n	8000292 <__aeabi_fadd+0x42>
 8000290:	e0d3      	b.n	800043a <__aeabi_fadd+0x1ea>
 8000292:	2001      	movs	r0, #1
 8000294:	4643      	mov	r3, r8
 8000296:	1a18      	subs	r0, r3, r0
 8000298:	0143      	lsls	r3, r0, #5
 800029a:	d400      	bmi.n	800029e <__aeabi_fadd+0x4e>
 800029c:	e08c      	b.n	80003b8 <__aeabi_fadd+0x168>
 800029e:	0180      	lsls	r0, r0, #6
 80002a0:	0987      	lsrs	r7, r0, #6
 80002a2:	0038      	movs	r0, r7
 80002a4:	f000 fcee 	bl	8000c84 <__clzsi2>
 80002a8:	3805      	subs	r0, #5
 80002aa:	4087      	lsls	r7, r0
 80002ac:	4285      	cmp	r5, r0
 80002ae:	dc00      	bgt.n	80002b2 <__aeabi_fadd+0x62>
 80002b0:	e0b6      	b.n	8000420 <__aeabi_fadd+0x1d0>
 80002b2:	1a2d      	subs	r5, r5, r0
 80002b4:	48b3      	ldr	r0, [pc, #716]	; (8000584 <__aeabi_fadd+0x334>)
 80002b6:	4038      	ands	r0, r7
 80002b8:	0743      	lsls	r3, r0, #29
 80002ba:	d004      	beq.n	80002c6 <__aeabi_fadd+0x76>
 80002bc:	230f      	movs	r3, #15
 80002be:	4003      	ands	r3, r0
 80002c0:	2b04      	cmp	r3, #4
 80002c2:	d000      	beq.n	80002c6 <__aeabi_fadd+0x76>
 80002c4:	3004      	adds	r0, #4
 80002c6:	0143      	lsls	r3, r0, #5
 80002c8:	d400      	bmi.n	80002cc <__aeabi_fadd+0x7c>
 80002ca:	e078      	b.n	80003be <__aeabi_fadd+0x16e>
 80002cc:	1c6a      	adds	r2, r5, #1
 80002ce:	2dfe      	cmp	r5, #254	; 0xfe
 80002d0:	d065      	beq.n	800039e <__aeabi_fadd+0x14e>
 80002d2:	0180      	lsls	r0, r0, #6
 80002d4:	0a43      	lsrs	r3, r0, #9
 80002d6:	469c      	mov	ip, r3
 80002d8:	b2d2      	uxtb	r2, r2
 80002da:	4663      	mov	r3, ip
 80002dc:	05d0      	lsls	r0, r2, #23
 80002de:	4318      	orrs	r0, r3
 80002e0:	07e4      	lsls	r4, r4, #31
 80002e2:	4320      	orrs	r0, r4
 80002e4:	bc80      	pop	{r7}
 80002e6:	46b8      	mov	r8, r7
 80002e8:	bdf0      	pop	{r4, r5, r6, r7, pc}
 80002ea:	2a00      	cmp	r2, #0
 80002ec:	d035      	beq.n	800035a <__aeabi_fadd+0x10a>
 80002ee:	1b7a      	subs	r2, r7, r5
 80002f0:	2d00      	cmp	r5, #0
 80002f2:	d000      	beq.n	80002f6 <__aeabi_fadd+0xa6>
 80002f4:	e0af      	b.n	8000456 <__aeabi_fadd+0x206>
 80002f6:	4643      	mov	r3, r8
 80002f8:	2b00      	cmp	r3, #0
 80002fa:	d100      	bne.n	80002fe <__aeabi_fadd+0xae>
 80002fc:	e0a7      	b.n	800044e <__aeabi_fadd+0x1fe>
 80002fe:	1e53      	subs	r3, r2, #1
 8000300:	2a01      	cmp	r2, #1
 8000302:	d100      	bne.n	8000306 <__aeabi_fadd+0xb6>
 8000304:	e12f      	b.n	8000566 <__aeabi_fadd+0x316>
 8000306:	2aff      	cmp	r2, #255	; 0xff
 8000308:	d069      	beq.n	80003de <__aeabi_fadd+0x18e>
 800030a:	001a      	movs	r2, r3
 800030c:	e0aa      	b.n	8000464 <__aeabi_fadd+0x214>
 800030e:	1be9      	subs	r1, r5, r7
 8000310:	2900      	cmp	r1, #0
 8000312:	dd70      	ble.n	80003f6 <__aeabi_fadd+0x1a6>
 8000314:	2f00      	cmp	r7, #0
 8000316:	d037      	beq.n	8000388 <__aeabi_fadd+0x138>
 8000318:	2dff      	cmp	r5, #255	; 0xff
 800031a:	d062      	beq.n	80003e2 <__aeabi_fadd+0x192>
 800031c:	2380      	movs	r3, #128	; 0x80
 800031e:	04db      	lsls	r3, r3, #19
 8000320:	431e      	orrs	r6, r3
 8000322:	291b      	cmp	r1, #27
 8000324:	dc00      	bgt.n	8000328 <__aeabi_fadd+0xd8>
 8000326:	e0b0      	b.n	800048a <__aeabi_fadd+0x23a>
 8000328:	2001      	movs	r0, #1
 800032a:	4440      	add	r0, r8
 800032c:	0143      	lsls	r3, r0, #5
 800032e:	d543      	bpl.n	80003b8 <__aeabi_fadd+0x168>
 8000330:	3501      	adds	r5, #1
 8000332:	2dff      	cmp	r5, #255	; 0xff
 8000334:	d033      	beq.n	800039e <__aeabi_fadd+0x14e>
 8000336:	2301      	movs	r3, #1
 8000338:	4a93      	ldr	r2, [pc, #588]	; (8000588 <__aeabi_fadd+0x338>)
 800033a:	4003      	ands	r3, r0
 800033c:	0840      	lsrs	r0, r0, #1
 800033e:	4010      	ands	r0, r2
 8000340:	4318      	orrs	r0, r3
 8000342:	e7b9      	b.n	80002b8 <__aeabi_fadd+0x68>
 8000344:	2e00      	cmp	r6, #0
 8000346:	d100      	bne.n	800034a <__aeabi_fadd+0xfa>
 8000348:	e083      	b.n	8000452 <__aeabi_fadd+0x202>
 800034a:	1e51      	subs	r1, r2, #1
 800034c:	2a01      	cmp	r2, #1
 800034e:	d100      	bne.n	8000352 <__aeabi_fadd+0x102>
 8000350:	e0d8      	b.n	8000504 <__aeabi_fadd+0x2b4>
 8000352:	2aff      	cmp	r2, #255	; 0xff
 8000354:	d045      	beq.n	80003e2 <__aeabi_fadd+0x192>
 8000356:	000a      	movs	r2, r1
 8000358:	e798      	b.n	800028c <__aeabi_fadd+0x3c>
 800035a:	27fe      	movs	r7, #254	; 0xfe
 800035c:	1c6a      	adds	r2, r5, #1
 800035e:	4217      	tst	r7, r2
 8000360:	d000      	beq.n	8000364 <__aeabi_fadd+0x114>
 8000362:	e086      	b.n	8000472 <__aeabi_fadd+0x222>
 8000364:	2d00      	cmp	r5, #0
 8000366:	d000      	beq.n	800036a <__aeabi_fadd+0x11a>
 8000368:	e0b7      	b.n	80004da <__aeabi_fadd+0x28a>
 800036a:	4643      	mov	r3, r8
 800036c:	2b00      	cmp	r3, #0
 800036e:	d100      	bne.n	8000372 <__aeabi_fadd+0x122>
 8000370:	e0f3      	b.n	800055a <__aeabi_fadd+0x30a>
 8000372:	2200      	movs	r2, #0
 8000374:	2e00      	cmp	r6, #0
 8000376:	d0b0      	beq.n	80002da <__aeabi_fadd+0x8a>
 8000378:	1b98      	subs	r0, r3, r6
 800037a:	0143      	lsls	r3, r0, #5
 800037c:	d400      	bmi.n	8000380 <__aeabi_fadd+0x130>
 800037e:	e0fa      	b.n	8000576 <__aeabi_fadd+0x326>
 8000380:	4643      	mov	r3, r8
 8000382:	000c      	movs	r4, r1
 8000384:	1af0      	subs	r0, r6, r3
 8000386:	e797      	b.n	80002b8 <__aeabi_fadd+0x68>
 8000388:	2e00      	cmp	r6, #0
 800038a:	d100      	bne.n	800038e <__aeabi_fadd+0x13e>
 800038c:	e0c8      	b.n	8000520 <__aeabi_fadd+0x2d0>
 800038e:	1e4a      	subs	r2, r1, #1
 8000390:	2901      	cmp	r1, #1
 8000392:	d100      	bne.n	8000396 <__aeabi_fadd+0x146>
 8000394:	e0ae      	b.n	80004f4 <__aeabi_fadd+0x2a4>
 8000396:	29ff      	cmp	r1, #255	; 0xff
 8000398:	d023      	beq.n	80003e2 <__aeabi_fadd+0x192>
 800039a:	0011      	movs	r1, r2
 800039c:	e7c1      	b.n	8000322 <__aeabi_fadd+0xd2>
 800039e:	2300      	movs	r3, #0
 80003a0:	22ff      	movs	r2, #255	; 0xff
 80003a2:	469c      	mov	ip, r3
 80003a4:	e799      	b.n	80002da <__aeabi_fadd+0x8a>
 80003a6:	21fe      	movs	r1, #254	; 0xfe
 80003a8:	1c6a      	adds	r2, r5, #1
 80003aa:	4211      	tst	r1, r2
 80003ac:	d077      	beq.n	800049e <__aeabi_fadd+0x24e>
 80003ae:	2aff      	cmp	r2, #255	; 0xff
 80003b0:	d0f5      	beq.n	800039e <__aeabi_fadd+0x14e>
 80003b2:	0015      	movs	r5, r2
 80003b4:	4446      	add	r6, r8
 80003b6:	0870      	lsrs	r0, r6, #1
 80003b8:	0743      	lsls	r3, r0, #29
 80003ba:	d000      	beq.n	80003be <__aeabi_fadd+0x16e>
 80003bc:	e77e      	b.n	80002bc <__aeabi_fadd+0x6c>
 80003be:	08c3      	lsrs	r3, r0, #3
 80003c0:	2dff      	cmp	r5, #255	; 0xff
 80003c2:	d00e      	beq.n	80003e2 <__aeabi_fadd+0x192>
 80003c4:	025b      	lsls	r3, r3, #9
 80003c6:	0a5b      	lsrs	r3, r3, #9
 80003c8:	469c      	mov	ip, r3
 80003ca:	b2ea      	uxtb	r2, r5
 80003cc:	e785      	b.n	80002da <__aeabi_fadd+0x8a>
 80003ce:	2e00      	cmp	r6, #0
 80003d0:	d007      	beq.n	80003e2 <__aeabi_fadd+0x192>
 80003d2:	2280      	movs	r2, #128	; 0x80
 80003d4:	03d2      	lsls	r2, r2, #15
 80003d6:	4213      	tst	r3, r2
 80003d8:	d003      	beq.n	80003e2 <__aeabi_fadd+0x192>
 80003da:	4210      	tst	r0, r2
 80003dc:	d101      	bne.n	80003e2 <__aeabi_fadd+0x192>
 80003de:	000c      	movs	r4, r1
 80003e0:	0003      	movs	r3, r0
 80003e2:	2b00      	cmp	r3, #0
 80003e4:	d0db      	beq.n	800039e <__aeabi_fadd+0x14e>
 80003e6:	2080      	movs	r0, #128	; 0x80
 80003e8:	03c0      	lsls	r0, r0, #15
 80003ea:	4318      	orrs	r0, r3
 80003ec:	0240      	lsls	r0, r0, #9
 80003ee:	0a43      	lsrs	r3, r0, #9
 80003f0:	469c      	mov	ip, r3
 80003f2:	22ff      	movs	r2, #255	; 0xff
 80003f4:	e771      	b.n	80002da <__aeabi_fadd+0x8a>
 80003f6:	2900      	cmp	r1, #0
 80003f8:	d0d5      	beq.n	80003a6 <__aeabi_fadd+0x156>
 80003fa:	1b7a      	subs	r2, r7, r5
 80003fc:	2d00      	cmp	r5, #0
 80003fe:	d160      	bne.n	80004c2 <__aeabi_fadd+0x272>
 8000400:	4643      	mov	r3, r8
 8000402:	2b00      	cmp	r3, #0
 8000404:	d024      	beq.n	8000450 <__aeabi_fadd+0x200>
 8000406:	1e53      	subs	r3, r2, #1
 8000408:	2a01      	cmp	r2, #1
 800040a:	d073      	beq.n	80004f4 <__aeabi_fadd+0x2a4>
 800040c:	2aff      	cmp	r2, #255	; 0xff
 800040e:	d0e7      	beq.n	80003e0 <__aeabi_fadd+0x190>
 8000410:	001a      	movs	r2, r3
 8000412:	2a1b      	cmp	r2, #27
 8000414:	dc00      	bgt.n	8000418 <__aeabi_fadd+0x1c8>
 8000416:	e085      	b.n	8000524 <__aeabi_fadd+0x2d4>
 8000418:	2001      	movs	r0, #1
 800041a:	003d      	movs	r5, r7
 800041c:	1980      	adds	r0, r0, r6
 800041e:	e785      	b.n	800032c <__aeabi_fadd+0xdc>
 8000420:	2320      	movs	r3, #32
 8000422:	003a      	movs	r2, r7
 8000424:	1b45      	subs	r5, r0, r5
 8000426:	0038      	movs	r0, r7
 8000428:	3501      	adds	r5, #1
 800042a:	40ea      	lsrs	r2, r5
 800042c:	1b5d      	subs	r5, r3, r5
 800042e:	40a8      	lsls	r0, r5
 8000430:	1e43      	subs	r3, r0, #1
 8000432:	4198      	sbcs	r0, r3
 8000434:	2500      	movs	r5, #0
 8000436:	4310      	orrs	r0, r2
 8000438:	e73e      	b.n	80002b8 <__aeabi_fadd+0x68>
 800043a:	2320      	movs	r3, #32
 800043c:	0030      	movs	r0, r6
 800043e:	1a9b      	subs	r3, r3, r2
 8000440:	0031      	movs	r1, r6
 8000442:	4098      	lsls	r0, r3
 8000444:	40d1      	lsrs	r1, r2
 8000446:	1e43      	subs	r3, r0, #1
 8000448:	4198      	sbcs	r0, r3
 800044a:	4308      	orrs	r0, r1
 800044c:	e722      	b.n	8000294 <__aeabi_fadd+0x44>
 800044e:	000c      	movs	r4, r1
 8000450:	0003      	movs	r3, r0
 8000452:	0015      	movs	r5, r2
 8000454:	e7b4      	b.n	80003c0 <__aeabi_fadd+0x170>
 8000456:	2fff      	cmp	r7, #255	; 0xff
 8000458:	d0c1      	beq.n	80003de <__aeabi_fadd+0x18e>
 800045a:	2380      	movs	r3, #128	; 0x80
 800045c:	4640      	mov	r0, r8
 800045e:	04db      	lsls	r3, r3, #19
 8000460:	4318      	orrs	r0, r3
 8000462:	4680      	mov	r8, r0
 8000464:	2a1b      	cmp	r2, #27
 8000466:	dd51      	ble.n	800050c <__aeabi_fadd+0x2bc>
 8000468:	2001      	movs	r0, #1
 800046a:	000c      	movs	r4, r1
 800046c:	003d      	movs	r5, r7
 800046e:	1a30      	subs	r0, r6, r0
 8000470:	e712      	b.n	8000298 <__aeabi_fadd+0x48>
 8000472:	4643      	mov	r3, r8
 8000474:	1b9f      	subs	r7, r3, r6
 8000476:	017b      	lsls	r3, r7, #5
 8000478:	d42b      	bmi.n	80004d2 <__aeabi_fadd+0x282>
 800047a:	2f00      	cmp	r7, #0
 800047c:	d000      	beq.n	8000480 <__aeabi_fadd+0x230>
 800047e:	e710      	b.n	80002a2 <__aeabi_fadd+0x52>
 8000480:	2300      	movs	r3, #0
 8000482:	2400      	movs	r4, #0
 8000484:	2200      	movs	r2, #0
 8000486:	469c      	mov	ip, r3
 8000488:	e727      	b.n	80002da <__aeabi_fadd+0x8a>
 800048a:	2320      	movs	r3, #32
 800048c:	0032      	movs	r2, r6
 800048e:	0030      	movs	r0, r6
 8000490:	40ca      	lsrs	r2, r1
 8000492:	1a59      	subs	r1, r3, r1
 8000494:	4088      	lsls	r0, r1
 8000496:	1e43      	subs	r3, r0, #1
 8000498:	4198      	sbcs	r0, r3
 800049a:	4310      	orrs	r0, r2
 800049c:	e745      	b.n	800032a <__aeabi_fadd+0xda>
 800049e:	2d00      	cmp	r5, #0
 80004a0:	d14a      	bne.n	8000538 <__aeabi_fadd+0x2e8>
 80004a2:	4643      	mov	r3, r8
 80004a4:	2b00      	cmp	r3, #0
 80004a6:	d063      	beq.n	8000570 <__aeabi_fadd+0x320>
 80004a8:	2200      	movs	r2, #0
 80004aa:	2e00      	cmp	r6, #0
 80004ac:	d100      	bne.n	80004b0 <__aeabi_fadd+0x260>
 80004ae:	e714      	b.n	80002da <__aeabi_fadd+0x8a>
 80004b0:	0030      	movs	r0, r6
 80004b2:	4440      	add	r0, r8
 80004b4:	0143      	lsls	r3, r0, #5
 80004b6:	d400      	bmi.n	80004ba <__aeabi_fadd+0x26a>
 80004b8:	e77e      	b.n	80003b8 <__aeabi_fadd+0x168>
 80004ba:	4b32      	ldr	r3, [pc, #200]	; (8000584 <__aeabi_fadd+0x334>)
 80004bc:	3501      	adds	r5, #1
 80004be:	4018      	ands	r0, r3
 80004c0:	e77a      	b.n	80003b8 <__aeabi_fadd+0x168>
 80004c2:	2fff      	cmp	r7, #255	; 0xff
 80004c4:	d08c      	beq.n	80003e0 <__aeabi_fadd+0x190>
 80004c6:	2380      	movs	r3, #128	; 0x80
 80004c8:	4641      	mov	r1, r8
 80004ca:	04db      	lsls	r3, r3, #19
 80004cc:	4319      	orrs	r1, r3
 80004ce:	4688      	mov	r8, r1
 80004d0:	e79f      	b.n	8000412 <__aeabi_fadd+0x1c2>
 80004d2:	4643      	mov	r3, r8
 80004d4:	000c      	movs	r4, r1
 80004d6:	1af7      	subs	r7, r6, r3
 80004d8:	e6e3      	b.n	80002a2 <__aeabi_fadd+0x52>
 80004da:	4642      	mov	r2, r8
 80004dc:	2a00      	cmp	r2, #0
 80004de:	d000      	beq.n	80004e2 <__aeabi_fadd+0x292>
 80004e0:	e775      	b.n	80003ce <__aeabi_fadd+0x17e>
 80004e2:	2e00      	cmp	r6, #0
 80004e4:	d000      	beq.n	80004e8 <__aeabi_fadd+0x298>
 80004e6:	e77a      	b.n	80003de <__aeabi_fadd+0x18e>
 80004e8:	2380      	movs	r3, #128	; 0x80
 80004ea:	03db      	lsls	r3, r3, #15
 80004ec:	2400      	movs	r4, #0
 80004ee:	469c      	mov	ip, r3
 80004f0:	22ff      	movs	r2, #255	; 0xff
 80004f2:	e6f2      	b.n	80002da <__aeabi_fadd+0x8a>
 80004f4:	0030      	movs	r0, r6
 80004f6:	4440      	add	r0, r8
 80004f8:	2501      	movs	r5, #1
 80004fa:	0143      	lsls	r3, r0, #5
 80004fc:	d400      	bmi.n	8000500 <__aeabi_fadd+0x2b0>
 80004fe:	e75b      	b.n	80003b8 <__aeabi_fadd+0x168>
 8000500:	2502      	movs	r5, #2
 8000502:	e718      	b.n	8000336 <__aeabi_fadd+0xe6>
 8000504:	4643      	mov	r3, r8
 8000506:	2501      	movs	r5, #1
 8000508:	1b98      	subs	r0, r3, r6
 800050a:	e6c5      	b.n	8000298 <__aeabi_fadd+0x48>
 800050c:	2320      	movs	r3, #32
 800050e:	4644      	mov	r4, r8
 8000510:	4640      	mov	r0, r8
 8000512:	40d4      	lsrs	r4, r2
 8000514:	1a9a      	subs	r2, r3, r2
 8000516:	4090      	lsls	r0, r2
 8000518:	1e43      	subs	r3, r0, #1
 800051a:	4198      	sbcs	r0, r3
 800051c:	4320      	orrs	r0, r4
 800051e:	e7a4      	b.n	800046a <__aeabi_fadd+0x21a>
 8000520:	000d      	movs	r5, r1
 8000522:	e74d      	b.n	80003c0 <__aeabi_fadd+0x170>
 8000524:	2320      	movs	r3, #32
 8000526:	4641      	mov	r1, r8
 8000528:	4640      	mov	r0, r8
 800052a:	40d1      	lsrs	r1, r2
 800052c:	1a9a      	subs	r2, r3, r2
 800052e:	4090      	lsls	r0, r2
 8000530:	1e43      	subs	r3, r0, #1
 8000532:	4198      	sbcs	r0, r3
 8000534:	4308      	orrs	r0, r1
 8000536:	e770      	b.n	800041a <__aeabi_fadd+0x1ca>
 8000538:	4642      	mov	r2, r8
 800053a:	2a00      	cmp	r2, #0
 800053c:	d100      	bne.n	8000540 <__aeabi_fadd+0x2f0>
 800053e:	e74f      	b.n	80003e0 <__aeabi_fadd+0x190>
 8000540:	2e00      	cmp	r6, #0
 8000542:	d100      	bne.n	8000546 <__aeabi_fadd+0x2f6>
 8000544:	e74d      	b.n	80003e2 <__aeabi_fadd+0x192>
 8000546:	2280      	movs	r2, #128	; 0x80
 8000548:	03d2      	lsls	r2, r2, #15
 800054a:	4213      	tst	r3, r2
 800054c:	d100      	bne.n	8000550 <__aeabi_fadd+0x300>
 800054e:	e748      	b.n	80003e2 <__aeabi_fadd+0x192>
 8000550:	4210      	tst	r0, r2
 8000552:	d000      	beq.n	8000556 <__aeabi_fadd+0x306>
 8000554:	e745      	b.n	80003e2 <__aeabi_fadd+0x192>
 8000556:	0003      	movs	r3, r0
 8000558:	e743      	b.n	80003e2 <__aeabi_fadd+0x192>
 800055a:	2e00      	cmp	r6, #0
 800055c:	d090      	beq.n	8000480 <__aeabi_fadd+0x230>
 800055e:	000c      	movs	r4, r1
 8000560:	4684      	mov	ip, r0
 8000562:	2200      	movs	r2, #0
 8000564:	e6b9      	b.n	80002da <__aeabi_fadd+0x8a>
 8000566:	4643      	mov	r3, r8
 8000568:	000c      	movs	r4, r1
 800056a:	1af0      	subs	r0, r6, r3
 800056c:	3501      	adds	r5, #1
 800056e:	e693      	b.n	8000298 <__aeabi_fadd+0x48>
 8000570:	4684      	mov	ip, r0
 8000572:	2200      	movs	r2, #0
 8000574:	e6b1      	b.n	80002da <__aeabi_fadd+0x8a>
 8000576:	2800      	cmp	r0, #0
 8000578:	d000      	beq.n	800057c <__aeabi_fadd+0x32c>
 800057a:	e71d      	b.n	80003b8 <__aeabi_fadd+0x168>
 800057c:	2300      	movs	r3, #0
 800057e:	2400      	movs	r4, #0
 8000580:	469c      	mov	ip, r3
 8000582:	e6aa      	b.n	80002da <__aeabi_fadd+0x8a>
 8000584:	fbffffff 	.word	0xfbffffff
 8000588:	7dffffff 	.word	0x7dffffff

0800058c <__aeabi_fmul>:
 800058c:	b5f0      	push	{r4, r5, r6, r7, lr}
 800058e:	464f      	mov	r7, r9
 8000590:	4646      	mov	r6, r8
 8000592:	46d6      	mov	lr, sl
 8000594:	0244      	lsls	r4, r0, #9
 8000596:	0045      	lsls	r5, r0, #1
 8000598:	b5c0      	push	{r6, r7, lr}
 800059a:	0a64      	lsrs	r4, r4, #9
 800059c:	1c0f      	adds	r7, r1, #0
 800059e:	0e2d      	lsrs	r5, r5, #24
 80005a0:	0fc6      	lsrs	r6, r0, #31
 80005a2:	2d00      	cmp	r5, #0
 80005a4:	d100      	bne.n	80005a8 <__aeabi_fmul+0x1c>
 80005a6:	e08d      	b.n	80006c4 <__aeabi_fmul+0x138>
 80005a8:	2dff      	cmp	r5, #255	; 0xff
 80005aa:	d100      	bne.n	80005ae <__aeabi_fmul+0x22>
 80005ac:	e092      	b.n	80006d4 <__aeabi_fmul+0x148>
 80005ae:	2300      	movs	r3, #0
 80005b0:	2080      	movs	r0, #128	; 0x80
 80005b2:	4699      	mov	r9, r3
 80005b4:	469a      	mov	sl, r3
 80005b6:	00e4      	lsls	r4, r4, #3
 80005b8:	04c0      	lsls	r0, r0, #19
 80005ba:	4304      	orrs	r4, r0
 80005bc:	3d7f      	subs	r5, #127	; 0x7f
 80005be:	0278      	lsls	r0, r7, #9
 80005c0:	0a43      	lsrs	r3, r0, #9
 80005c2:	4698      	mov	r8, r3
 80005c4:	007b      	lsls	r3, r7, #1
 80005c6:	0e1b      	lsrs	r3, r3, #24
 80005c8:	0fff      	lsrs	r7, r7, #31
 80005ca:	2b00      	cmp	r3, #0
 80005cc:	d100      	bne.n	80005d0 <__aeabi_fmul+0x44>
 80005ce:	e070      	b.n	80006b2 <__aeabi_fmul+0x126>
 80005d0:	2bff      	cmp	r3, #255	; 0xff
 80005d2:	d100      	bne.n	80005d6 <__aeabi_fmul+0x4a>
 80005d4:	e086      	b.n	80006e4 <__aeabi_fmul+0x158>
 80005d6:	4642      	mov	r2, r8
 80005d8:	00d0      	lsls	r0, r2, #3
 80005da:	2280      	movs	r2, #128	; 0x80
 80005dc:	3b7f      	subs	r3, #127	; 0x7f
 80005de:	18ed      	adds	r5, r5, r3
 80005e0:	2300      	movs	r3, #0
 80005e2:	04d2      	lsls	r2, r2, #19
 80005e4:	4302      	orrs	r2, r0
 80005e6:	4690      	mov	r8, r2
 80005e8:	469c      	mov	ip, r3
 80005ea:	0031      	movs	r1, r6
 80005ec:	464b      	mov	r3, r9
 80005ee:	4079      	eors	r1, r7
 80005f0:	1c68      	adds	r0, r5, #1
 80005f2:	2b0f      	cmp	r3, #15
 80005f4:	d81c      	bhi.n	8000630 <__aeabi_fmul+0xa4>
 80005f6:	4a76      	ldr	r2, [pc, #472]	; (80007d0 <__aeabi_fmul+0x244>)
 80005f8:	009b      	lsls	r3, r3, #2
 80005fa:	58d3      	ldr	r3, [r2, r3]
 80005fc:	469f      	mov	pc, r3
 80005fe:	0039      	movs	r1, r7
 8000600:	4644      	mov	r4, r8
 8000602:	46e2      	mov	sl, ip
 8000604:	4653      	mov	r3, sl
 8000606:	2b02      	cmp	r3, #2
 8000608:	d00f      	beq.n	800062a <__aeabi_fmul+0x9e>
 800060a:	2b03      	cmp	r3, #3
 800060c:	d100      	bne.n	8000610 <__aeabi_fmul+0x84>
 800060e:	e0d7      	b.n	80007c0 <__aeabi_fmul+0x234>
 8000610:	2b01      	cmp	r3, #1
 8000612:	d137      	bne.n	8000684 <__aeabi_fmul+0xf8>
 8000614:	2000      	movs	r0, #0
 8000616:	2400      	movs	r4, #0
 8000618:	05c0      	lsls	r0, r0, #23
 800061a:	4320      	orrs	r0, r4
 800061c:	07c9      	lsls	r1, r1, #31
 800061e:	4308      	orrs	r0, r1
 8000620:	bce0      	pop	{r5, r6, r7}
 8000622:	46ba      	mov	sl, r7
 8000624:	46b1      	mov	r9, r6
 8000626:	46a8      	mov	r8, r5
 8000628:	bdf0      	pop	{r4, r5, r6, r7, pc}
 800062a:	20ff      	movs	r0, #255	; 0xff
 800062c:	2400      	movs	r4, #0
 800062e:	e7f3      	b.n	8000618 <__aeabi_fmul+0x8c>
 8000630:	0c26      	lsrs	r6, r4, #16
 8000632:	0424      	lsls	r4, r4, #16
 8000634:	0c22      	lsrs	r2, r4, #16
 8000636:	4644      	mov	r4, r8
 8000638:	0424      	lsls	r4, r4, #16
 800063a:	0c24      	lsrs	r4, r4, #16
 800063c:	4643      	mov	r3, r8
 800063e:	0027      	movs	r7, r4
 8000640:	0c1b      	lsrs	r3, r3, #16
 8000642:	4357      	muls	r7, r2
 8000644:	4374      	muls	r4, r6
 8000646:	435a      	muls	r2, r3
 8000648:	435e      	muls	r6, r3
 800064a:	1912      	adds	r2, r2, r4
 800064c:	0c3b      	lsrs	r3, r7, #16
 800064e:	189b      	adds	r3, r3, r2
 8000650:	429c      	cmp	r4, r3
 8000652:	d903      	bls.n	800065c <__aeabi_fmul+0xd0>
 8000654:	2280      	movs	r2, #128	; 0x80
 8000656:	0252      	lsls	r2, r2, #9
 8000658:	4694      	mov	ip, r2
 800065a:	4466      	add	r6, ip
 800065c:	043f      	lsls	r7, r7, #16
 800065e:	041a      	lsls	r2, r3, #16
 8000660:	0c3f      	lsrs	r7, r7, #16
 8000662:	19d2      	adds	r2, r2, r7
 8000664:	0194      	lsls	r4, r2, #6
 8000666:	1e67      	subs	r7, r4, #1
 8000668:	41bc      	sbcs	r4, r7
 800066a:	0c1b      	lsrs	r3, r3, #16
 800066c:	0e92      	lsrs	r2, r2, #26
 800066e:	199b      	adds	r3, r3, r6
 8000670:	4314      	orrs	r4, r2
 8000672:	019b      	lsls	r3, r3, #6
 8000674:	431c      	orrs	r4, r3
 8000676:	011b      	lsls	r3, r3, #4
 8000678:	d400      	bmi.n	800067c <__aeabi_fmul+0xf0>
 800067a:	e09b      	b.n	80007b4 <__aeabi_fmul+0x228>
 800067c:	2301      	movs	r3, #1
 800067e:	0862      	lsrs	r2, r4, #1
 8000680:	401c      	ands	r4, r3
 8000682:	4314      	orrs	r4, r2
 8000684:	0002      	movs	r2, r0
 8000686:	327f      	adds	r2, #127	; 0x7f
 8000688:	2a00      	cmp	r2, #0
 800068a:	dd64      	ble.n	8000756 <__aeabi_fmul+0x1ca>
 800068c:	0763      	lsls	r3, r4, #29
 800068e:	d004      	beq.n	800069a <__aeabi_fmul+0x10e>
 8000690:	230f      	movs	r3, #15
 8000692:	4023      	ands	r3, r4
 8000694:	2b04      	cmp	r3, #4
 8000696:	d000      	beq.n	800069a <__aeabi_fmul+0x10e>
 8000698:	3404      	adds	r4, #4
 800069a:	0123      	lsls	r3, r4, #4
 800069c:	d503      	bpl.n	80006a6 <__aeabi_fmul+0x11a>
 800069e:	0002      	movs	r2, r0
 80006a0:	4b4c      	ldr	r3, [pc, #304]	; (80007d4 <__aeabi_fmul+0x248>)
 80006a2:	3280      	adds	r2, #128	; 0x80
 80006a4:	401c      	ands	r4, r3
 80006a6:	2afe      	cmp	r2, #254	; 0xfe
 80006a8:	dcbf      	bgt.n	800062a <__aeabi_fmul+0x9e>
 80006aa:	01a4      	lsls	r4, r4, #6
 80006ac:	0a64      	lsrs	r4, r4, #9
 80006ae:	b2d0      	uxtb	r0, r2
 80006b0:	e7b2      	b.n	8000618 <__aeabi_fmul+0x8c>
 80006b2:	4643      	mov	r3, r8
 80006b4:	2b00      	cmp	r3, #0
 80006b6:	d13d      	bne.n	8000734 <__aeabi_fmul+0x1a8>
 80006b8:	464a      	mov	r2, r9
 80006ba:	3301      	adds	r3, #1
 80006bc:	431a      	orrs	r2, r3
 80006be:	4691      	mov	r9, r2
 80006c0:	469c      	mov	ip, r3
 80006c2:	e792      	b.n	80005ea <__aeabi_fmul+0x5e>
 80006c4:	2c00      	cmp	r4, #0
 80006c6:	d129      	bne.n	800071c <__aeabi_fmul+0x190>
 80006c8:	2304      	movs	r3, #4
 80006ca:	4699      	mov	r9, r3
 80006cc:	3b03      	subs	r3, #3
 80006ce:	2500      	movs	r5, #0
 80006d0:	469a      	mov	sl, r3
 80006d2:	e774      	b.n	80005be <__aeabi_fmul+0x32>
 80006d4:	2c00      	cmp	r4, #0
 80006d6:	d11b      	bne.n	8000710 <__aeabi_fmul+0x184>
 80006d8:	2308      	movs	r3, #8
 80006da:	4699      	mov	r9, r3
 80006dc:	3b06      	subs	r3, #6
 80006de:	25ff      	movs	r5, #255	; 0xff
 80006e0:	469a      	mov	sl, r3
 80006e2:	e76c      	b.n	80005be <__aeabi_fmul+0x32>
 80006e4:	4643      	mov	r3, r8
 80006e6:	35ff      	adds	r5, #255	; 0xff
 80006e8:	2b00      	cmp	r3, #0
 80006ea:	d10b      	bne.n	8000704 <__aeabi_fmul+0x178>
 80006ec:	2302      	movs	r3, #2
 80006ee:	464a      	mov	r2, r9
 80006f0:	431a      	orrs	r2, r3
 80006f2:	4691      	mov	r9, r2
 80006f4:	469c      	mov	ip, r3
 80006f6:	e778      	b.n	80005ea <__aeabi_fmul+0x5e>
 80006f8:	4653      	mov	r3, sl
 80006fa:	0031      	movs	r1, r6
 80006fc:	2b02      	cmp	r3, #2
 80006fe:	d000      	beq.n	8000702 <__aeabi_fmul+0x176>
 8000700:	e783      	b.n	800060a <__aeabi_fmul+0x7e>
 8000702:	e792      	b.n	800062a <__aeabi_fmul+0x9e>
 8000704:	2303      	movs	r3, #3
 8000706:	464a      	mov	r2, r9
 8000708:	431a      	orrs	r2, r3
 800070a:	4691      	mov	r9, r2
 800070c:	469c      	mov	ip, r3
 800070e:	e76c      	b.n	80005ea <__aeabi_fmul+0x5e>
 8000710:	230c      	movs	r3, #12
 8000712:	4699      	mov	r9, r3
 8000714:	3b09      	subs	r3, #9
 8000716:	25ff      	movs	r5, #255	; 0xff
 8000718:	469a      	mov	sl, r3
 800071a:	e750      	b.n	80005be <__aeabi_fmul+0x32>
 800071c:	0020      	movs	r0, r4
 800071e:	f000 fab1 	bl	8000c84 <__clzsi2>
 8000722:	2576      	movs	r5, #118	; 0x76
 8000724:	1f43      	subs	r3, r0, #5
 8000726:	409c      	lsls	r4, r3
 8000728:	2300      	movs	r3, #0
 800072a:	426d      	negs	r5, r5
 800072c:	4699      	mov	r9, r3
 800072e:	469a      	mov	sl, r3
 8000730:	1a2d      	subs	r5, r5, r0
 8000732:	e744      	b.n	80005be <__aeabi_fmul+0x32>
 8000734:	4640      	mov	r0, r8
 8000736:	f000 faa5 	bl	8000c84 <__clzsi2>
 800073a:	4642      	mov	r2, r8
 800073c:	1f43      	subs	r3, r0, #5
 800073e:	409a      	lsls	r2, r3
 8000740:	2300      	movs	r3, #0
 8000742:	1a2d      	subs	r5, r5, r0
 8000744:	4690      	mov	r8, r2
 8000746:	469c      	mov	ip, r3
 8000748:	3d76      	subs	r5, #118	; 0x76
 800074a:	e74e      	b.n	80005ea <__aeabi_fmul+0x5e>
 800074c:	2480      	movs	r4, #128	; 0x80
 800074e:	2100      	movs	r1, #0
 8000750:	20ff      	movs	r0, #255	; 0xff
 8000752:	03e4      	lsls	r4, r4, #15
 8000754:	e760      	b.n	8000618 <__aeabi_fmul+0x8c>
 8000756:	2301      	movs	r3, #1
 8000758:	1a9b      	subs	r3, r3, r2
 800075a:	2b1b      	cmp	r3, #27
 800075c:	dd00      	ble.n	8000760 <__aeabi_fmul+0x1d4>
 800075e:	e759      	b.n	8000614 <__aeabi_fmul+0x88>
 8000760:	0022      	movs	r2, r4
 8000762:	309e      	adds	r0, #158	; 0x9e
 8000764:	40da      	lsrs	r2, r3
 8000766:	4084      	lsls	r4, r0
 8000768:	0013      	movs	r3, r2
 800076a:	1e62      	subs	r2, r4, #1
 800076c:	4194      	sbcs	r4, r2
 800076e:	431c      	orrs	r4, r3
 8000770:	0763      	lsls	r3, r4, #29
 8000772:	d004      	beq.n	800077e <__aeabi_fmul+0x1f2>
 8000774:	230f      	movs	r3, #15
 8000776:	4023      	ands	r3, r4
 8000778:	2b04      	cmp	r3, #4
 800077a:	d000      	beq.n	800077e <__aeabi_fmul+0x1f2>
 800077c:	3404      	adds	r4, #4
 800077e:	0163      	lsls	r3, r4, #5
 8000780:	d51a      	bpl.n	80007b8 <__aeabi_fmul+0x22c>
 8000782:	2001      	movs	r0, #1
 8000784:	2400      	movs	r4, #0
 8000786:	e747      	b.n	8000618 <__aeabi_fmul+0x8c>
 8000788:	2080      	movs	r0, #128	; 0x80
 800078a:	03c0      	lsls	r0, r0, #15
 800078c:	4204      	tst	r4, r0
 800078e:	d009      	beq.n	80007a4 <__aeabi_fmul+0x218>
 8000790:	4643      	mov	r3, r8
 8000792:	4203      	tst	r3, r0
 8000794:	d106      	bne.n	80007a4 <__aeabi_fmul+0x218>
 8000796:	4644      	mov	r4, r8
 8000798:	4304      	orrs	r4, r0
 800079a:	0264      	lsls	r4, r4, #9
 800079c:	0039      	movs	r1, r7
 800079e:	20ff      	movs	r0, #255	; 0xff
 80007a0:	0a64      	lsrs	r4, r4, #9
 80007a2:	e739      	b.n	8000618 <__aeabi_fmul+0x8c>
 80007a4:	2080      	movs	r0, #128	; 0x80
 80007a6:	03c0      	lsls	r0, r0, #15
 80007a8:	4304      	orrs	r4, r0
 80007aa:	0264      	lsls	r4, r4, #9
 80007ac:	0031      	movs	r1, r6
 80007ae:	20ff      	movs	r0, #255	; 0xff
 80007b0:	0a64      	lsrs	r4, r4, #9
 80007b2:	e731      	b.n	8000618 <__aeabi_fmul+0x8c>
 80007b4:	0028      	movs	r0, r5
 80007b6:	e765      	b.n	8000684 <__aeabi_fmul+0xf8>
 80007b8:	01a4      	lsls	r4, r4, #6
 80007ba:	2000      	movs	r0, #0
 80007bc:	0a64      	lsrs	r4, r4, #9
 80007be:	e72b      	b.n	8000618 <__aeabi_fmul+0x8c>
 80007c0:	2080      	movs	r0, #128	; 0x80
 80007c2:	03c0      	lsls	r0, r0, #15
 80007c4:	4304      	orrs	r4, r0
 80007c6:	0264      	lsls	r4, r4, #9
 80007c8:	20ff      	movs	r0, #255	; 0xff
 80007ca:	0a64      	lsrs	r4, r4, #9
 80007cc:	e724      	b.n	8000618 <__aeabi_fmul+0x8c>
 80007ce:	46c0      	nop			; (mov r8, r8)
 80007d0:	08004430 	.word	0x08004430
 80007d4:	f7ffffff 	.word	0xf7ffffff

080007d8 <__aeabi_fsub>:
 80007d8:	b5f8      	push	{r3, r4, r5, r6, r7, lr}
 80007da:	46ce      	mov	lr, r9
 80007dc:	4647      	mov	r7, r8
 80007de:	0243      	lsls	r3, r0, #9
 80007e0:	0a5b      	lsrs	r3, r3, #9
 80007e2:	024e      	lsls	r6, r1, #9
 80007e4:	00da      	lsls	r2, r3, #3
 80007e6:	4694      	mov	ip, r2
 80007e8:	0a72      	lsrs	r2, r6, #9
 80007ea:	4691      	mov	r9, r2
 80007ec:	0045      	lsls	r5, r0, #1
 80007ee:	004a      	lsls	r2, r1, #1
 80007f0:	b580      	push	{r7, lr}
 80007f2:	0e2d      	lsrs	r5, r5, #24
 80007f4:	001f      	movs	r7, r3
 80007f6:	0fc4      	lsrs	r4, r0, #31
 80007f8:	0e12      	lsrs	r2, r2, #24
 80007fa:	0fc9      	lsrs	r1, r1, #31
 80007fc:	09b6      	lsrs	r6, r6, #6
 80007fe:	2aff      	cmp	r2, #255	; 0xff
 8000800:	d05b      	beq.n	80008ba <__aeabi_fsub+0xe2>
 8000802:	2001      	movs	r0, #1
 8000804:	4041      	eors	r1, r0
 8000806:	428c      	cmp	r4, r1
 8000808:	d039      	beq.n	800087e <__aeabi_fsub+0xa6>
 800080a:	1aa8      	subs	r0, r5, r2
 800080c:	2800      	cmp	r0, #0
 800080e:	dd5a      	ble.n	80008c6 <__aeabi_fsub+0xee>
 8000810:	2a00      	cmp	r2, #0
 8000812:	d06a      	beq.n	80008ea <__aeabi_fsub+0x112>
 8000814:	2dff      	cmp	r5, #255	; 0xff
 8000816:	d100      	bne.n	800081a <__aeabi_fsub+0x42>
 8000818:	e0d9      	b.n	80009ce <__aeabi_fsub+0x1f6>
 800081a:	2280      	movs	r2, #128	; 0x80
 800081c:	04d2      	lsls	r2, r2, #19
 800081e:	4316      	orrs	r6, r2
 8000820:	281b      	cmp	r0, #27
 8000822:	dc00      	bgt.n	8000826 <__aeabi_fsub+0x4e>
 8000824:	e0e9      	b.n	80009fa <__aeabi_fsub+0x222>
 8000826:	2001      	movs	r0, #1
 8000828:	4663      	mov	r3, ip
 800082a:	1a18      	subs	r0, r3, r0
 800082c:	0143      	lsls	r3, r0, #5
 800082e:	d400      	bmi.n	8000832 <__aeabi_fsub+0x5a>
 8000830:	e0b4      	b.n	800099c <__aeabi_fsub+0x1c4>
 8000832:	0180      	lsls	r0, r0, #6
 8000834:	0987      	lsrs	r7, r0, #6
 8000836:	0038      	movs	r0, r7
 8000838:	f000 fa24 	bl	8000c84 <__clzsi2>
 800083c:	3805      	subs	r0, #5
 800083e:	4087      	lsls	r7, r0
 8000840:	4285      	cmp	r5, r0
 8000842:	dc00      	bgt.n	8000846 <__aeabi_fsub+0x6e>
 8000844:	e0cc      	b.n	80009e0 <__aeabi_fsub+0x208>
 8000846:	1a2d      	subs	r5, r5, r0
 8000848:	48b5      	ldr	r0, [pc, #724]	; (8000b20 <__aeabi_fsub+0x348>)
 800084a:	4038      	ands	r0, r7
 800084c:	0743      	lsls	r3, r0, #29
 800084e:	d004      	beq.n	800085a <__aeabi_fsub+0x82>
 8000850:	230f      	movs	r3, #15
 8000852:	4003      	ands	r3, r0
 8000854:	2b04      	cmp	r3, #4
 8000856:	d000      	beq.n	800085a <__aeabi_fsub+0x82>
 8000858:	3004      	adds	r0, #4
 800085a:	0143      	lsls	r3, r0, #5
 800085c:	d400      	bmi.n	8000860 <__aeabi_fsub+0x88>
 800085e:	e0a0      	b.n	80009a2 <__aeabi_fsub+0x1ca>
 8000860:	1c6a      	adds	r2, r5, #1
 8000862:	2dfe      	cmp	r5, #254	; 0xfe
 8000864:	d100      	bne.n	8000868 <__aeabi_fsub+0x90>
 8000866:	e08d      	b.n	8000984 <__aeabi_fsub+0x1ac>
 8000868:	0180      	lsls	r0, r0, #6
 800086a:	0a47      	lsrs	r7, r0, #9
 800086c:	b2d2      	uxtb	r2, r2
 800086e:	05d0      	lsls	r0, r2, #23
 8000870:	4338      	orrs	r0, r7
 8000872:	07e4      	lsls	r4, r4, #31
 8000874:	4320      	orrs	r0, r4
 8000876:	bcc0      	pop	{r6, r7}
 8000878:	46b9      	mov	r9, r7
 800087a:	46b0      	mov	r8, r6
 800087c:	bdf8      	pop	{r3, r4, r5, r6, r7, pc}
 800087e:	1aa8      	subs	r0, r5, r2
 8000880:	4680      	mov	r8, r0
 8000882:	2800      	cmp	r0, #0
 8000884:	dd45      	ble.n	8000912 <__aeabi_fsub+0x13a>
 8000886:	2a00      	cmp	r2, #0
 8000888:	d070      	beq.n	800096c <__aeabi_fsub+0x194>
 800088a:	2dff      	cmp	r5, #255	; 0xff
 800088c:	d100      	bne.n	8000890 <__aeabi_fsub+0xb8>
 800088e:	e09e      	b.n	80009ce <__aeabi_fsub+0x1f6>
 8000890:	2380      	movs	r3, #128	; 0x80
 8000892:	04db      	lsls	r3, r3, #19
 8000894:	431e      	orrs	r6, r3
 8000896:	4643      	mov	r3, r8
 8000898:	2b1b      	cmp	r3, #27
 800089a:	dc00      	bgt.n	800089e <__aeabi_fsub+0xc6>
 800089c:	e0d2      	b.n	8000a44 <__aeabi_fsub+0x26c>
 800089e:	2001      	movs	r0, #1
 80008a0:	4460      	add	r0, ip
 80008a2:	0143      	lsls	r3, r0, #5
 80008a4:	d57a      	bpl.n	800099c <__aeabi_fsub+0x1c4>
 80008a6:	3501      	adds	r5, #1
 80008a8:	2dff      	cmp	r5, #255	; 0xff
 80008aa:	d06b      	beq.n	8000984 <__aeabi_fsub+0x1ac>
 80008ac:	2301      	movs	r3, #1
 80008ae:	4a9d      	ldr	r2, [pc, #628]	; (8000b24 <__aeabi_fsub+0x34c>)
 80008b0:	4003      	ands	r3, r0
 80008b2:	0840      	lsrs	r0, r0, #1
 80008b4:	4010      	ands	r0, r2
 80008b6:	4318      	orrs	r0, r3
 80008b8:	e7c8      	b.n	800084c <__aeabi_fsub+0x74>
 80008ba:	2e00      	cmp	r6, #0
 80008bc:	d020      	beq.n	8000900 <__aeabi_fsub+0x128>
 80008be:	428c      	cmp	r4, r1
 80008c0:	d023      	beq.n	800090a <__aeabi_fsub+0x132>
 80008c2:	0028      	movs	r0, r5
 80008c4:	38ff      	subs	r0, #255	; 0xff
 80008c6:	2800      	cmp	r0, #0
 80008c8:	d039      	beq.n	800093e <__aeabi_fsub+0x166>
 80008ca:	1b57      	subs	r7, r2, r5
 80008cc:	2d00      	cmp	r5, #0
 80008ce:	d000      	beq.n	80008d2 <__aeabi_fsub+0xfa>
 80008d0:	e09d      	b.n	8000a0e <__aeabi_fsub+0x236>
 80008d2:	4663      	mov	r3, ip
 80008d4:	2b00      	cmp	r3, #0
 80008d6:	d100      	bne.n	80008da <__aeabi_fsub+0x102>
 80008d8:	e0db      	b.n	8000a92 <__aeabi_fsub+0x2ba>
 80008da:	1e7b      	subs	r3, r7, #1
 80008dc:	2f01      	cmp	r7, #1
 80008de:	d100      	bne.n	80008e2 <__aeabi_fsub+0x10a>
 80008e0:	e10d      	b.n	8000afe <__aeabi_fsub+0x326>
 80008e2:	2fff      	cmp	r7, #255	; 0xff
 80008e4:	d071      	beq.n	80009ca <__aeabi_fsub+0x1f2>
 80008e6:	001f      	movs	r7, r3
 80008e8:	e098      	b.n	8000a1c <__aeabi_fsub+0x244>
 80008ea:	2e00      	cmp	r6, #0
 80008ec:	d100      	bne.n	80008f0 <__aeabi_fsub+0x118>
 80008ee:	e0a7      	b.n	8000a40 <__aeabi_fsub+0x268>
 80008f0:	1e42      	subs	r2, r0, #1
 80008f2:	2801      	cmp	r0, #1
 80008f4:	d100      	bne.n	80008f8 <__aeabi_fsub+0x120>
 80008f6:	e0e6      	b.n	8000ac6 <__aeabi_fsub+0x2ee>
 80008f8:	28ff      	cmp	r0, #255	; 0xff
 80008fa:	d068      	beq.n	80009ce <__aeabi_fsub+0x1f6>
 80008fc:	0010      	movs	r0, r2
 80008fe:	e78f      	b.n	8000820 <__aeabi_fsub+0x48>
 8000900:	2001      	movs	r0, #1
 8000902:	4041      	eors	r1, r0
 8000904:	42a1      	cmp	r1, r4
 8000906:	d000      	beq.n	800090a <__aeabi_fsub+0x132>
 8000908:	e77f      	b.n	800080a <__aeabi_fsub+0x32>
 800090a:	20ff      	movs	r0, #255	; 0xff
 800090c:	4240      	negs	r0, r0
 800090e:	4680      	mov	r8, r0
 8000910:	44a8      	add	r8, r5
 8000912:	4640      	mov	r0, r8
 8000914:	2800      	cmp	r0, #0
 8000916:	d038      	beq.n	800098a <__aeabi_fsub+0x1b2>
 8000918:	1b51      	subs	r1, r2, r5
 800091a:	2d00      	cmp	r5, #0
 800091c:	d100      	bne.n	8000920 <__aeabi_fsub+0x148>
 800091e:	e0ae      	b.n	8000a7e <__aeabi_fsub+0x2a6>
 8000920:	2aff      	cmp	r2, #255	; 0xff
 8000922:	d100      	bne.n	8000926 <__aeabi_fsub+0x14e>
 8000924:	e0df      	b.n	8000ae6 <__aeabi_fsub+0x30e>
 8000926:	2380      	movs	r3, #128	; 0x80
 8000928:	4660      	mov	r0, ip
 800092a:	04db      	lsls	r3, r3, #19
 800092c:	4318      	orrs	r0, r3
 800092e:	4684      	mov	ip, r0
 8000930:	291b      	cmp	r1, #27
 8000932:	dc00      	bgt.n	8000936 <__aeabi_fsub+0x15e>
 8000934:	e0d9      	b.n	8000aea <__aeabi_fsub+0x312>
 8000936:	2001      	movs	r0, #1
 8000938:	0015      	movs	r5, r2
 800093a:	1980      	adds	r0, r0, r6
 800093c:	e7b1      	b.n	80008a2 <__aeabi_fsub+0xca>
 800093e:	20fe      	movs	r0, #254	; 0xfe
 8000940:	1c6a      	adds	r2, r5, #1
 8000942:	4210      	tst	r0, r2
 8000944:	d171      	bne.n	8000a2a <__aeabi_fsub+0x252>
 8000946:	2d00      	cmp	r5, #0
 8000948:	d000      	beq.n	800094c <__aeabi_fsub+0x174>
 800094a:	e0a6      	b.n	8000a9a <__aeabi_fsub+0x2c2>
 800094c:	4663      	mov	r3, ip
 800094e:	2b00      	cmp	r3, #0
 8000950:	d100      	bne.n	8000954 <__aeabi_fsub+0x17c>
 8000952:	e0d9      	b.n	8000b08 <__aeabi_fsub+0x330>
 8000954:	2200      	movs	r2, #0
 8000956:	2e00      	cmp	r6, #0
 8000958:	d100      	bne.n	800095c <__aeabi_fsub+0x184>
 800095a:	e788      	b.n	800086e <__aeabi_fsub+0x96>
 800095c:	1b98      	subs	r0, r3, r6
 800095e:	0143      	lsls	r3, r0, #5
 8000960:	d400      	bmi.n	8000964 <__aeabi_fsub+0x18c>
 8000962:	e0e1      	b.n	8000b28 <__aeabi_fsub+0x350>
 8000964:	4663      	mov	r3, ip
 8000966:	000c      	movs	r4, r1
 8000968:	1af0      	subs	r0, r6, r3
 800096a:	e76f      	b.n	800084c <__aeabi_fsub+0x74>
 800096c:	2e00      	cmp	r6, #0
 800096e:	d100      	bne.n	8000972 <__aeabi_fsub+0x19a>
 8000970:	e0b7      	b.n	8000ae2 <__aeabi_fsub+0x30a>
 8000972:	0002      	movs	r2, r0
 8000974:	3a01      	subs	r2, #1
 8000976:	2801      	cmp	r0, #1
 8000978:	d100      	bne.n	800097c <__aeabi_fsub+0x1a4>
 800097a:	e09c      	b.n	8000ab6 <__aeabi_fsub+0x2de>
 800097c:	28ff      	cmp	r0, #255	; 0xff
 800097e:	d026      	beq.n	80009ce <__aeabi_fsub+0x1f6>
 8000980:	4690      	mov	r8, r2
 8000982:	e788      	b.n	8000896 <__aeabi_fsub+0xbe>
 8000984:	22ff      	movs	r2, #255	; 0xff
 8000986:	2700      	movs	r7, #0
 8000988:	e771      	b.n	800086e <__aeabi_fsub+0x96>
 800098a:	20fe      	movs	r0, #254	; 0xfe
 800098c:	1c6a      	adds	r2, r5, #1
 800098e:	4210      	tst	r0, r2
 8000990:	d064      	beq.n	8000a5c <__aeabi_fsub+0x284>
 8000992:	2aff      	cmp	r2, #255	; 0xff
 8000994:	d0f6      	beq.n	8000984 <__aeabi_fsub+0x1ac>
 8000996:	0015      	movs	r5, r2
 8000998:	4466      	add	r6, ip
 800099a:	0870      	lsrs	r0, r6, #1
 800099c:	0743      	lsls	r3, r0, #29
 800099e:	d000      	beq.n	80009a2 <__aeabi_fsub+0x1ca>
 80009a0:	e756      	b.n	8000850 <__aeabi_fsub+0x78>
 80009a2:	08c3      	lsrs	r3, r0, #3
 80009a4:	2dff      	cmp	r5, #255	; 0xff
 80009a6:	d012      	beq.n	80009ce <__aeabi_fsub+0x1f6>
 80009a8:	025b      	lsls	r3, r3, #9
 80009aa:	0a5f      	lsrs	r7, r3, #9
 80009ac:	b2ea      	uxtb	r2, r5
 80009ae:	e75e      	b.n	800086e <__aeabi_fsub+0x96>
 80009b0:	4662      	mov	r2, ip
 80009b2:	2a00      	cmp	r2, #0
 80009b4:	d100      	bne.n	80009b8 <__aeabi_fsub+0x1e0>
 80009b6:	e096      	b.n	8000ae6 <__aeabi_fsub+0x30e>
 80009b8:	2e00      	cmp	r6, #0
 80009ba:	d008      	beq.n	80009ce <__aeabi_fsub+0x1f6>
 80009bc:	2280      	movs	r2, #128	; 0x80
 80009be:	03d2      	lsls	r2, r2, #15
 80009c0:	4213      	tst	r3, r2
 80009c2:	d004      	beq.n	80009ce <__aeabi_fsub+0x1f6>
 80009c4:	4648      	mov	r0, r9
 80009c6:	4210      	tst	r0, r2
 80009c8:	d101      	bne.n	80009ce <__aeabi_fsub+0x1f6>
 80009ca:	000c      	movs	r4, r1
 80009cc:	464b      	mov	r3, r9
 80009ce:	2b00      	cmp	r3, #0
 80009d0:	d0d8      	beq.n	8000984 <__aeabi_fsub+0x1ac>
 80009d2:	2780      	movs	r7, #128	; 0x80
 80009d4:	03ff      	lsls	r7, r7, #15
 80009d6:	431f      	orrs	r7, r3
 80009d8:	027f      	lsls	r7, r7, #9
 80009da:	22ff      	movs	r2, #255	; 0xff
 80009dc:	0a7f      	lsrs	r7, r7, #9
 80009de:	e746      	b.n	800086e <__aeabi_fsub+0x96>
 80009e0:	2320      	movs	r3, #32
 80009e2:	003a      	movs	r2, r7
 80009e4:	1b45      	subs	r5, r0, r5
 80009e6:	0038      	movs	r0, r7
 80009e8:	3501      	adds	r5, #1
 80009ea:	40ea      	lsrs	r2, r5
 80009ec:	1b5d      	subs	r5, r3, r5
 80009ee:	40a8      	lsls	r0, r5
 80009f0:	1e43      	subs	r3, r0, #1
 80009f2:	4198      	sbcs	r0, r3
 80009f4:	2500      	movs	r5, #0
 80009f6:	4310      	orrs	r0, r2
 80009f8:	e728      	b.n	800084c <__aeabi_fsub+0x74>
 80009fa:	2320      	movs	r3, #32
 80009fc:	1a1b      	subs	r3, r3, r0
 80009fe:	0032      	movs	r2, r6
 8000a00:	409e      	lsls	r6, r3
 8000a02:	40c2      	lsrs	r2, r0
 8000a04:	0030      	movs	r0, r6
 8000a06:	1e43      	subs	r3, r0, #1
 8000a08:	4198      	sbcs	r0, r3
 8000a0a:	4310      	orrs	r0, r2
 8000a0c:	e70c      	b.n	8000828 <__aeabi_fsub+0x50>
 8000a0e:	2aff      	cmp	r2, #255	; 0xff
 8000a10:	d0db      	beq.n	80009ca <__aeabi_fsub+0x1f2>
 8000a12:	2380      	movs	r3, #128	; 0x80
 8000a14:	4660      	mov	r0, ip
 8000a16:	04db      	lsls	r3, r3, #19
 8000a18:	4318      	orrs	r0, r3
 8000a1a:	4684      	mov	ip, r0
 8000a1c:	2f1b      	cmp	r7, #27
 8000a1e:	dd56      	ble.n	8000ace <__aeabi_fsub+0x2f6>
 8000a20:	2001      	movs	r0, #1
 8000a22:	000c      	movs	r4, r1
 8000a24:	0015      	movs	r5, r2
 8000a26:	1a30      	subs	r0, r6, r0
 8000a28:	e700      	b.n	800082c <__aeabi_fsub+0x54>
 8000a2a:	4663      	mov	r3, ip
 8000a2c:	1b9f      	subs	r7, r3, r6
 8000a2e:	017b      	lsls	r3, r7, #5
 8000a30:	d43d      	bmi.n	8000aae <__aeabi_fsub+0x2d6>
 8000a32:	2f00      	cmp	r7, #0
 8000a34:	d000      	beq.n	8000a38 <__aeabi_fsub+0x260>
 8000a36:	e6fe      	b.n	8000836 <__aeabi_fsub+0x5e>
 8000a38:	2400      	movs	r4, #0
 8000a3a:	2200      	movs	r2, #0
 8000a3c:	2700      	movs	r7, #0
 8000a3e:	e716      	b.n	800086e <__aeabi_fsub+0x96>
 8000a40:	0005      	movs	r5, r0
 8000a42:	e7af      	b.n	80009a4 <__aeabi_fsub+0x1cc>
 8000a44:	0032      	movs	r2, r6
 8000a46:	4643      	mov	r3, r8
 8000a48:	4641      	mov	r1, r8
 8000a4a:	40da      	lsrs	r2, r3
 8000a4c:	2320      	movs	r3, #32
 8000a4e:	1a5b      	subs	r3, r3, r1
 8000a50:	409e      	lsls	r6, r3
 8000a52:	0030      	movs	r0, r6
 8000a54:	1e43      	subs	r3, r0, #1
 8000a56:	4198      	sbcs	r0, r3
 8000a58:	4310      	orrs	r0, r2
 8000a5a:	e721      	b.n	80008a0 <__aeabi_fsub+0xc8>
 8000a5c:	2d00      	cmp	r5, #0
 8000a5e:	d1a7      	bne.n	80009b0 <__aeabi_fsub+0x1d8>
 8000a60:	4663      	mov	r3, ip
 8000a62:	2b00      	cmp	r3, #0
 8000a64:	d059      	beq.n	8000b1a <__aeabi_fsub+0x342>
 8000a66:	2200      	movs	r2, #0
 8000a68:	2e00      	cmp	r6, #0
 8000a6a:	d100      	bne.n	8000a6e <__aeabi_fsub+0x296>
 8000a6c:	e6ff      	b.n	800086e <__aeabi_fsub+0x96>
 8000a6e:	0030      	movs	r0, r6
 8000a70:	4460      	add	r0, ip
 8000a72:	0143      	lsls	r3, r0, #5
 8000a74:	d592      	bpl.n	800099c <__aeabi_fsub+0x1c4>
 8000a76:	4b2a      	ldr	r3, [pc, #168]	; (8000b20 <__aeabi_fsub+0x348>)
 8000a78:	3501      	adds	r5, #1
 8000a7a:	4018      	ands	r0, r3
 8000a7c:	e78e      	b.n	800099c <__aeabi_fsub+0x1c4>
 8000a7e:	4663      	mov	r3, ip
 8000a80:	2b00      	cmp	r3, #0
 8000a82:	d047      	beq.n	8000b14 <__aeabi_fsub+0x33c>
 8000a84:	1e4b      	subs	r3, r1, #1
 8000a86:	2901      	cmp	r1, #1
 8000a88:	d015      	beq.n	8000ab6 <__aeabi_fsub+0x2de>
 8000a8a:	29ff      	cmp	r1, #255	; 0xff
 8000a8c:	d02b      	beq.n	8000ae6 <__aeabi_fsub+0x30e>
 8000a8e:	0019      	movs	r1, r3
 8000a90:	e74e      	b.n	8000930 <__aeabi_fsub+0x158>
 8000a92:	000c      	movs	r4, r1
 8000a94:	464b      	mov	r3, r9
 8000a96:	003d      	movs	r5, r7
 8000a98:	e784      	b.n	80009a4 <__aeabi_fsub+0x1cc>
 8000a9a:	4662      	mov	r2, ip
 8000a9c:	2a00      	cmp	r2, #0
 8000a9e:	d18b      	bne.n	80009b8 <__aeabi_fsub+0x1e0>
 8000aa0:	2e00      	cmp	r6, #0
 8000aa2:	d192      	bne.n	80009ca <__aeabi_fsub+0x1f2>
 8000aa4:	2780      	movs	r7, #128	; 0x80
 8000aa6:	2400      	movs	r4, #0
 8000aa8:	22ff      	movs	r2, #255	; 0xff
 8000aaa:	03ff      	lsls	r7, r7, #15
 8000aac:	e6df      	b.n	800086e <__aeabi_fsub+0x96>
 8000aae:	4663      	mov	r3, ip
 8000ab0:	000c      	movs	r4, r1
 8000ab2:	1af7      	subs	r7, r6, r3
 8000ab4:	e6bf      	b.n	8000836 <__aeabi_fsub+0x5e>
 8000ab6:	0030      	movs	r0, r6
 8000ab8:	4460      	add	r0, ip
 8000aba:	2501      	movs	r5, #1
 8000abc:	0143      	lsls	r3, r0, #5
 8000abe:	d400      	bmi.n	8000ac2 <__aeabi_fsub+0x2ea>
 8000ac0:	e76c      	b.n	800099c <__aeabi_fsub+0x1c4>
 8000ac2:	2502      	movs	r5, #2
 8000ac4:	e6f2      	b.n	80008ac <__aeabi_fsub+0xd4>
 8000ac6:	4663      	mov	r3, ip
 8000ac8:	2501      	movs	r5, #1
 8000aca:	1b98      	subs	r0, r3, r6
 8000acc:	e6ae      	b.n	800082c <__aeabi_fsub+0x54>
 8000ace:	2320      	movs	r3, #32
 8000ad0:	4664      	mov	r4, ip
 8000ad2:	4660      	mov	r0, ip
 8000ad4:	40fc      	lsrs	r4, r7
 8000ad6:	1bdf      	subs	r7, r3, r7
 8000ad8:	40b8      	lsls	r0, r7
 8000ada:	1e43      	subs	r3, r0, #1
 8000adc:	4198      	sbcs	r0, r3
 8000ade:	4320      	orrs	r0, r4
 8000ae0:	e79f      	b.n	8000a22 <__aeabi_fsub+0x24a>
 8000ae2:	0005      	movs	r5, r0
 8000ae4:	e75e      	b.n	80009a4 <__aeabi_fsub+0x1cc>
 8000ae6:	464b      	mov	r3, r9
 8000ae8:	e771      	b.n	80009ce <__aeabi_fsub+0x1f6>
 8000aea:	2320      	movs	r3, #32
 8000aec:	4665      	mov	r5, ip
 8000aee:	4660      	mov	r0, ip
 8000af0:	40cd      	lsrs	r5, r1
 8000af2:	1a59      	subs	r1, r3, r1
 8000af4:	4088      	lsls	r0, r1
 8000af6:	1e43      	subs	r3, r0, #1
 8000af8:	4198      	sbcs	r0, r3
 8000afa:	4328      	orrs	r0, r5
 8000afc:	e71c      	b.n	8000938 <__aeabi_fsub+0x160>
 8000afe:	4663      	mov	r3, ip
 8000b00:	000c      	movs	r4, r1
 8000b02:	2501      	movs	r5, #1
 8000b04:	1af0      	subs	r0, r6, r3
 8000b06:	e691      	b.n	800082c <__aeabi_fsub+0x54>
 8000b08:	2e00      	cmp	r6, #0
 8000b0a:	d095      	beq.n	8000a38 <__aeabi_fsub+0x260>
 8000b0c:	000c      	movs	r4, r1
 8000b0e:	464f      	mov	r7, r9
 8000b10:	2200      	movs	r2, #0
 8000b12:	e6ac      	b.n	800086e <__aeabi_fsub+0x96>
 8000b14:	464b      	mov	r3, r9
 8000b16:	000d      	movs	r5, r1
 8000b18:	e744      	b.n	80009a4 <__aeabi_fsub+0x1cc>
 8000b1a:	464f      	mov	r7, r9
 8000b1c:	2200      	movs	r2, #0
 8000b1e:	e6a6      	b.n	800086e <__aeabi_fsub+0x96>
 8000b20:	fbffffff 	.word	0xfbffffff
 8000b24:	7dffffff 	.word	0x7dffffff
 8000b28:	2800      	cmp	r0, #0
 8000b2a:	d000      	beq.n	8000b2e <__aeabi_fsub+0x356>
 8000b2c:	e736      	b.n	800099c <__aeabi_fsub+0x1c4>
 8000b2e:	2400      	movs	r4, #0
 8000b30:	2700      	movs	r7, #0
 8000b32:	e69c      	b.n	800086e <__aeabi_fsub+0x96>

08000b34 <__aeabi_f2iz>:
 8000b34:	0241      	lsls	r1, r0, #9
 8000b36:	0042      	lsls	r2, r0, #1
 8000b38:	0fc3      	lsrs	r3, r0, #31
 8000b3a:	0a49      	lsrs	r1, r1, #9
 8000b3c:	2000      	movs	r0, #0
 8000b3e:	0e12      	lsrs	r2, r2, #24
 8000b40:	2a7e      	cmp	r2, #126	; 0x7e
 8000b42:	dd03      	ble.n	8000b4c <__aeabi_f2iz+0x18>
 8000b44:	2a9d      	cmp	r2, #157	; 0x9d
 8000b46:	dd02      	ble.n	8000b4e <__aeabi_f2iz+0x1a>
 8000b48:	4a09      	ldr	r2, [pc, #36]	; (8000b70 <__aeabi_f2iz+0x3c>)
 8000b4a:	1898      	adds	r0, r3, r2
 8000b4c:	4770      	bx	lr
 8000b4e:	2080      	movs	r0, #128	; 0x80
 8000b50:	0400      	lsls	r0, r0, #16
 8000b52:	4301      	orrs	r1, r0
 8000b54:	2a95      	cmp	r2, #149	; 0x95
 8000b56:	dc07      	bgt.n	8000b68 <__aeabi_f2iz+0x34>
 8000b58:	2096      	movs	r0, #150	; 0x96
 8000b5a:	1a82      	subs	r2, r0, r2
 8000b5c:	40d1      	lsrs	r1, r2
 8000b5e:	4248      	negs	r0, r1
 8000b60:	2b00      	cmp	r3, #0
 8000b62:	d1f3      	bne.n	8000b4c <__aeabi_f2iz+0x18>
 8000b64:	0008      	movs	r0, r1
 8000b66:	e7f1      	b.n	8000b4c <__aeabi_f2iz+0x18>
 8000b68:	3a96      	subs	r2, #150	; 0x96
 8000b6a:	4091      	lsls	r1, r2
 8000b6c:	e7f7      	b.n	8000b5e <__aeabi_f2iz+0x2a>
 8000b6e:	46c0      	nop			; (mov r8, r8)
 8000b70:	7fffffff 	.word	0x7fffffff

08000b74 <__aeabi_i2f>:
 8000b74:	b5f8      	push	{r3, r4, r5, r6, r7, lr}
 8000b76:	2800      	cmp	r0, #0
 8000b78:	d013      	beq.n	8000ba2 <__aeabi_i2f+0x2e>
 8000b7a:	17c3      	asrs	r3, r0, #31
 8000b7c:	18c6      	adds	r6, r0, r3
 8000b7e:	405e      	eors	r6, r3
 8000b80:	0fc4      	lsrs	r4, r0, #31
 8000b82:	0030      	movs	r0, r6
 8000b84:	f000 f87e 	bl	8000c84 <__clzsi2>
 8000b88:	239e      	movs	r3, #158	; 0x9e
 8000b8a:	0005      	movs	r5, r0
 8000b8c:	1a1b      	subs	r3, r3, r0
 8000b8e:	2b96      	cmp	r3, #150	; 0x96
 8000b90:	dc0f      	bgt.n	8000bb2 <__aeabi_i2f+0x3e>
 8000b92:	2808      	cmp	r0, #8
 8000b94:	dd01      	ble.n	8000b9a <__aeabi_i2f+0x26>
 8000b96:	3d08      	subs	r5, #8
 8000b98:	40ae      	lsls	r6, r5
 8000b9a:	0276      	lsls	r6, r6, #9
 8000b9c:	0a76      	lsrs	r6, r6, #9
 8000b9e:	b2d8      	uxtb	r0, r3
 8000ba0:	e002      	b.n	8000ba8 <__aeabi_i2f+0x34>
 8000ba2:	2400      	movs	r4, #0
 8000ba4:	2000      	movs	r0, #0
 8000ba6:	2600      	movs	r6, #0
 8000ba8:	05c0      	lsls	r0, r0, #23
 8000baa:	4330      	orrs	r0, r6
 8000bac:	07e4      	lsls	r4, r4, #31
 8000bae:	4320      	orrs	r0, r4
 8000bb0:	bdf8      	pop	{r3, r4, r5, r6, r7, pc}
 8000bb2:	2b99      	cmp	r3, #153	; 0x99
 8000bb4:	dd0c      	ble.n	8000bd0 <__aeabi_i2f+0x5c>
 8000bb6:	2205      	movs	r2, #5
 8000bb8:	0031      	movs	r1, r6
 8000bba:	1a12      	subs	r2, r2, r0
 8000bbc:	40d1      	lsrs	r1, r2
 8000bbe:	000a      	movs	r2, r1
 8000bc0:	0001      	movs	r1, r0
 8000bc2:	0030      	movs	r0, r6
 8000bc4:	311b      	adds	r1, #27
 8000bc6:	4088      	lsls	r0, r1
 8000bc8:	1e41      	subs	r1, r0, #1
 8000bca:	4188      	sbcs	r0, r1
 8000bcc:	4302      	orrs	r2, r0
 8000bce:	0016      	movs	r6, r2
 8000bd0:	2d05      	cmp	r5, #5
 8000bd2:	dc12      	bgt.n	8000bfa <__aeabi_i2f+0x86>
 8000bd4:	0031      	movs	r1, r6
 8000bd6:	4f0d      	ldr	r7, [pc, #52]	; (8000c0c <__aeabi_i2f+0x98>)
 8000bd8:	4039      	ands	r1, r7
 8000bda:	0772      	lsls	r2, r6, #29
 8000bdc:	d009      	beq.n	8000bf2 <__aeabi_i2f+0x7e>
 8000bde:	200f      	movs	r0, #15
 8000be0:	4030      	ands	r0, r6
 8000be2:	2804      	cmp	r0, #4
 8000be4:	d005      	beq.n	8000bf2 <__aeabi_i2f+0x7e>
 8000be6:	3104      	adds	r1, #4
 8000be8:	014a      	lsls	r2, r1, #5
 8000bea:	d502      	bpl.n	8000bf2 <__aeabi_i2f+0x7e>
 8000bec:	239f      	movs	r3, #159	; 0x9f
 8000bee:	4039      	ands	r1, r7
 8000bf0:	1b5b      	subs	r3, r3, r5
 8000bf2:	0189      	lsls	r1, r1, #6
 8000bf4:	0a4e      	lsrs	r6, r1, #9
 8000bf6:	b2d8      	uxtb	r0, r3
 8000bf8:	e7d6      	b.n	8000ba8 <__aeabi_i2f+0x34>
 8000bfa:	1f6a      	subs	r2, r5, #5
 8000bfc:	4096      	lsls	r6, r2
 8000bfe:	0031      	movs	r1, r6
 8000c00:	4f02      	ldr	r7, [pc, #8]	; (8000c0c <__aeabi_i2f+0x98>)
 8000c02:	4039      	ands	r1, r7
 8000c04:	0772      	lsls	r2, r6, #29
 8000c06:	d0f4      	beq.n	8000bf2 <__aeabi_i2f+0x7e>
 8000c08:	e7e9      	b.n	8000bde <__aeabi_i2f+0x6a>
 8000c0a:	46c0      	nop			; (mov r8, r8)
 8000c0c:	fbffffff 	.word	0xfbffffff

08000c10 <__aeabi_cfrcmple>:
 8000c10:	4684      	mov	ip, r0
 8000c12:	0008      	movs	r0, r1
 8000c14:	4661      	mov	r1, ip
 8000c16:	e7ff      	b.n	8000c18 <__aeabi_cfcmpeq>

08000c18 <__aeabi_cfcmpeq>:
 8000c18:	b51f      	push	{r0, r1, r2, r3, r4, lr}
 8000c1a:	f000 f8bd 	bl	8000d98 <__lesf2>
 8000c1e:	2800      	cmp	r0, #0
 8000c20:	d401      	bmi.n	8000c26 <__aeabi_cfcmpeq+0xe>
 8000c22:	2100      	movs	r1, #0
 8000c24:	42c8      	cmn	r0, r1
 8000c26:	bd1f      	pop	{r0, r1, r2, r3, r4, pc}

08000c28 <__aeabi_fcmpeq>:
 8000c28:	b510      	push	{r4, lr}
 8000c2a:	f000 f849 	bl	8000cc0 <__eqsf2>
 8000c2e:	4240      	negs	r0, r0
 8000c30:	3001      	adds	r0, #1
 8000c32:	bd10      	pop	{r4, pc}

08000c34 <__aeabi_fcmplt>:
 8000c34:	b510      	push	{r4, lr}
 8000c36:	f000 f8af 	bl	8000d98 <__lesf2>
 8000c3a:	2800      	cmp	r0, #0
 8000c3c:	db01      	blt.n	8000c42 <__aeabi_fcmplt+0xe>
 8000c3e:	2000      	movs	r0, #0
 8000c40:	bd10      	pop	{r4, pc}
 8000c42:	2001      	movs	r0, #1
 8000c44:	bd10      	pop	{r4, pc}
 8000c46:	46c0      	nop			; (mov r8, r8)

08000c48 <__aeabi_fcmple>:
 8000c48:	b510      	push	{r4, lr}
 8000c4a:	f000 f8a5 	bl	8000d98 <__lesf2>
 8000c4e:	2800      	cmp	r0, #0
 8000c50:	dd01      	ble.n	8000c56 <__aeabi_fcmple+0xe>
 8000c52:	2000      	movs	r0, #0
 8000c54:	bd10      	pop	{r4, pc}
 8000c56:	2001      	movs	r0, #1
 8000c58:	bd10      	pop	{r4, pc}
 8000c5a:	46c0      	nop			; (mov r8, r8)

08000c5c <__aeabi_fcmpgt>:
 8000c5c:	b510      	push	{r4, lr}
 8000c5e:	f000 f855 	bl	8000d0c <__gesf2>
 8000c62:	2800      	cmp	r0, #0
 8000c64:	dc01      	bgt.n	8000c6a <__aeabi_fcmpgt+0xe>
 8000c66:	2000      	movs	r0, #0
 8000c68:	bd10      	pop	{r4, pc}
 8000c6a:	2001      	movs	r0, #1
 8000c6c:	bd10      	pop	{r4, pc}
 8000c6e:	46c0      	nop			; (mov r8, r8)

08000c70 <__aeabi_fcmpge>:
 8000c70:	b510      	push	{r4, lr}
 8000c72:	f000 f84b 	bl	8000d0c <__gesf2>
 8000c76:	2800      	cmp	r0, #0
 8000c78:	da01      	bge.n	8000c7e <__aeabi_fcmpge+0xe>
 8000c7a:	2000      	movs	r0, #0
 8000c7c:	bd10      	pop	{r4, pc}
 8000c7e:	2001      	movs	r0, #1
 8000c80:	bd10      	pop	{r4, pc}
 8000c82:	46c0      	nop			; (mov r8, r8)

08000c84 <__clzsi2>:
 8000c84:	211c      	movs	r1, #28
 8000c86:	2301      	movs	r3, #1
 8000c88:	041b      	lsls	r3, r3, #16
 8000c8a:	4298      	cmp	r0, r3
 8000c8c:	d301      	bcc.n	8000c92 <__clzsi2+0xe>
 8000c8e:	0c00      	lsrs	r0, r0, #16
 8000c90:	3910      	subs	r1, #16
 8000c92:	0a1b      	lsrs	r3, r3, #8
 8000c94:	4298      	cmp	r0, r3
 8000c96:	d301      	bcc.n	8000c9c <__clzsi2+0x18>
 8000c98:	0a00      	lsrs	r0, r0, #8
 8000c9a:	3908      	subs	r1, #8
 8000c9c:	091b      	lsrs	r3, r3, #4
 8000c9e:	4298      	cmp	r0, r3
 8000ca0:	d301      	bcc.n	8000ca6 <__clzsi2+0x22>
 8000ca2:	0900      	lsrs	r0, r0, #4
 8000ca4:	3904      	subs	r1, #4
 8000ca6:	a202      	add	r2, pc, #8	; (adr r2, 8000cb0 <__clzsi2+0x2c>)
 8000ca8:	5c10      	ldrb	r0, [r2, r0]
 8000caa:	1840      	adds	r0, r0, r1
 8000cac:	4770      	bx	lr
 8000cae:	46c0      	nop			; (mov r8, r8)
 8000cb0:	02020304 	.word	0x02020304
 8000cb4:	01010101 	.word	0x01010101
	...

08000cc0 <__eqsf2>:
 8000cc0:	b570      	push	{r4, r5, r6, lr}
 8000cc2:	0042      	lsls	r2, r0, #1
 8000cc4:	0245      	lsls	r5, r0, #9
 8000cc6:	024e      	lsls	r6, r1, #9
 8000cc8:	004c      	lsls	r4, r1, #1
 8000cca:	0fc3      	lsrs	r3, r0, #31
 8000ccc:	0a6d      	lsrs	r5, r5, #9
 8000cce:	2001      	movs	r0, #1
 8000cd0:	0e12      	lsrs	r2, r2, #24
 8000cd2:	0a76      	lsrs	r6, r6, #9
 8000cd4:	0e24      	lsrs	r4, r4, #24
 8000cd6:	0fc9      	lsrs	r1, r1, #31
 8000cd8:	2aff      	cmp	r2, #255	; 0xff
 8000cda:	d006      	beq.n	8000cea <__eqsf2+0x2a>
 8000cdc:	2cff      	cmp	r4, #255	; 0xff
 8000cde:	d003      	beq.n	8000ce8 <__eqsf2+0x28>
 8000ce0:	42a2      	cmp	r2, r4
 8000ce2:	d101      	bne.n	8000ce8 <__eqsf2+0x28>
 8000ce4:	42b5      	cmp	r5, r6
 8000ce6:	d006      	beq.n	8000cf6 <__eqsf2+0x36>
 8000ce8:	bd70      	pop	{r4, r5, r6, pc}
 8000cea:	2d00      	cmp	r5, #0
 8000cec:	d1fc      	bne.n	8000ce8 <__eqsf2+0x28>
 8000cee:	2cff      	cmp	r4, #255	; 0xff
 8000cf0:	d1fa      	bne.n	8000ce8 <__eqsf2+0x28>
 8000cf2:	2e00      	cmp	r6, #0
 8000cf4:	d1f8      	bne.n	8000ce8 <__eqsf2+0x28>
 8000cf6:	428b      	cmp	r3, r1
 8000cf8:	d006      	beq.n	8000d08 <__eqsf2+0x48>
 8000cfa:	2001      	movs	r0, #1
 8000cfc:	2a00      	cmp	r2, #0
 8000cfe:	d1f3      	bne.n	8000ce8 <__eqsf2+0x28>
 8000d00:	0028      	movs	r0, r5
 8000d02:	1e43      	subs	r3, r0, #1
 8000d04:	4198      	sbcs	r0, r3
 8000d06:	e7ef      	b.n	8000ce8 <__eqsf2+0x28>
 8000d08:	2000      	movs	r0, #0
 8000d0a:	e7ed      	b.n	8000ce8 <__eqsf2+0x28>

08000d0c <__gesf2>:
 8000d0c:	b570      	push	{r4, r5, r6, lr}
 8000d0e:	0042      	lsls	r2, r0, #1
 8000d10:	0245      	lsls	r5, r0, #9
 8000d12:	024e      	lsls	r6, r1, #9
 8000d14:	004c      	lsls	r4, r1, #1
 8000d16:	0fc3      	lsrs	r3, r0, #31
 8000d18:	0a6d      	lsrs	r5, r5, #9
 8000d1a:	0e12      	lsrs	r2, r2, #24
 8000d1c:	0a76      	lsrs	r6, r6, #9
 8000d1e:	0e24      	lsrs	r4, r4, #24
 8000d20:	0fc8      	lsrs	r0, r1, #31
 8000d22:	2aff      	cmp	r2, #255	; 0xff
 8000d24:	d01b      	beq.n	8000d5e <__gesf2+0x52>
 8000d26:	2cff      	cmp	r4, #255	; 0xff
 8000d28:	d00e      	beq.n	8000d48 <__gesf2+0x3c>
 8000d2a:	2a00      	cmp	r2, #0
 8000d2c:	d11b      	bne.n	8000d66 <__gesf2+0x5a>
 8000d2e:	2c00      	cmp	r4, #0
 8000d30:	d101      	bne.n	8000d36 <__gesf2+0x2a>
 8000d32:	2e00      	cmp	r6, #0
 8000d34:	d01c      	beq.n	8000d70 <__gesf2+0x64>
 8000d36:	2d00      	cmp	r5, #0
 8000d38:	d00c      	beq.n	8000d54 <__gesf2+0x48>
 8000d3a:	4283      	cmp	r3, r0
 8000d3c:	d01c      	beq.n	8000d78 <__gesf2+0x6c>
 8000d3e:	2102      	movs	r1, #2
 8000d40:	1e58      	subs	r0, r3, #1
 8000d42:	4008      	ands	r0, r1
 8000d44:	3801      	subs	r0, #1
 8000d46:	bd70      	pop	{r4, r5, r6, pc}
 8000d48:	2e00      	cmp	r6, #0
 8000d4a:	d122      	bne.n	8000d92 <__gesf2+0x86>
 8000d4c:	2a00      	cmp	r2, #0
 8000d4e:	d1f4      	bne.n	8000d3a <__gesf2+0x2e>
 8000d50:	2d00      	cmp	r5, #0
 8000d52:	d1f2      	bne.n	8000d3a <__gesf2+0x2e>
 8000d54:	2800      	cmp	r0, #0
 8000d56:	d1f6      	bne.n	8000d46 <__gesf2+0x3a>
 8000d58:	2001      	movs	r0, #1
 8000d5a:	4240      	negs	r0, r0
 8000d5c:	e7f3      	b.n	8000d46 <__gesf2+0x3a>
 8000d5e:	2d00      	cmp	r5, #0
 8000d60:	d117      	bne.n	8000d92 <__gesf2+0x86>
 8000d62:	2cff      	cmp	r4, #255	; 0xff
 8000d64:	d0f0      	beq.n	8000d48 <__gesf2+0x3c>
 8000d66:	2c00      	cmp	r4, #0
 8000d68:	d1e7      	bne.n	8000d3a <__gesf2+0x2e>
 8000d6a:	2e00      	cmp	r6, #0
 8000d6c:	d1e5      	bne.n	8000d3a <__gesf2+0x2e>
 8000d6e:	e7e6      	b.n	8000d3e <__gesf2+0x32>
 8000d70:	2000      	movs	r0, #0
 8000d72:	2d00      	cmp	r5, #0
 8000d74:	d0e7      	beq.n	8000d46 <__gesf2+0x3a>
 8000d76:	e7e2      	b.n	8000d3e <__gesf2+0x32>
 8000d78:	42a2      	cmp	r2, r4
 8000d7a:	dc05      	bgt.n	8000d88 <__gesf2+0x7c>
 8000d7c:	dbea      	blt.n	8000d54 <__gesf2+0x48>
 8000d7e:	42b5      	cmp	r5, r6
 8000d80:	d802      	bhi.n	8000d88 <__gesf2+0x7c>
 8000d82:	d3e7      	bcc.n	8000d54 <__gesf2+0x48>
 8000d84:	2000      	movs	r0, #0
 8000d86:	e7de      	b.n	8000d46 <__gesf2+0x3a>
 8000d88:	4243      	negs	r3, r0
 8000d8a:	4158      	adcs	r0, r3
 8000d8c:	0040      	lsls	r0, r0, #1
 8000d8e:	3801      	subs	r0, #1
 8000d90:	e7d9      	b.n	8000d46 <__gesf2+0x3a>
 8000d92:	2002      	movs	r0, #2
 8000d94:	4240      	negs	r0, r0
 8000d96:	e7d6      	b.n	8000d46 <__gesf2+0x3a>

08000d98 <__lesf2>:
 8000d98:	b570      	push	{r4, r5, r6, lr}
 8000d9a:	0042      	lsls	r2, r0, #1
 8000d9c:	0245      	lsls	r5, r0, #9
 8000d9e:	024e      	lsls	r6, r1, #9
 8000da0:	004c      	lsls	r4, r1, #1
 8000da2:	0fc3      	lsrs	r3, r0, #31
 8000da4:	0a6d      	lsrs	r5, r5, #9
 8000da6:	0e12      	lsrs	r2, r2, #24
 8000da8:	0a76      	lsrs	r6, r6, #9
 8000daa:	0e24      	lsrs	r4, r4, #24
 8000dac:	0fc8      	lsrs	r0, r1, #31
 8000dae:	2aff      	cmp	r2, #255	; 0xff
 8000db0:	d00b      	beq.n	8000dca <__lesf2+0x32>
 8000db2:	2cff      	cmp	r4, #255	; 0xff
 8000db4:	d00d      	beq.n	8000dd2 <__lesf2+0x3a>
 8000db6:	2a00      	cmp	r2, #0
 8000db8:	d11f      	bne.n	8000dfa <__lesf2+0x62>
 8000dba:	2c00      	cmp	r4, #0
 8000dbc:	d116      	bne.n	8000dec <__lesf2+0x54>
 8000dbe:	2e00      	cmp	r6, #0
 8000dc0:	d114      	bne.n	8000dec <__lesf2+0x54>
 8000dc2:	2000      	movs	r0, #0
 8000dc4:	2d00      	cmp	r5, #0
 8000dc6:	d010      	beq.n	8000dea <__lesf2+0x52>
 8000dc8:	e009      	b.n	8000dde <__lesf2+0x46>
 8000dca:	2d00      	cmp	r5, #0
 8000dcc:	d10c      	bne.n	8000de8 <__lesf2+0x50>
 8000dce:	2cff      	cmp	r4, #255	; 0xff
 8000dd0:	d113      	bne.n	8000dfa <__lesf2+0x62>
 8000dd2:	2e00      	cmp	r6, #0
 8000dd4:	d108      	bne.n	8000de8 <__lesf2+0x50>
 8000dd6:	2a00      	cmp	r2, #0
 8000dd8:	d008      	beq.n	8000dec <__lesf2+0x54>
 8000dda:	4283      	cmp	r3, r0
 8000ddc:	d012      	beq.n	8000e04 <__lesf2+0x6c>
 8000dde:	2102      	movs	r1, #2
 8000de0:	1e58      	subs	r0, r3, #1
 8000de2:	4008      	ands	r0, r1
 8000de4:	3801      	subs	r0, #1
 8000de6:	e000      	b.n	8000dea <__lesf2+0x52>
 8000de8:	2002      	movs	r0, #2
 8000dea:	bd70      	pop	{r4, r5, r6, pc}
 8000dec:	2d00      	cmp	r5, #0
 8000dee:	d1f4      	bne.n	8000dda <__lesf2+0x42>
 8000df0:	2800      	cmp	r0, #0
 8000df2:	d1fa      	bne.n	8000dea <__lesf2+0x52>
 8000df4:	2001      	movs	r0, #1
 8000df6:	4240      	negs	r0, r0
 8000df8:	e7f7      	b.n	8000dea <__lesf2+0x52>
 8000dfa:	2c00      	cmp	r4, #0
 8000dfc:	d1ed      	bne.n	8000dda <__lesf2+0x42>
 8000dfe:	2e00      	cmp	r6, #0
 8000e00:	d1eb      	bne.n	8000dda <__lesf2+0x42>
 8000e02:	e7ec      	b.n	8000dde <__lesf2+0x46>
 8000e04:	42a2      	cmp	r2, r4
 8000e06:	dc05      	bgt.n	8000e14 <__lesf2+0x7c>
 8000e08:	dbf2      	blt.n	8000df0 <__lesf2+0x58>
 8000e0a:	42b5      	cmp	r5, r6
 8000e0c:	d802      	bhi.n	8000e14 <__lesf2+0x7c>
 8000e0e:	d3ef      	bcc.n	8000df0 <__lesf2+0x58>
 8000e10:	2000      	movs	r0, #0
 8000e12:	e7ea      	b.n	8000dea <__lesf2+0x52>
 8000e14:	4243      	negs	r3, r0
 8000e16:	4158      	adcs	r0, r3
 8000e18:	0040      	lsls	r0, r0, #1
 8000e1a:	3801      	subs	r0, #1
 8000e1c:	e7e5      	b.n	8000dea <__lesf2+0x52>
 8000e1e:	46c0      	nop			; (mov r8, r8)

08000e20 <MX_GPIO_Init>:
        * Output
        * EVENT_OUT
        * EXTI
*/
void MX_GPIO_Init(void)
{
 8000e20:	b590      	push	{r4, r7, lr}
 8000e22:	b08b      	sub	sp, #44	; 0x2c
 8000e24:	af00      	add	r7, sp, #0

  GPIO_InitTypeDef GPIO_InitStruct = {0};
 8000e26:	2414      	movs	r4, #20
 8000e28:	193b      	adds	r3, r7, r4
 8000e2a:	0018      	movs	r0, r3
 8000e2c:	2314      	movs	r3, #20
 8000e2e:	001a      	movs	r2, r3
 8000e30:	2100      	movs	r1, #0
 8000e32:	f003 fad5 	bl	80043e0 <memset>

  /* GPIO Ports Clock Enable */
  __HAL_RCC_GPIOC_CLK_ENABLE();
 8000e36:	4b41      	ldr	r3, [pc, #260]	; (8000f3c <MX_GPIO_Init+0x11c>)
 8000e38:	695a      	ldr	r2, [r3, #20]
 8000e3a:	4b40      	ldr	r3, [pc, #256]	; (8000f3c <MX_GPIO_Init+0x11c>)
 8000e3c:	2180      	movs	r1, #128	; 0x80
 8000e3e:	0309      	lsls	r1, r1, #12
 8000e40:	430a      	orrs	r2, r1
 8000e42:	615a      	str	r2, [r3, #20]
 8000e44:	4b3d      	ldr	r3, [pc, #244]	; (8000f3c <MX_GPIO_Init+0x11c>)
 8000e46:	695a      	ldr	r2, [r3, #20]
 8000e48:	2380      	movs	r3, #128	; 0x80
 8000e4a:	031b      	lsls	r3, r3, #12
 8000e4c:	4013      	ands	r3, r2
 8000e4e:	613b      	str	r3, [r7, #16]
 8000e50:	693b      	ldr	r3, [r7, #16]
  __HAL_RCC_GPIOF_CLK_ENABLE();
 8000e52:	4b3a      	ldr	r3, [pc, #232]	; (8000f3c <MX_GPIO_Init+0x11c>)
 8000e54:	695a      	ldr	r2, [r3, #20]
 8000e56:	4b39      	ldr	r3, [pc, #228]	; (8000f3c <MX_GPIO_Init+0x11c>)
 8000e58:	2180      	movs	r1, #128	; 0x80
 8000e5a:	03c9      	lsls	r1, r1, #15
 8000e5c:	430a      	orrs	r2, r1
 8000e5e:	615a      	str	r2, [r3, #20]
 8000e60:	4b36      	ldr	r3, [pc, #216]	; (8000f3c <MX_GPIO_Init+0x11c>)
 8000e62:	695a      	ldr	r2, [r3, #20]
 8000e64:	2380      	movs	r3, #128	; 0x80
 8000e66:	03db      	lsls	r3, r3, #15
 8000e68:	4013      	ands	r3, r2
 8000e6a:	60fb      	str	r3, [r7, #12]
 8000e6c:	68fb      	ldr	r3, [r7, #12]
  __HAL_RCC_GPIOA_CLK_ENABLE();
 8000e6e:	4b33      	ldr	r3, [pc, #204]	; (8000f3c <MX_GPIO_Init+0x11c>)
 8000e70:	695a      	ldr	r2, [r3, #20]
 8000e72:	4b32      	ldr	r3, [pc, #200]	; (8000f3c <MX_GPIO_Init+0x11c>)
 8000e74:	2180      	movs	r1, #128	; 0x80
 8000e76:	0289      	lsls	r1, r1, #10
 8000e78:	430a      	orrs	r2, r1
 8000e7a:	615a      	str	r2, [r3, #20]
 8000e7c:	4b2f      	ldr	r3, [pc, #188]	; (8000f3c <MX_GPIO_Init+0x11c>)
 8000e7e:	695a      	ldr	r2, [r3, #20]
 8000e80:	2380      	movs	r3, #128	; 0x80
 8000e82:	029b      	lsls	r3, r3, #10
 8000e84:	4013      	ands	r3, r2
 8000e86:	60bb      	str	r3, [r7, #8]
 8000e88:	68bb      	ldr	r3, [r7, #8]
  __HAL_RCC_GPIOB_CLK_ENABLE();
 8000e8a:	4b2c      	ldr	r3, [pc, #176]	; (8000f3c <MX_GPIO_Init+0x11c>)
 8000e8c:	695a      	ldr	r2, [r3, #20]
 8000e8e:	4b2b      	ldr	r3, [pc, #172]	; (8000f3c <MX_GPIO_Init+0x11c>)
 8000e90:	2180      	movs	r1, #128	; 0x80
 8000e92:	02c9      	lsls	r1, r1, #11
 8000e94:	430a      	orrs	r2, r1
 8000e96:	615a      	str	r2, [r3, #20]
 8000e98:	4b28      	ldr	r3, [pc, #160]	; (8000f3c <MX_GPIO_Init+0x11c>)
 8000e9a:	695a      	ldr	r2, [r3, #20]
 8000e9c:	2380      	movs	r3, #128	; 0x80
 8000e9e:	02db      	lsls	r3, r3, #11
 8000ea0:	4013      	ands	r3, r2
 8000ea2:	607b      	str	r3, [r7, #4]
 8000ea4:	687b      	ldr	r3, [r7, #4]

  /*Configure GPIO pin Output Level */
  HAL_GPIO_WritePin(LD2_GPIO_Port, LD2_Pin, GPIO_PIN_RESET);
 8000ea6:	2390      	movs	r3, #144	; 0x90
 8000ea8:	05db      	lsls	r3, r3, #23
 8000eaa:	2200      	movs	r2, #0
 8000eac:	2120      	movs	r1, #32
 8000eae:	0018      	movs	r0, r3
 8000eb0:	f000 fea6 	bl	8001c00 <HAL_GPIO_WritePin>

  /*Configure GPIO pin Output Level */
  HAL_GPIO_WritePin(GPIOB, GPIO_PIN_8, GPIO_PIN_RESET);
 8000eb4:	2380      	movs	r3, #128	; 0x80
 8000eb6:	005b      	lsls	r3, r3, #1
 8000eb8:	4821      	ldr	r0, [pc, #132]	; (8000f40 <MX_GPIO_Init+0x120>)
 8000eba:	2200      	movs	r2, #0
 8000ebc:	0019      	movs	r1, r3
 8000ebe:	f000 fe9f 	bl	8001c00 <HAL_GPIO_WritePin>

  /*Configure GPIO pin : PtPin */
  GPIO_InitStruct.Pin = B1_Pin;
 8000ec2:	193b      	adds	r3, r7, r4
 8000ec4:	2280      	movs	r2, #128	; 0x80
 8000ec6:	0192      	lsls	r2, r2, #6
 8000ec8:	601a      	str	r2, [r3, #0]
  GPIO_InitStruct.Mode = GPIO_MODE_IT_FALLING;
 8000eca:	193b      	adds	r3, r7, r4
 8000ecc:	2284      	movs	r2, #132	; 0x84
 8000ece:	0392      	lsls	r2, r2, #14
 8000ed0:	605a      	str	r2, [r3, #4]
  GPIO_InitStruct.Pull = GPIO_NOPULL;
 8000ed2:	193b      	adds	r3, r7, r4
 8000ed4:	2200      	movs	r2, #0
 8000ed6:	609a      	str	r2, [r3, #8]
  HAL_GPIO_Init(B1_GPIO_Port, &GPIO_InitStruct);
 8000ed8:	193b      	adds	r3, r7, r4
 8000eda:	4a1a      	ldr	r2, [pc, #104]	; (8000f44 <MX_GPIO_Init+0x124>)
 8000edc:	0019      	movs	r1, r3
 8000ede:	0010      	movs	r0, r2
 8000ee0:	f000 fd16 	bl	8001910 <HAL_GPIO_Init>

  /*Configure GPIO pin : PtPin */
  GPIO_InitStruct.Pin = LD2_Pin;
 8000ee4:	193b      	adds	r3, r7, r4
 8000ee6:	2220      	movs	r2, #32
 8000ee8:	601a      	str	r2, [r3, #0]
  GPIO_InitStruct.Mode = GPIO_MODE_OUTPUT_PP;
 8000eea:	193b      	adds	r3, r7, r4
 8000eec:	2201      	movs	r2, #1
 8000eee:	605a      	str	r2, [r3, #4]
  GPIO_InitStruct.Pull = GPIO_NOPULL;
 8000ef0:	193b      	adds	r3, r7, r4
 8000ef2:	2200      	movs	r2, #0
 8000ef4:	609a      	str	r2, [r3, #8]
  GPIO_InitStruct.Speed = GPIO_SPEED_FREQ_LOW;
 8000ef6:	193b      	adds	r3, r7, r4
 8000ef8:	2200      	movs	r2, #0
 8000efa:	60da      	str	r2, [r3, #12]
  HAL_GPIO_Init(LD2_GPIO_Port, &GPIO_InitStruct);
 8000efc:	193a      	adds	r2, r7, r4
 8000efe:	2390      	movs	r3, #144	; 0x90
 8000f00:	05db      	lsls	r3, r3, #23
 8000f02:	0011      	movs	r1, r2
 8000f04:	0018      	movs	r0, r3
 8000f06:	f000 fd03 	bl	8001910 <HAL_GPIO_Init>

  /*Configure GPIO pin : PB8 */
  GPIO_InitStruct.Pin = GPIO_PIN_8;
 8000f0a:	0021      	movs	r1, r4
 8000f0c:	187b      	adds	r3, r7, r1
 8000f0e:	2280      	movs	r2, #128	; 0x80
 8000f10:	0052      	lsls	r2, r2, #1
 8000f12:	601a      	str	r2, [r3, #0]
  GPIO_InitStruct.Mode = GPIO_MODE_OUTPUT_PP;
 8000f14:	187b      	adds	r3, r7, r1
 8000f16:	2201      	movs	r2, #1
 8000f18:	605a      	str	r2, [r3, #4]
  GPIO_InitStruct.Pull = GPIO_NOPULL;
 8000f1a:	187b      	adds	r3, r7, r1
 8000f1c:	2200      	movs	r2, #0
 8000f1e:	609a      	str	r2, [r3, #8]
  GPIO_InitStruct.Speed = GPIO_SPEED_FREQ_LOW;
 8000f20:	187b      	adds	r3, r7, r1
 8000f22:	2200      	movs	r2, #0
 8000f24:	60da      	str	r2, [r3, #12]
  HAL_GPIO_Init(GPIOB, &GPIO_InitStruct);
 8000f26:	187b      	adds	r3, r7, r1
 8000f28:	4a05      	ldr	r2, [pc, #20]	; (8000f40 <MX_GPIO_Init+0x120>)
 8000f2a:	0019      	movs	r1, r3
 8000f2c:	0010      	movs	r0, r2
 8000f2e:	f000 fcef 	bl	8001910 <HAL_GPIO_Init>

}
 8000f32:	46c0      	nop			; (mov r8, r8)
 8000f34:	46bd      	mov	sp, r7
 8000f36:	b00b      	add	sp, #44	; 0x2c
 8000f38:	bd90      	pop	{r4, r7, pc}
 8000f3a:	46c0      	nop			; (mov r8, r8)
 8000f3c:	40021000 	.word	0x40021000
 8000f40:	48000400 	.word	0x48000400
 8000f44:	48000800 	.word	0x48000800

08000f48 <main>:
/**
  * @brief  The application entry point.
  * @retval int
  */
int main(void)
{
 8000f48:	b5b0      	push	{r4, r5, r7, lr}
 8000f4a:	b088      	sub	sp, #32
 8000f4c:	af02      	add	r7, sp, #8
    /* USER CODE BEGIN 1 */
    //Transmit Bytes
    //First byte: 00000001 -> 1
    //Second byte: 1000000 -> 128 -> 0x80
    //Third byte: doesn't matter -> 0
    const uint8_t TX_DATA[3] = {0x1, 0x80, 0x0};
 8000f4e:	1d3b      	adds	r3, r7, #4
 8000f50:	4a4a      	ldr	r2, [pc, #296]	; (800107c <main+0x134>)
 8000f52:	8811      	ldrh	r1, [r2, #0]
 8000f54:	8019      	strh	r1, [r3, #0]
 8000f56:	7892      	ldrb	r2, [r2, #2]
 8000f58:	709a      	strb	r2, [r3, #2]
    //Receive Bytes
    uint8_t rx_data[3] = {0x0};
 8000f5a:	003b      	movs	r3, r7
 8000f5c:	4a48      	ldr	r2, [pc, #288]	; (8001080 <main+0x138>)
 8000f5e:	8812      	ldrh	r2, [r2, #0]
 8000f60:	801a      	strh	r2, [r3, #0]
 8000f62:	2202      	movs	r2, #2
 8000f64:	2100      	movs	r1, #0
 8000f66:	5499      	strb	r1, [r3, r2]
    const uint8_t MASK = 0x3;
 8000f68:	2317      	movs	r3, #23
 8000f6a:	18fb      	adds	r3, r7, r3
 8000f6c:	2203      	movs	r2, #3
 8000f6e:	701a      	strb	r2, [r3, #0]
    uint16_t second_byte = 0x0;
 8000f70:	2314      	movs	r3, #20
 8000f72:	18fb      	adds	r3, r7, r3
 8000f74:	2200      	movs	r2, #0
 8000f76:	801a      	strh	r2, [r3, #0]
    uint16_t third_byte = 0x0;
 8000f78:	2312      	movs	r3, #18
 8000f7a:	18fb      	adds	r3, r7, r3
 8000f7c:	2200      	movs	r2, #0
 8000f7e:	801a      	strh	r2, [r3, #0]
    uint16_t counts = 0;
 8000f80:	2310      	movs	r3, #16
 8000f82:	18fb      	adds	r3, r7, r3
 8000f84:	2200      	movs	r2, #0
 8000f86:	801a      	strh	r2, [r3, #0]
    //5% of the period (64000) is 3200
    const uint16_t FIVE_PERCENT_DUTY_CYCLE = 3200;
 8000f88:	230e      	movs	r3, #14
 8000f8a:	18fb      	adds	r3, r7, r3
 8000f8c:	22c8      	movs	r2, #200	; 0xc8
 8000f8e:	0112      	lsls	r2, r2, #4
 8000f90:	801a      	strh	r2, [r3, #0]
    const float SCALING_FACTOR = 3.128f;
 8000f92:	4b3c      	ldr	r3, [pc, #240]	; (8001084 <main+0x13c>)
 8000f94:	60bb      	str	r3, [r7, #8]
    /* USER CODE END 1 */

    /* MCU Configuration--------------------------------------------------------*/

    /* Reset of all peripherals, Initializes the Flash interface and the Systick. */
    HAL_Init();
 8000f96:	f000 fb7f 	bl	8001698 <HAL_Init>
    /* USER CODE BEGIN Init */

    /* USER CODE END Init */

    /* Configure the system clock */
    SystemClock_Config();
 8000f9a:	f000 f87b 	bl	8001094 <SystemClock_Config>
    /* USER CODE BEGIN SysInit */

    /* USER CODE END SysInit */

    /* Initialize all configured peripherals */
    MX_GPIO_Init();
 8000f9e:	f7ff ff3f 	bl	8000e20 <MX_GPIO_Init>
    MX_USART2_UART_Init();
 8000fa2:	f000 fad3 	bl	800154c <MX_USART2_UART_Init>
    MX_SPI1_Init();
 8000fa6:	f000 f8cd 	bl	8001144 <MX_SPI1_Init>
    MX_TIM1_Init();
 8000faa:	f000 f9bb 	bl	8001324 <MX_TIM1_Init>
    /* USER CODE BEGIN 2 */
    //Status
    HAL_StatusTypeDef hal_status;
    //Pull CS High
    HAL_GPIO_WritePin(GPIOB, GPIO_PIN_8, GPIO_PIN_SET);
 8000fae:	2380      	movs	r3, #128	; 0x80
 8000fb0:	005b      	lsls	r3, r3, #1
 8000fb2:	4835      	ldr	r0, [pc, #212]	; (8001088 <main+0x140>)
 8000fb4:	2201      	movs	r2, #1
 8000fb6:	0019      	movs	r1, r3
 8000fb8:	f000 fe22 	bl	8001c00 <HAL_GPIO_WritePin>
    /* USER CODE BEGIN WHILE */
    while (1)
    {
        /* USER CODE END WHILE */
	    //Pull CS Low
	    HAL_GPIO_WritePin(GPIOB, GPIO_PIN_8, GPIO_PIN_RESET);
 8000fbc:	2380      	movs	r3, #128	; 0x80
 8000fbe:	005b      	lsls	r3, r3, #1
 8000fc0:	4831      	ldr	r0, [pc, #196]	; (8001088 <main+0x140>)
 8000fc2:	2200      	movs	r2, #0
 8000fc4:	0019      	movs	r1, r3
 8000fc6:	f000 fe1b 	bl	8001c00 <HAL_GPIO_WritePin>

	    //Initiate Communication with MCP 3004
	    hal_status = HAL_SPI_TransmitReceive(&hspi1, TX_DATA, rx_data, 3, 100);
 8000fca:	1dfc      	adds	r4, r7, #7
 8000fcc:	003a      	movs	r2, r7
 8000fce:	1d39      	adds	r1, r7, #4
 8000fd0:	482e      	ldr	r0, [pc, #184]	; (800108c <main+0x144>)
 8000fd2:	2364      	movs	r3, #100	; 0x64
 8000fd4:	9300      	str	r3, [sp, #0]
 8000fd6:	2303      	movs	r3, #3
 8000fd8:	f001 fce6 	bl	80029a8 <HAL_SPI_TransmitReceive>
 8000fdc:	0003      	movs	r3, r0
 8000fde:	7023      	strb	r3, [r4, #0]

	    if(hal_status == HAL_OK)
 8000fe0:	1dfb      	adds	r3, r7, #7
 8000fe2:	781b      	ldrb	r3, [r3, #0]
 8000fe4:	2b00      	cmp	r3, #0
 8000fe6:	d13d      	bne.n	8001064 <main+0x11c>
		    //First byte of received data doesn't matter
		    //First 5 bits (6th one is null) of second byte don't matter
		    //All of third byte matters

		    //Apply a mask (00000011) to just get last 2 bits of second byte
		    second_byte = MASK & rx_data[1];
 8000fe8:	003b      	movs	r3, r7
 8000fea:	785b      	ldrb	r3, [r3, #1]
 8000fec:	2217      	movs	r2, #23
 8000fee:	18ba      	adds	r2, r7, r2
 8000ff0:	7812      	ldrb	r2, [r2, #0]
 8000ff2:	4013      	ands	r3, r2
 8000ff4:	b2da      	uxtb	r2, r3
 8000ff6:	2114      	movs	r1, #20
 8000ff8:	187b      	adds	r3, r7, r1
 8000ffa:	801a      	strh	r2, [r3, #0]
            third_byte = rx_data[2];
 8000ffc:	003b      	movs	r3, r7
 8000ffe:	789a      	ldrb	r2, [r3, #2]
 8001000:	2012      	movs	r0, #18
 8001002:	183b      	adds	r3, r7, r0
 8001004:	801a      	strh	r2, [r3, #0]

		    counts = (second_byte << 8) | third_byte;
 8001006:	187b      	adds	r3, r7, r1
 8001008:	881b      	ldrh	r3, [r3, #0]
 800100a:	021b      	lsls	r3, r3, #8
 800100c:	b21a      	sxth	r2, r3
 800100e:	183b      	adds	r3, r7, r0
 8001010:	2100      	movs	r1, #0
 8001012:	5e5b      	ldrsh	r3, [r3, r1]
 8001014:	4313      	orrs	r3, r2
 8001016:	b21a      	sxth	r2, r3
 8001018:	2510      	movs	r5, #16
 800101a:	197b      	adds	r3, r7, r5
 800101c:	801a      	strh	r2, [r3, #0]
		    which should keep the duty cycle between 5% and 10%
		    since I set the period to 64000.
		    Since the number will be truncated the max value for
		    counts will be 6399 and not 6400
		    */
		    counts = (counts * SCALING_FACTOR) + FIVE_PERCENT_DUTY_CYCLE;
 800101e:	197b      	adds	r3, r7, r5
 8001020:	881b      	ldrh	r3, [r3, #0]
 8001022:	0018      	movs	r0, r3
 8001024:	f7ff fda6 	bl	8000b74 <__aeabi_i2f>
 8001028:	1c03      	adds	r3, r0, #0
 800102a:	68b9      	ldr	r1, [r7, #8]
 800102c:	1c18      	adds	r0, r3, #0
 800102e:	f7ff faad 	bl	800058c <__aeabi_fmul>
 8001032:	1c03      	adds	r3, r0, #0
 8001034:	1c1c      	adds	r4, r3, #0
 8001036:	230e      	movs	r3, #14
 8001038:	18fb      	adds	r3, r7, r3
 800103a:	881b      	ldrh	r3, [r3, #0]
 800103c:	0018      	movs	r0, r3
 800103e:	f7ff fd99 	bl	8000b74 <__aeabi_i2f>
 8001042:	1c03      	adds	r3, r0, #0
 8001044:	1c19      	adds	r1, r3, #0
 8001046:	1c20      	adds	r0, r4, #0
 8001048:	f7ff f902 	bl	8000250 <__aeabi_fadd>
 800104c:	1c03      	adds	r3, r0, #0
 800104e:	197c      	adds	r4, r7, r5
 8001050:	1c18      	adds	r0, r3, #0
 8001052:	f7ff f8e5 	bl	8000220 <__aeabi_f2uiz>
 8001056:	0003      	movs	r3, r0
 8001058:	8023      	strh	r3, [r4, #0]

		    //Set Compare Register
		    __HAL_TIM_SET_COMPARE(&htim1, TIM_CHANNEL_1, counts);
 800105a:	4b0d      	ldr	r3, [pc, #52]	; (8001090 <main+0x148>)
 800105c:	681b      	ldr	r3, [r3, #0]
 800105e:	197a      	adds	r2, r7, r5
 8001060:	8812      	ldrh	r2, [r2, #0]
 8001062:	635a      	str	r2, [r3, #52]	; 0x34

	    }
	    //Pull CS High
	    HAL_GPIO_WritePin(GPIOB, GPIO_PIN_8, GPIO_PIN_SET);
 8001064:	2380      	movs	r3, #128	; 0x80
 8001066:	005b      	lsls	r3, r3, #1
 8001068:	4807      	ldr	r0, [pc, #28]	; (8001088 <main+0x140>)
 800106a:	2201      	movs	r2, #1
 800106c:	0019      	movs	r1, r3
 800106e:	f000 fdc7 	bl	8001c00 <HAL_GPIO_WritePin>
        HAL_Delay(10);
 8001072:	200a      	movs	r0, #10
 8001074:	f000 fb74 	bl	8001760 <HAL_Delay>
	    HAL_GPIO_WritePin(GPIOB, GPIO_PIN_8, GPIO_PIN_RESET);
 8001078:	e7a0      	b.n	8000fbc <main+0x74>
 800107a:	46c0      	nop			; (mov r8, r8)
 800107c:	08004408 	.word	0x08004408
 8001080:	0800440c 	.word	0x0800440c
 8001084:	40483127 	.word	0x40483127
 8001088:	48000400 	.word	0x48000400
 800108c:	20000028 	.word	0x20000028
 8001090:	2000008c 	.word	0x2000008c

08001094 <SystemClock_Config>:
/**
  * @brief System Clock Configuration
  * @retval None
  */
void SystemClock_Config(void)
{
 8001094:	b590      	push	{r4, r7, lr}
 8001096:	b099      	sub	sp, #100	; 0x64
 8001098:	af00      	add	r7, sp, #0
  RCC_OscInitTypeDef RCC_OscInitStruct = {0};
 800109a:	242c      	movs	r4, #44	; 0x2c
 800109c:	193b      	adds	r3, r7, r4
 800109e:	0018      	movs	r0, r3
 80010a0:	2334      	movs	r3, #52	; 0x34
 80010a2:	001a      	movs	r2, r3
 80010a4:	2100      	movs	r1, #0
 80010a6:	f003 f99b 	bl	80043e0 <memset>
  RCC_ClkInitTypeDef RCC_ClkInitStruct = {0};
 80010aa:	231c      	movs	r3, #28
 80010ac:	18fb      	adds	r3, r7, r3
 80010ae:	0018      	movs	r0, r3
 80010b0:	2310      	movs	r3, #16
 80010b2:	001a      	movs	r2, r3
 80010b4:	2100      	movs	r1, #0
 80010b6:	f003 f993 	bl	80043e0 <memset>
  RCC_PeriphCLKInitTypeDef PeriphClkInit = {0};
 80010ba:	003b      	movs	r3, r7
 80010bc:	0018      	movs	r0, r3
 80010be:	231c      	movs	r3, #28
 80010c0:	001a      	movs	r2, r3
 80010c2:	2100      	movs	r1, #0
 80010c4:	f003 f98c 	bl	80043e0 <memset>

  /** Initializes the RCC Oscillators according to the specified parameters
  * in the RCC_OscInitTypeDef structure.
  */
  RCC_OscInitStruct.OscillatorType = RCC_OSCILLATORTYPE_HSI48;
 80010c8:	193b      	adds	r3, r7, r4
 80010ca:	2220      	movs	r2, #32
 80010cc:	601a      	str	r2, [r3, #0]
  RCC_OscInitStruct.HSI48State = RCC_HSI48_ON;
 80010ce:	193b      	adds	r3, r7, r4
 80010d0:	2201      	movs	r2, #1
 80010d2:	621a      	str	r2, [r3, #32]
  RCC_OscInitStruct.PLL.PLLState = RCC_PLL_NONE;
 80010d4:	193b      	adds	r3, r7, r4
 80010d6:	2200      	movs	r2, #0
 80010d8:	625a      	str	r2, [r3, #36]	; 0x24
  if (HAL_RCC_OscConfig(&RCC_OscInitStruct) != HAL_OK)
 80010da:	193b      	adds	r3, r7, r4
 80010dc:	0018      	movs	r0, r3
 80010de:	f000 fdad 	bl	8001c3c <HAL_RCC_OscConfig>
 80010e2:	1e03      	subs	r3, r0, #0
 80010e4:	d001      	beq.n	80010ea <SystemClock_Config+0x56>
  {
    Error_Handler();
 80010e6:	f000 f828 	bl	800113a <Error_Handler>
  }
  /** Initializes the CPU, AHB and APB buses clocks
  */
  RCC_ClkInitStruct.ClockType = RCC_CLOCKTYPE_HCLK|RCC_CLOCKTYPE_SYSCLK
 80010ea:	211c      	movs	r1, #28
 80010ec:	187b      	adds	r3, r7, r1
 80010ee:	2207      	movs	r2, #7
 80010f0:	601a      	str	r2, [r3, #0]
                              |RCC_CLOCKTYPE_PCLK1;
  RCC_ClkInitStruct.SYSCLKSource = RCC_SYSCLKSOURCE_HSI48;
 80010f2:	187b      	adds	r3, r7, r1
 80010f4:	2203      	movs	r2, #3
 80010f6:	605a      	str	r2, [r3, #4]
  RCC_ClkInitStruct.AHBCLKDivider = RCC_SYSCLK_DIV1;
 80010f8:	187b      	adds	r3, r7, r1
 80010fa:	2200      	movs	r2, #0
 80010fc:	609a      	str	r2, [r3, #8]
  RCC_ClkInitStruct.APB1CLKDivider = RCC_HCLK_DIV1;
 80010fe:	187b      	adds	r3, r7, r1
 8001100:	2200      	movs	r2, #0
 8001102:	60da      	str	r2, [r3, #12]

  if (HAL_RCC_ClockConfig(&RCC_ClkInitStruct, FLASH_LATENCY_1) != HAL_OK)
 8001104:	187b      	adds	r3, r7, r1
 8001106:	2101      	movs	r1, #1
 8001108:	0018      	movs	r0, r3
 800110a:	f001 f91d 	bl	8002348 <HAL_RCC_ClockConfig>
 800110e:	1e03      	subs	r3, r0, #0
 8001110:	d001      	beq.n	8001116 <SystemClock_Config+0x82>
  {
    Error_Handler();
 8001112:	f000 f812 	bl	800113a <Error_Handler>
  }
  PeriphClkInit.PeriphClockSelection = RCC_PERIPHCLK_USART2;
 8001116:	003b      	movs	r3, r7
 8001118:	2202      	movs	r2, #2
 800111a:	601a      	str	r2, [r3, #0]
  PeriphClkInit.Usart2ClockSelection = RCC_USART2CLKSOURCE_PCLK1;
 800111c:	003b      	movs	r3, r7
 800111e:	2200      	movs	r2, #0
 8001120:	60da      	str	r2, [r3, #12]
  if (HAL_RCCEx_PeriphCLKConfig(&PeriphClkInit) != HAL_OK)
 8001122:	003b      	movs	r3, r7
 8001124:	0018      	movs	r0, r3
 8001126:	f001 fa89 	bl	800263c <HAL_RCCEx_PeriphCLKConfig>
 800112a:	1e03      	subs	r3, r0, #0
 800112c:	d001      	beq.n	8001132 <SystemClock_Config+0x9e>
  {
    Error_Handler();
 800112e:	f000 f804 	bl	800113a <Error_Handler>
  }
}
 8001132:	46c0      	nop			; (mov r8, r8)
 8001134:	46bd      	mov	sp, r7
 8001136:	b019      	add	sp, #100	; 0x64
 8001138:	bd90      	pop	{r4, r7, pc}

0800113a <Error_Handler>:
/**
  * @brief  This function is executed in case of error occurrence.
  * @retval None
  */
void Error_Handler(void)
{
 800113a:	b580      	push	{r7, lr}
 800113c:	af00      	add	r7, sp, #0
  \details Disables IRQ interrupts by setting the I-bit in the CPSR.
           Can only be executed in Privileged modes.
 */
__STATIC_FORCEINLINE void __disable_irq(void)
{
  __ASM volatile ("cpsid i" : : : "memory");
 800113e:	b672      	cpsid	i
}
 8001140:	46c0      	nop			; (mov r8, r8)
  /* USER CODE BEGIN Error_Handler_Debug */
  /* User can add his own implementation to report the HAL error return state */
  __disable_irq();
  while (1)
 8001142:	e7fe      	b.n	8001142 <Error_Handler+0x8>

08001144 <MX_SPI1_Init>:

SPI_HandleTypeDef hspi1;

/* SPI1 init function */
void MX_SPI1_Init(void)
{
 8001144:	b580      	push	{r7, lr}
 8001146:	af00      	add	r7, sp, #0
  /* USER CODE END SPI1_Init 0 */

  /* USER CODE BEGIN SPI1_Init 1 */

  /* USER CODE END SPI1_Init 1 */
  hspi1.Instance = SPI1;
 8001148:	4b1b      	ldr	r3, [pc, #108]	; (80011b8 <MX_SPI1_Init+0x74>)
 800114a:	4a1c      	ldr	r2, [pc, #112]	; (80011bc <MX_SPI1_Init+0x78>)
 800114c:	601a      	str	r2, [r3, #0]
  hspi1.Init.Mode = SPI_MODE_MASTER;
 800114e:	4b1a      	ldr	r3, [pc, #104]	; (80011b8 <MX_SPI1_Init+0x74>)
 8001150:	2282      	movs	r2, #130	; 0x82
 8001152:	0052      	lsls	r2, r2, #1
 8001154:	605a      	str	r2, [r3, #4]
  hspi1.Init.Direction = SPI_DIRECTION_2LINES;
 8001156:	4b18      	ldr	r3, [pc, #96]	; (80011b8 <MX_SPI1_Init+0x74>)
 8001158:	2200      	movs	r2, #0
 800115a:	609a      	str	r2, [r3, #8]
  hspi1.Init.DataSize = SPI_DATASIZE_8BIT;
 800115c:	4b16      	ldr	r3, [pc, #88]	; (80011b8 <MX_SPI1_Init+0x74>)
 800115e:	22e0      	movs	r2, #224	; 0xe0
 8001160:	00d2      	lsls	r2, r2, #3
 8001162:	60da      	str	r2, [r3, #12]
  hspi1.Init.CLKPolarity = SPI_POLARITY_LOW;
 8001164:	4b14      	ldr	r3, [pc, #80]	; (80011b8 <MX_SPI1_Init+0x74>)
 8001166:	2200      	movs	r2, #0
 8001168:	611a      	str	r2, [r3, #16]
  hspi1.Init.CLKPhase = SPI_PHASE_1EDGE;
 800116a:	4b13      	ldr	r3, [pc, #76]	; (80011b8 <MX_SPI1_Init+0x74>)
 800116c:	2200      	movs	r2, #0
 800116e:	615a      	str	r2, [r3, #20]
  hspi1.Init.NSS = SPI_NSS_SOFT;
 8001170:	4b11      	ldr	r3, [pc, #68]	; (80011b8 <MX_SPI1_Init+0x74>)
 8001172:	2280      	movs	r2, #128	; 0x80
 8001174:	0092      	lsls	r2, r2, #2
 8001176:	619a      	str	r2, [r3, #24]
  hspi1.Init.BaudRatePrescaler = SPI_BAUDRATEPRESCALER_16;
 8001178:	4b0f      	ldr	r3, [pc, #60]	; (80011b8 <MX_SPI1_Init+0x74>)
 800117a:	2218      	movs	r2, #24
 800117c:	61da      	str	r2, [r3, #28]
  hspi1.Init.FirstBit = SPI_FIRSTBIT_MSB;
 800117e:	4b0e      	ldr	r3, [pc, #56]	; (80011b8 <MX_SPI1_Init+0x74>)
 8001180:	2200      	movs	r2, #0
 8001182:	621a      	str	r2, [r3, #32]
  hspi1.Init.TIMode = SPI_TIMODE_DISABLE;
 8001184:	4b0c      	ldr	r3, [pc, #48]	; (80011b8 <MX_SPI1_Init+0x74>)
 8001186:	2200      	movs	r2, #0
 8001188:	625a      	str	r2, [r3, #36]	; 0x24
  hspi1.Init.CRCCalculation = SPI_CRCCALCULATION_DISABLE;
 800118a:	4b0b      	ldr	r3, [pc, #44]	; (80011b8 <MX_SPI1_Init+0x74>)
 800118c:	2200      	movs	r2, #0
 800118e:	629a      	str	r2, [r3, #40]	; 0x28
  hspi1.Init.CRCPolynomial = 7;
 8001190:	4b09      	ldr	r3, [pc, #36]	; (80011b8 <MX_SPI1_Init+0x74>)
 8001192:	2207      	movs	r2, #7
 8001194:	62da      	str	r2, [r3, #44]	; 0x2c
  hspi1.Init.CRCLength = SPI_CRC_LENGTH_DATASIZE;
 8001196:	4b08      	ldr	r3, [pc, #32]	; (80011b8 <MX_SPI1_Init+0x74>)
 8001198:	2200      	movs	r2, #0
 800119a:	631a      	str	r2, [r3, #48]	; 0x30
  hspi1.Init.NSSPMode = SPI_NSS_PULSE_ENABLE;
 800119c:	4b06      	ldr	r3, [pc, #24]	; (80011b8 <MX_SPI1_Init+0x74>)
 800119e:	2208      	movs	r2, #8
 80011a0:	635a      	str	r2, [r3, #52]	; 0x34
  if (HAL_SPI_Init(&hspi1) != HAL_OK)
 80011a2:	4b05      	ldr	r3, [pc, #20]	; (80011b8 <MX_SPI1_Init+0x74>)
 80011a4:	0018      	movs	r0, r3
 80011a6:	f001 fb47 	bl	8002838 <HAL_SPI_Init>
 80011aa:	1e03      	subs	r3, r0, #0
 80011ac:	d001      	beq.n	80011b2 <MX_SPI1_Init+0x6e>
  {
    Error_Handler();
 80011ae:	f7ff ffc4 	bl	800113a <Error_Handler>
  }
  /* USER CODE BEGIN SPI1_Init 2 */

  /* USER CODE END SPI1_Init 2 */

}
 80011b2:	46c0      	nop			; (mov r8, r8)
 80011b4:	46bd      	mov	sp, r7
 80011b6:	bd80      	pop	{r7, pc}
 80011b8:	20000028 	.word	0x20000028
 80011bc:	40013000 	.word	0x40013000

080011c0 <HAL_SPI_MspInit>:

void HAL_SPI_MspInit(SPI_HandleTypeDef* spiHandle)
{
 80011c0:	b590      	push	{r4, r7, lr}
 80011c2:	b08b      	sub	sp, #44	; 0x2c
 80011c4:	af00      	add	r7, sp, #0
 80011c6:	6078      	str	r0, [r7, #4]

  GPIO_InitTypeDef GPIO_InitStruct = {0};
 80011c8:	2414      	movs	r4, #20
 80011ca:	193b      	adds	r3, r7, r4
 80011cc:	0018      	movs	r0, r3
 80011ce:	2314      	movs	r3, #20
 80011d0:	001a      	movs	r2, r3
 80011d2:	2100      	movs	r1, #0
 80011d4:	f003 f904 	bl	80043e0 <memset>
  if(spiHandle->Instance==SPI1)
 80011d8:	687b      	ldr	r3, [r7, #4]
 80011da:	681b      	ldr	r3, [r3, #0]
 80011dc:	4a2e      	ldr	r2, [pc, #184]	; (8001298 <HAL_SPI_MspInit+0xd8>)
 80011de:	4293      	cmp	r3, r2
 80011e0:	d155      	bne.n	800128e <HAL_SPI_MspInit+0xce>
  {
  /* USER CODE BEGIN SPI1_MspInit 0 */

  /* USER CODE END SPI1_MspInit 0 */
    /* SPI1 clock enable */
    __HAL_RCC_SPI1_CLK_ENABLE();
 80011e2:	4b2e      	ldr	r3, [pc, #184]	; (800129c <HAL_SPI_MspInit+0xdc>)
 80011e4:	699a      	ldr	r2, [r3, #24]
 80011e6:	4b2d      	ldr	r3, [pc, #180]	; (800129c <HAL_SPI_MspInit+0xdc>)
 80011e8:	2180      	movs	r1, #128	; 0x80
 80011ea:	0149      	lsls	r1, r1, #5
 80011ec:	430a      	orrs	r2, r1
 80011ee:	619a      	str	r2, [r3, #24]
 80011f0:	4b2a      	ldr	r3, [pc, #168]	; (800129c <HAL_SPI_MspInit+0xdc>)
 80011f2:	699a      	ldr	r2, [r3, #24]
 80011f4:	2380      	movs	r3, #128	; 0x80
 80011f6:	015b      	lsls	r3, r3, #5
 80011f8:	4013      	ands	r3, r2
 80011fa:	613b      	str	r3, [r7, #16]
 80011fc:	693b      	ldr	r3, [r7, #16]

    __HAL_RCC_GPIOA_CLK_ENABLE();
 80011fe:	4b27      	ldr	r3, [pc, #156]	; (800129c <HAL_SPI_MspInit+0xdc>)
 8001200:	695a      	ldr	r2, [r3, #20]
 8001202:	4b26      	ldr	r3, [pc, #152]	; (800129c <HAL_SPI_MspInit+0xdc>)
 8001204:	2180      	movs	r1, #128	; 0x80
 8001206:	0289      	lsls	r1, r1, #10
 8001208:	430a      	orrs	r2, r1
 800120a:	615a      	str	r2, [r3, #20]
 800120c:	4b23      	ldr	r3, [pc, #140]	; (800129c <HAL_SPI_MspInit+0xdc>)
 800120e:	695a      	ldr	r2, [r3, #20]
 8001210:	2380      	movs	r3, #128	; 0x80
 8001212:	029b      	lsls	r3, r3, #10
 8001214:	4013      	ands	r3, r2
 8001216:	60fb      	str	r3, [r7, #12]
 8001218:	68fb      	ldr	r3, [r7, #12]
    __HAL_RCC_GPIOB_CLK_ENABLE();
 800121a:	4b20      	ldr	r3, [pc, #128]	; (800129c <HAL_SPI_MspInit+0xdc>)
 800121c:	695a      	ldr	r2, [r3, #20]
 800121e:	4b1f      	ldr	r3, [pc, #124]	; (800129c <HAL_SPI_MspInit+0xdc>)
 8001220:	2180      	movs	r1, #128	; 0x80
 8001222:	02c9      	lsls	r1, r1, #11
 8001224:	430a      	orrs	r2, r1
 8001226:	615a      	str	r2, [r3, #20]
 8001228:	4b1c      	ldr	r3, [pc, #112]	; (800129c <HAL_SPI_MspInit+0xdc>)
 800122a:	695a      	ldr	r2, [r3, #20]
 800122c:	2380      	movs	r3, #128	; 0x80
 800122e:	02db      	lsls	r3, r3, #11
 8001230:	4013      	ands	r3, r2
 8001232:	60bb      	str	r3, [r7, #8]
 8001234:	68bb      	ldr	r3, [r7, #8]
    /**SPI1 GPIO Configuration
    PA6     ------> SPI1_MISO
    PA7     ------> SPI1_MOSI
    PB3     ------> SPI1_SCK
    */
    GPIO_InitStruct.Pin = GPIO_PIN_6|GPIO_PIN_7;
 8001236:	193b      	adds	r3, r7, r4
 8001238:	22c0      	movs	r2, #192	; 0xc0
 800123a:	601a      	str	r2, [r3, #0]
    GPIO_InitStruct.Mode = GPIO_MODE_AF_PP;
 800123c:	193b      	adds	r3, r7, r4
 800123e:	2202      	movs	r2, #2
 8001240:	605a      	str	r2, [r3, #4]
    GPIO_InitStruct.Pull = GPIO_NOPULL;
 8001242:	193b      	adds	r3, r7, r4
 8001244:	2200      	movs	r2, #0
 8001246:	609a      	str	r2, [r3, #8]
    GPIO_InitStruct.Speed = GPIO_SPEED_FREQ_HIGH;
 8001248:	193b      	adds	r3, r7, r4
 800124a:	2203      	movs	r2, #3
 800124c:	60da      	str	r2, [r3, #12]
    GPIO_InitStruct.Alternate = GPIO_AF0_SPI1;
 800124e:	193b      	adds	r3, r7, r4
 8001250:	2200      	movs	r2, #0
 8001252:	611a      	str	r2, [r3, #16]
    HAL_GPIO_Init(GPIOA, &GPIO_InitStruct);
 8001254:	193a      	adds	r2, r7, r4
 8001256:	2390      	movs	r3, #144	; 0x90
 8001258:	05db      	lsls	r3, r3, #23
 800125a:	0011      	movs	r1, r2
 800125c:	0018      	movs	r0, r3
 800125e:	f000 fb57 	bl	8001910 <HAL_GPIO_Init>

    GPIO_InitStruct.Pin = GPIO_PIN_3;
 8001262:	0021      	movs	r1, r4
 8001264:	187b      	adds	r3, r7, r1
 8001266:	2208      	movs	r2, #8
 8001268:	601a      	str	r2, [r3, #0]
    GPIO_InitStruct.Mode = GPIO_MODE_AF_PP;
 800126a:	187b      	adds	r3, r7, r1
 800126c:	2202      	movs	r2, #2
 800126e:	605a      	str	r2, [r3, #4]
    GPIO_InitStruct.Pull = GPIO_NOPULL;
 8001270:	187b      	adds	r3, r7, r1
 8001272:	2200      	movs	r2, #0
 8001274:	609a      	str	r2, [r3, #8]
    GPIO_InitStruct.Speed = GPIO_SPEED_FREQ_HIGH;
 8001276:	187b      	adds	r3, r7, r1
 8001278:	2203      	movs	r2, #3
 800127a:	60da      	str	r2, [r3, #12]
    GPIO_InitStruct.Alternate = GPIO_AF0_SPI1;
 800127c:	187b      	adds	r3, r7, r1
 800127e:	2200      	movs	r2, #0
 8001280:	611a      	str	r2, [r3, #16]
    HAL_GPIO_Init(GPIOB, &GPIO_InitStruct);
 8001282:	187b      	adds	r3, r7, r1
 8001284:	4a06      	ldr	r2, [pc, #24]	; (80012a0 <HAL_SPI_MspInit+0xe0>)
 8001286:	0019      	movs	r1, r3
 8001288:	0010      	movs	r0, r2
 800128a:	f000 fb41 	bl	8001910 <HAL_GPIO_Init>

  /* USER CODE BEGIN SPI1_MspInit 1 */

  /* USER CODE END SPI1_MspInit 1 */
  }
}
 800128e:	46c0      	nop			; (mov r8, r8)
 8001290:	46bd      	mov	sp, r7
 8001292:	b00b      	add	sp, #44	; 0x2c
 8001294:	bd90      	pop	{r4, r7, pc}
 8001296:	46c0      	nop			; (mov r8, r8)
 8001298:	40013000 	.word	0x40013000
 800129c:	40021000 	.word	0x40021000
 80012a0:	48000400 	.word	0x48000400

080012a4 <HAL_MspInit>:
/* USER CODE END 0 */
/**
  * Initializes the Global MSP.
  */
void HAL_MspInit(void)
{
 80012a4:	b580      	push	{r7, lr}
 80012a6:	b082      	sub	sp, #8
 80012a8:	af00      	add	r7, sp, #0
  /* USER CODE BEGIN MspInit 0 */

  /* USER CODE END MspInit 0 */

  __HAL_RCC_SYSCFG_CLK_ENABLE();
 80012aa:	4b0f      	ldr	r3, [pc, #60]	; (80012e8 <HAL_MspInit+0x44>)
 80012ac:	699a      	ldr	r2, [r3, #24]
 80012ae:	4b0e      	ldr	r3, [pc, #56]	; (80012e8 <HAL_MspInit+0x44>)
 80012b0:	2101      	movs	r1, #1
 80012b2:	430a      	orrs	r2, r1
 80012b4:	619a      	str	r2, [r3, #24]
 80012b6:	4b0c      	ldr	r3, [pc, #48]	; (80012e8 <HAL_MspInit+0x44>)
 80012b8:	699b      	ldr	r3, [r3, #24]
 80012ba:	2201      	movs	r2, #1
 80012bc:	4013      	ands	r3, r2
 80012be:	607b      	str	r3, [r7, #4]
 80012c0:	687b      	ldr	r3, [r7, #4]
  __HAL_RCC_PWR_CLK_ENABLE();
 80012c2:	4b09      	ldr	r3, [pc, #36]	; (80012e8 <HAL_MspInit+0x44>)
 80012c4:	69da      	ldr	r2, [r3, #28]
 80012c6:	4b08      	ldr	r3, [pc, #32]	; (80012e8 <HAL_MspInit+0x44>)
 80012c8:	2180      	movs	r1, #128	; 0x80
 80012ca:	0549      	lsls	r1, r1, #21
 80012cc:	430a      	orrs	r2, r1
 80012ce:	61da      	str	r2, [r3, #28]
 80012d0:	4b05      	ldr	r3, [pc, #20]	; (80012e8 <HAL_MspInit+0x44>)
 80012d2:	69da      	ldr	r2, [r3, #28]
 80012d4:	2380      	movs	r3, #128	; 0x80
 80012d6:	055b      	lsls	r3, r3, #21
 80012d8:	4013      	ands	r3, r2
 80012da:	603b      	str	r3, [r7, #0]
 80012dc:	683b      	ldr	r3, [r7, #0]
  /* System interrupt init*/

  /* USER CODE BEGIN MspInit 1 */

  /* USER CODE END MspInit 1 */
}
 80012de:	46c0      	nop			; (mov r8, r8)
 80012e0:	46bd      	mov	sp, r7
 80012e2:	b002      	add	sp, #8
 80012e4:	bd80      	pop	{r7, pc}
 80012e6:	46c0      	nop			; (mov r8, r8)
 80012e8:	40021000 	.word	0x40021000

080012ec <NMI_Handler>:
/******************************************************************************/
/**
  * @brief This function handles Non maskable interrupt.
  */
void NMI_Handler(void)
{
 80012ec:	b580      	push	{r7, lr}
 80012ee:	af00      	add	r7, sp, #0
  /* USER CODE BEGIN NonMaskableInt_IRQn 0 */

  /* USER CODE END NonMaskableInt_IRQn 0 */
  /* USER CODE BEGIN NonMaskableInt_IRQn 1 */
  while (1)
 80012f0:	e7fe      	b.n	80012f0 <NMI_Handler+0x4>

080012f2 <HardFault_Handler>:

/**
  * @brief This function handles Hard fault interrupt.
  */
void HardFault_Handler(void)
{
 80012f2:	b580      	push	{r7, lr}
 80012f4:	af00      	add	r7, sp, #0
  /* USER CODE BEGIN HardFault_IRQn 0 */

  /* USER CODE END HardFault_IRQn 0 */
  while (1)
 80012f6:	e7fe      	b.n	80012f6 <HardFault_Handler+0x4>

080012f8 <SVC_Handler>:

/**
  * @brief This function handles System service call via SWI instruction.
  */
void SVC_Handler(void)
{
 80012f8:	b580      	push	{r7, lr}
 80012fa:	af00      	add	r7, sp, #0

  /* USER CODE END SVC_IRQn 0 */
  /* USER CODE BEGIN SVC_IRQn 1 */

  /* USER CODE END SVC_IRQn 1 */
}
 80012fc:	46c0      	nop			; (mov r8, r8)
 80012fe:	46bd      	mov	sp, r7
 8001300:	bd80      	pop	{r7, pc}

08001302 <PendSV_Handler>:

/**
  * @brief This function handles Pendable request for system service.
  */
void PendSV_Handler(void)
{
 8001302:	b580      	push	{r7, lr}
 8001304:	af00      	add	r7, sp, #0

  /* USER CODE END PendSV_IRQn 0 */
  /* USER CODE BEGIN PendSV_IRQn 1 */

  /* USER CODE END PendSV_IRQn 1 */
}
 8001306:	46c0      	nop			; (mov r8, r8)
 8001308:	46bd      	mov	sp, r7
 800130a:	bd80      	pop	{r7, pc}

0800130c <SysTick_Handler>:

/**
  * @brief This function handles System tick timer.
  */
void SysTick_Handler(void)
{
 800130c:	b580      	push	{r7, lr}
 800130e:	af00      	add	r7, sp, #0
  /* USER CODE BEGIN SysTick_IRQn 0 */

  /* USER CODE END SysTick_IRQn 0 */
  HAL_IncTick();
 8001310:	f000 fa0a 	bl	8001728 <HAL_IncTick>
  /* USER CODE BEGIN SysTick_IRQn 1 */

  /* USER CODE END SysTick_IRQn 1 */
}
 8001314:	46c0      	nop			; (mov r8, r8)
 8001316:	46bd      	mov	sp, r7
 8001318:	bd80      	pop	{r7, pc}

0800131a <SystemInit>:
  * @brief  Setup the microcontroller system
  * @param  None
  * @retval None
  */
void SystemInit(void)
{
 800131a:	b580      	push	{r7, lr}
 800131c:	af00      	add	r7, sp, #0
                         before branch to main program. This call is made inside
                         the "startup_stm32f0xx.s" file.
                         User can setups the default system clock (System clock source, PLL Multiplier
                         and Divider factors, AHB/APBx prescalers and Flash settings).
   */
}
 800131e:	46c0      	nop			; (mov r8, r8)
 8001320:	46bd      	mov	sp, r7
 8001322:	bd80      	pop	{r7, pc}

08001324 <MX_TIM1_Init>:

TIM_HandleTypeDef htim1;

/* TIM1 init function */
void MX_TIM1_Init(void)
{
 8001324:	b580      	push	{r7, lr}
 8001326:	b096      	sub	sp, #88	; 0x58
 8001328:	af00      	add	r7, sp, #0

  /* USER CODE BEGIN TIM1_Init 0 */

  /* USER CODE END TIM1_Init 0 */

  TIM_ClockConfigTypeDef sClockSourceConfig = {0};
 800132a:	2348      	movs	r3, #72	; 0x48
 800132c:	18fb      	adds	r3, r7, r3
 800132e:	0018      	movs	r0, r3
 8001330:	2310      	movs	r3, #16
 8001332:	001a      	movs	r2, r3
 8001334:	2100      	movs	r1, #0
 8001336:	f003 f853 	bl	80043e0 <memset>
  TIM_MasterConfigTypeDef sMasterConfig = {0};
 800133a:	2340      	movs	r3, #64	; 0x40
 800133c:	18fb      	adds	r3, r7, r3
 800133e:	0018      	movs	r0, r3
 8001340:	2308      	movs	r3, #8
 8001342:	001a      	movs	r2, r3
 8001344:	2100      	movs	r1, #0
 8001346:	f003 f84b 	bl	80043e0 <memset>
  TIM_OC_InitTypeDef sConfigOC = {0};
 800134a:	2324      	movs	r3, #36	; 0x24
 800134c:	18fb      	adds	r3, r7, r3
 800134e:	0018      	movs	r0, r3
 8001350:	231c      	movs	r3, #28
 8001352:	001a      	movs	r2, r3
 8001354:	2100      	movs	r1, #0
 8001356:	f003 f843 	bl	80043e0 <memset>
  TIM_BreakDeadTimeConfigTypeDef sBreakDeadTimeConfig = {0};
 800135a:	1d3b      	adds	r3, r7, #4
 800135c:	0018      	movs	r0, r3
 800135e:	2320      	movs	r3, #32
 8001360:	001a      	movs	r2, r3
 8001362:	2100      	movs	r1, #0
 8001364:	f003 f83c 	bl	80043e0 <memset>

  /* USER CODE BEGIN TIM1_Init 1 */

  /* USER CODE END TIM1_Init 1 */
  htim1.Instance = TIM1;
 8001368:	4b46      	ldr	r3, [pc, #280]	; (8001484 <MX_TIM1_Init+0x160>)
 800136a:	4a47      	ldr	r2, [pc, #284]	; (8001488 <MX_TIM1_Init+0x164>)
 800136c:	601a      	str	r2, [r3, #0]
  htim1.Init.Prescaler = 14;
 800136e:	4b45      	ldr	r3, [pc, #276]	; (8001484 <MX_TIM1_Init+0x160>)
 8001370:	220e      	movs	r2, #14
 8001372:	605a      	str	r2, [r3, #4]
  htim1.Init.CounterMode = TIM_COUNTERMODE_UP;
 8001374:	4b43      	ldr	r3, [pc, #268]	; (8001484 <MX_TIM1_Init+0x160>)
 8001376:	2200      	movs	r2, #0
 8001378:	609a      	str	r2, [r3, #8]
  htim1.Init.Period = 64000;
 800137a:	4b42      	ldr	r3, [pc, #264]	; (8001484 <MX_TIM1_Init+0x160>)
 800137c:	22fa      	movs	r2, #250	; 0xfa
 800137e:	0212      	lsls	r2, r2, #8
 8001380:	60da      	str	r2, [r3, #12]
  htim1.Init.ClockDivision = TIM_CLOCKDIVISION_DIV1;
 8001382:	4b40      	ldr	r3, [pc, #256]	; (8001484 <MX_TIM1_Init+0x160>)
 8001384:	2200      	movs	r2, #0
 8001386:	611a      	str	r2, [r3, #16]
  htim1.Init.RepetitionCounter = 0;
 8001388:	4b3e      	ldr	r3, [pc, #248]	; (8001484 <MX_TIM1_Init+0x160>)
 800138a:	2200      	movs	r2, #0
 800138c:	615a      	str	r2, [r3, #20]
  htim1.Init.AutoReloadPreload = TIM_AUTORELOAD_PRELOAD_DISABLE;
 800138e:	4b3d      	ldr	r3, [pc, #244]	; (8001484 <MX_TIM1_Init+0x160>)
 8001390:	2200      	movs	r2, #0
 8001392:	619a      	str	r2, [r3, #24]
  if (HAL_TIM_Base_Init(&htim1) != HAL_OK)
 8001394:	4b3b      	ldr	r3, [pc, #236]	; (8001484 <MX_TIM1_Init+0x160>)
 8001396:	0018      	movs	r0, r3
 8001398:	f001 fe4e 	bl	8003038 <HAL_TIM_Base_Init>
 800139c:	1e03      	subs	r3, r0, #0
 800139e:	d001      	beq.n	80013a4 <MX_TIM1_Init+0x80>
  {
    Error_Handler();
 80013a0:	f7ff fecb 	bl	800113a <Error_Handler>
  }
  sClockSourceConfig.ClockSource = TIM_CLOCKSOURCE_INTERNAL;
 80013a4:	2148      	movs	r1, #72	; 0x48
 80013a6:	187b      	adds	r3, r7, r1
 80013a8:	2280      	movs	r2, #128	; 0x80
 80013aa:	0152      	lsls	r2, r2, #5
 80013ac:	601a      	str	r2, [r3, #0]
  if (HAL_TIM_ConfigClockSource(&htim1, &sClockSourceConfig) != HAL_OK)
 80013ae:	187a      	adds	r2, r7, r1
 80013b0:	4b34      	ldr	r3, [pc, #208]	; (8001484 <MX_TIM1_Init+0x160>)
 80013b2:	0011      	movs	r1, r2
 80013b4:	0018      	movs	r0, r3
 80013b6:	f001 ffad 	bl	8003314 <HAL_TIM_ConfigClockSource>
 80013ba:	1e03      	subs	r3, r0, #0
 80013bc:	d001      	beq.n	80013c2 <MX_TIM1_Init+0x9e>
  {
    Error_Handler();
 80013be:	f7ff febc 	bl	800113a <Error_Handler>
  }
  if (HAL_TIM_PWM_Init(&htim1) != HAL_OK)
 80013c2:	4b30      	ldr	r3, [pc, #192]	; (8001484 <MX_TIM1_Init+0x160>)
 80013c4:	0018      	movs	r0, r3
 80013c6:	f001 fe87 	bl	80030d8 <HAL_TIM_PWM_Init>
 80013ca:	1e03      	subs	r3, r0, #0
 80013cc:	d001      	beq.n	80013d2 <MX_TIM1_Init+0xae>
  {
    Error_Handler();
 80013ce:	f7ff feb4 	bl	800113a <Error_Handler>
  }
  sMasterConfig.MasterOutputTrigger = TIM_TRGO_RESET;
 80013d2:	2140      	movs	r1, #64	; 0x40
 80013d4:	187b      	adds	r3, r7, r1
 80013d6:	2200      	movs	r2, #0
 80013d8:	601a      	str	r2, [r3, #0]
  sMasterConfig.MasterSlaveMode = TIM_MASTERSLAVEMODE_DISABLE;
 80013da:	187b      	adds	r3, r7, r1
 80013dc:	2200      	movs	r2, #0
 80013de:	605a      	str	r2, [r3, #4]
  if (HAL_TIMEx_MasterConfigSynchronization(&htim1, &sMasterConfig) != HAL_OK)
 80013e0:	187a      	adds	r2, r7, r1
 80013e2:	4b28      	ldr	r3, [pc, #160]	; (8001484 <MX_TIM1_Init+0x160>)
 80013e4:	0011      	movs	r1, r2
 80013e6:	0018      	movs	r0, r3
 80013e8:	f002 fb7e 	bl	8003ae8 <HAL_TIMEx_MasterConfigSynchronization>
 80013ec:	1e03      	subs	r3, r0, #0
 80013ee:	d001      	beq.n	80013f4 <MX_TIM1_Init+0xd0>
  {
    Error_Handler();
 80013f0:	f7ff fea3 	bl	800113a <Error_Handler>
  }
  sConfigOC.OCMode = TIM_OCMODE_PWM1;
 80013f4:	2124      	movs	r1, #36	; 0x24
 80013f6:	187b      	adds	r3, r7, r1
 80013f8:	2260      	movs	r2, #96	; 0x60
 80013fa:	601a      	str	r2, [r3, #0]
  sConfigOC.Pulse = 0;
 80013fc:	187b      	adds	r3, r7, r1
 80013fe:	2200      	movs	r2, #0
 8001400:	605a      	str	r2, [r3, #4]
  sConfigOC.OCPolarity = TIM_OCPOLARITY_HIGH;
 8001402:	187b      	adds	r3, r7, r1
 8001404:	2200      	movs	r2, #0
 8001406:	609a      	str	r2, [r3, #8]
  sConfigOC.OCNPolarity = TIM_OCNPOLARITY_HIGH;
 8001408:	187b      	adds	r3, r7, r1
 800140a:	2200      	movs	r2, #0
 800140c:	60da      	str	r2, [r3, #12]
  sConfigOC.OCFastMode = TIM_OCFAST_DISABLE;
 800140e:	187b      	adds	r3, r7, r1
 8001410:	2200      	movs	r2, #0
 8001412:	611a      	str	r2, [r3, #16]
  sConfigOC.OCIdleState = TIM_OCIDLESTATE_RESET;
 8001414:	187b      	adds	r3, r7, r1
 8001416:	2200      	movs	r2, #0
 8001418:	615a      	str	r2, [r3, #20]
  sConfigOC.OCNIdleState = TIM_OCNIDLESTATE_RESET;
 800141a:	187b      	adds	r3, r7, r1
 800141c:	2200      	movs	r2, #0
 800141e:	619a      	str	r2, [r3, #24]
  if (HAL_TIM_PWM_ConfigChannel(&htim1, &sConfigOC, TIM_CHANNEL_1) != HAL_OK)
 8001420:	1879      	adds	r1, r7, r1
 8001422:	4b18      	ldr	r3, [pc, #96]	; (8001484 <MX_TIM1_Init+0x160>)
 8001424:	2200      	movs	r2, #0
 8001426:	0018      	movs	r0, r3
 8001428:	f001 feae 	bl	8003188 <HAL_TIM_PWM_ConfigChannel>
 800142c:	1e03      	subs	r3, r0, #0
 800142e:	d001      	beq.n	8001434 <MX_TIM1_Init+0x110>
  {
    Error_Handler();
 8001430:	f7ff fe83 	bl	800113a <Error_Handler>
  }
  sBreakDeadTimeConfig.OffStateRunMode = TIM_OSSR_DISABLE;
 8001434:	1d3b      	adds	r3, r7, #4
 8001436:	2200      	movs	r2, #0
 8001438:	601a      	str	r2, [r3, #0]
  sBreakDeadTimeConfig.OffStateIDLEMode = TIM_OSSI_DISABLE;
 800143a:	1d3b      	adds	r3, r7, #4
 800143c:	2200      	movs	r2, #0
 800143e:	605a      	str	r2, [r3, #4]
  sBreakDeadTimeConfig.LockLevel = TIM_LOCKLEVEL_OFF;
 8001440:	1d3b      	adds	r3, r7, #4
 8001442:	2200      	movs	r2, #0
 8001444:	609a      	str	r2, [r3, #8]
  sBreakDeadTimeConfig.DeadTime = 0;
 8001446:	1d3b      	adds	r3, r7, #4
 8001448:	2200      	movs	r2, #0
 800144a:	60da      	str	r2, [r3, #12]
  sBreakDeadTimeConfig.BreakState = TIM_BREAK_DISABLE;
 800144c:	1d3b      	adds	r3, r7, #4
 800144e:	2200      	movs	r2, #0
 8001450:	611a      	str	r2, [r3, #16]
  sBreakDeadTimeConfig.BreakPolarity = TIM_BREAKPOLARITY_HIGH;
 8001452:	1d3b      	adds	r3, r7, #4
 8001454:	2280      	movs	r2, #128	; 0x80
 8001456:	0192      	lsls	r2, r2, #6
 8001458:	615a      	str	r2, [r3, #20]
  sBreakDeadTimeConfig.AutomaticOutput = TIM_AUTOMATICOUTPUT_DISABLE;
 800145a:	1d3b      	adds	r3, r7, #4
 800145c:	2200      	movs	r2, #0
 800145e:	61da      	str	r2, [r3, #28]
  if (HAL_TIMEx_ConfigBreakDeadTime(&htim1, &sBreakDeadTimeConfig) != HAL_OK)
 8001460:	1d3a      	adds	r2, r7, #4
 8001462:	4b08      	ldr	r3, [pc, #32]	; (8001484 <MX_TIM1_Init+0x160>)
 8001464:	0011      	movs	r1, r2
 8001466:	0018      	movs	r0, r3
 8001468:	f002 fb9c 	bl	8003ba4 <HAL_TIMEx_ConfigBreakDeadTime>
 800146c:	1e03      	subs	r3, r0, #0
 800146e:	d001      	beq.n	8001474 <MX_TIM1_Init+0x150>
  {
    Error_Handler();
 8001470:	f7ff fe63 	bl	800113a <Error_Handler>
  }
  /* USER CODE BEGIN TIM1_Init 2 */

  /* USER CODE END TIM1_Init 2 */
  HAL_TIM_MspPostInit(&htim1);
 8001474:	4b03      	ldr	r3, [pc, #12]	; (8001484 <MX_TIM1_Init+0x160>)
 8001476:	0018      	movs	r0, r3
 8001478:	f000 f828 	bl	80014cc <HAL_TIM_MspPostInit>

}
 800147c:	46c0      	nop			; (mov r8, r8)
 800147e:	46bd      	mov	sp, r7
 8001480:	b016      	add	sp, #88	; 0x58
 8001482:	bd80      	pop	{r7, pc}
 8001484:	2000008c 	.word	0x2000008c
 8001488:	40012c00 	.word	0x40012c00

0800148c <HAL_TIM_Base_MspInit>:

void HAL_TIM_Base_MspInit(TIM_HandleTypeDef* tim_baseHandle)
{
 800148c:	b580      	push	{r7, lr}
 800148e:	b084      	sub	sp, #16
 8001490:	af00      	add	r7, sp, #0
 8001492:	6078      	str	r0, [r7, #4]

  if(tim_baseHandle->Instance==TIM1)
 8001494:	687b      	ldr	r3, [r7, #4]
 8001496:	681b      	ldr	r3, [r3, #0]
 8001498:	4a0a      	ldr	r2, [pc, #40]	; (80014c4 <HAL_TIM_Base_MspInit+0x38>)
 800149a:	4293      	cmp	r3, r2
 800149c:	d10d      	bne.n	80014ba <HAL_TIM_Base_MspInit+0x2e>
  {
  /* USER CODE BEGIN TIM1_MspInit 0 */

  /* USER CODE END TIM1_MspInit 0 */
    /* TIM1 clock enable */
    __HAL_RCC_TIM1_CLK_ENABLE();
 800149e:	4b0a      	ldr	r3, [pc, #40]	; (80014c8 <HAL_TIM_Base_MspInit+0x3c>)
 80014a0:	699a      	ldr	r2, [r3, #24]
 80014a2:	4b09      	ldr	r3, [pc, #36]	; (80014c8 <HAL_TIM_Base_MspInit+0x3c>)
 80014a4:	2180      	movs	r1, #128	; 0x80
 80014a6:	0109      	lsls	r1, r1, #4
 80014a8:	430a      	orrs	r2, r1
 80014aa:	619a      	str	r2, [r3, #24]
 80014ac:	4b06      	ldr	r3, [pc, #24]	; (80014c8 <HAL_TIM_Base_MspInit+0x3c>)
 80014ae:	699a      	ldr	r2, [r3, #24]
 80014b0:	2380      	movs	r3, #128	; 0x80
 80014b2:	011b      	lsls	r3, r3, #4
 80014b4:	4013      	ands	r3, r2
 80014b6:	60fb      	str	r3, [r7, #12]
 80014b8:	68fb      	ldr	r3, [r7, #12]
  /* USER CODE BEGIN TIM1_MspInit 1 */

  /* USER CODE END TIM1_MspInit 1 */
  }
}
 80014ba:	46c0      	nop			; (mov r8, r8)
 80014bc:	46bd      	mov	sp, r7
 80014be:	b004      	add	sp, #16
 80014c0:	bd80      	pop	{r7, pc}
 80014c2:	46c0      	nop			; (mov r8, r8)
 80014c4:	40012c00 	.word	0x40012c00
 80014c8:	40021000 	.word	0x40021000

080014cc <HAL_TIM_MspPostInit>:
void HAL_TIM_MspPostInit(TIM_HandleTypeDef* timHandle)
{
 80014cc:	b590      	push	{r4, r7, lr}
 80014ce:	b089      	sub	sp, #36	; 0x24
 80014d0:	af00      	add	r7, sp, #0
 80014d2:	6078      	str	r0, [r7, #4]

  GPIO_InitTypeDef GPIO_InitStruct = {0};
 80014d4:	240c      	movs	r4, #12
 80014d6:	193b      	adds	r3, r7, r4
 80014d8:	0018      	movs	r0, r3
 80014da:	2314      	movs	r3, #20
 80014dc:	001a      	movs	r2, r3
 80014de:	2100      	movs	r1, #0
 80014e0:	f002 ff7e 	bl	80043e0 <memset>
  if(timHandle->Instance==TIM1)
 80014e4:	687b      	ldr	r3, [r7, #4]
 80014e6:	681b      	ldr	r3, [r3, #0]
 80014e8:	4a16      	ldr	r2, [pc, #88]	; (8001544 <HAL_TIM_MspPostInit+0x78>)
 80014ea:	4293      	cmp	r3, r2
 80014ec:	d125      	bne.n	800153a <HAL_TIM_MspPostInit+0x6e>
  {
  /* USER CODE BEGIN TIM1_MspPostInit 0 */

  /* USER CODE END TIM1_MspPostInit 0 */

    __HAL_RCC_GPIOA_CLK_ENABLE();
 80014ee:	4b16      	ldr	r3, [pc, #88]	; (8001548 <HAL_TIM_MspPostInit+0x7c>)
 80014f0:	695a      	ldr	r2, [r3, #20]
 80014f2:	4b15      	ldr	r3, [pc, #84]	; (8001548 <HAL_TIM_MspPostInit+0x7c>)
 80014f4:	2180      	movs	r1, #128	; 0x80
 80014f6:	0289      	lsls	r1, r1, #10
 80014f8:	430a      	orrs	r2, r1
 80014fa:	615a      	str	r2, [r3, #20]
 80014fc:	4b12      	ldr	r3, [pc, #72]	; (8001548 <HAL_TIM_MspPostInit+0x7c>)
 80014fe:	695a      	ldr	r2, [r3, #20]
 8001500:	2380      	movs	r3, #128	; 0x80
 8001502:	029b      	lsls	r3, r3, #10
 8001504:	4013      	ands	r3, r2
 8001506:	60bb      	str	r3, [r7, #8]
 8001508:	68bb      	ldr	r3, [r7, #8]
    /**TIM1 GPIO Configuration
    PA8     ------> TIM1_CH1
    */
    GPIO_InitStruct.Pin = GPIO_PIN_8;
 800150a:	193b      	adds	r3, r7, r4
 800150c:	2280      	movs	r2, #128	; 0x80
 800150e:	0052      	lsls	r2, r2, #1
 8001510:	601a      	str	r2, [r3, #0]
    GPIO_InitStruct.Mode = GPIO_MODE_AF_PP;
 8001512:	0021      	movs	r1, r4
 8001514:	187b      	adds	r3, r7, r1
 8001516:	2202      	movs	r2, #2
 8001518:	605a      	str	r2, [r3, #4]
    GPIO_InitStruct.Pull = GPIO_NOPULL;
 800151a:	187b      	adds	r3, r7, r1
 800151c:	2200      	movs	r2, #0
 800151e:	609a      	str	r2, [r3, #8]
    GPIO_InitStruct.Speed = GPIO_SPEED_FREQ_LOW;
 8001520:	187b      	adds	r3, r7, r1
 8001522:	2200      	movs	r2, #0
 8001524:	60da      	str	r2, [r3, #12]
    GPIO_InitStruct.Alternate = GPIO_AF2_TIM1;
 8001526:	187b      	adds	r3, r7, r1
 8001528:	2202      	movs	r2, #2
 800152a:	611a      	str	r2, [r3, #16]
    HAL_GPIO_Init(GPIOA, &GPIO_InitStruct);
 800152c:	187a      	adds	r2, r7, r1
 800152e:	2390      	movs	r3, #144	; 0x90
 8001530:	05db      	lsls	r3, r3, #23
 8001532:	0011      	movs	r1, r2
 8001534:	0018      	movs	r0, r3
 8001536:	f000 f9eb 	bl	8001910 <HAL_GPIO_Init>
  /* USER CODE BEGIN TIM1_MspPostInit 1 */

  /* USER CODE END TIM1_MspPostInit 1 */
  }

}
 800153a:	46c0      	nop			; (mov r8, r8)
 800153c:	46bd      	mov	sp, r7
 800153e:	b009      	add	sp, #36	; 0x24
 8001540:	bd90      	pop	{r4, r7, pc}
 8001542:	46c0      	nop			; (mov r8, r8)
 8001544:	40012c00 	.word	0x40012c00
 8001548:	40021000 	.word	0x40021000

0800154c <MX_USART2_UART_Init>:
UART_HandleTypeDef huart2;

/* USART2 init function */

void MX_USART2_UART_Init(void)
{
 800154c:	b580      	push	{r7, lr}
 800154e:	af00      	add	r7, sp, #0
  /* USER CODE END USART2_Init 0 */

  /* USER CODE BEGIN USART2_Init 1 */

  /* USER CODE END USART2_Init 1 */
  huart2.Instance = USART2;
 8001550:	4b14      	ldr	r3, [pc, #80]	; (80015a4 <MX_USART2_UART_Init+0x58>)
 8001552:	4a15      	ldr	r2, [pc, #84]	; (80015a8 <MX_USART2_UART_Init+0x5c>)
 8001554:	601a      	str	r2, [r3, #0]
  huart2.Init.BaudRate = 38400;
 8001556:	4b13      	ldr	r3, [pc, #76]	; (80015a4 <MX_USART2_UART_Init+0x58>)
 8001558:	2296      	movs	r2, #150	; 0x96
 800155a:	0212      	lsls	r2, r2, #8
 800155c:	605a      	str	r2, [r3, #4]
  huart2.Init.WordLength = UART_WORDLENGTH_8B;
 800155e:	4b11      	ldr	r3, [pc, #68]	; (80015a4 <MX_USART2_UART_Init+0x58>)
 8001560:	2200      	movs	r2, #0
 8001562:	609a      	str	r2, [r3, #8]
  huart2.Init.StopBits = UART_STOPBITS_1;
 8001564:	4b0f      	ldr	r3, [pc, #60]	; (80015a4 <MX_USART2_UART_Init+0x58>)
 8001566:	2200      	movs	r2, #0
 8001568:	60da      	str	r2, [r3, #12]
  huart2.Init.Parity = UART_PARITY_NONE;
 800156a:	4b0e      	ldr	r3, [pc, #56]	; (80015a4 <MX_USART2_UART_Init+0x58>)
 800156c:	2200      	movs	r2, #0
 800156e:	611a      	str	r2, [r3, #16]
  huart2.Init.Mode = UART_MODE_TX_RX;
 8001570:	4b0c      	ldr	r3, [pc, #48]	; (80015a4 <MX_USART2_UART_Init+0x58>)
 8001572:	220c      	movs	r2, #12
 8001574:	615a      	str	r2, [r3, #20]
  huart2.Init.HwFlowCtl = UART_HWCONTROL_NONE;
 8001576:	4b0b      	ldr	r3, [pc, #44]	; (80015a4 <MX_USART2_UART_Init+0x58>)
 8001578:	2200      	movs	r2, #0
 800157a:	619a      	str	r2, [r3, #24]
  huart2.Init.OverSampling = UART_OVERSAMPLING_16;
 800157c:	4b09      	ldr	r3, [pc, #36]	; (80015a4 <MX_USART2_UART_Init+0x58>)
 800157e:	2200      	movs	r2, #0
 8001580:	61da      	str	r2, [r3, #28]
  huart2.Init.OneBitSampling = UART_ONE_BIT_SAMPLE_DISABLE;
 8001582:	4b08      	ldr	r3, [pc, #32]	; (80015a4 <MX_USART2_UART_Init+0x58>)
 8001584:	2200      	movs	r2, #0
 8001586:	621a      	str	r2, [r3, #32]
  huart2.AdvancedInit.AdvFeatureInit = UART_ADVFEATURE_NO_INIT;
 8001588:	4b06      	ldr	r3, [pc, #24]	; (80015a4 <MX_USART2_UART_Init+0x58>)
 800158a:	2200      	movs	r2, #0
 800158c:	625a      	str	r2, [r3, #36]	; 0x24
  if (HAL_UART_Init(&huart2) != HAL_OK)
 800158e:	4b05      	ldr	r3, [pc, #20]	; (80015a4 <MX_USART2_UART_Init+0x58>)
 8001590:	0018      	movs	r0, r3
 8001592:	f002 fb65 	bl	8003c60 <HAL_UART_Init>
 8001596:	1e03      	subs	r3, r0, #0
 8001598:	d001      	beq.n	800159e <MX_USART2_UART_Init+0x52>
  {
    Error_Handler();
 800159a:	f7ff fdce 	bl	800113a <Error_Handler>
  }
  /* USER CODE BEGIN USART2_Init 2 */

  /* USER CODE END USART2_Init 2 */

}
 800159e:	46c0      	nop			; (mov r8, r8)
 80015a0:	46bd      	mov	sp, r7
 80015a2:	bd80      	pop	{r7, pc}
 80015a4:	200000d4 	.word	0x200000d4
 80015a8:	40004400 	.word	0x40004400

080015ac <HAL_UART_MspInit>:

void HAL_UART_MspInit(UART_HandleTypeDef* uartHandle)
{
 80015ac:	b590      	push	{r4, r7, lr}
 80015ae:	b08b      	sub	sp, #44	; 0x2c
 80015b0:	af00      	add	r7, sp, #0
 80015b2:	6078      	str	r0, [r7, #4]

  GPIO_InitTypeDef GPIO_InitStruct = {0};
 80015b4:	2414      	movs	r4, #20
 80015b6:	193b      	adds	r3, r7, r4
 80015b8:	0018      	movs	r0, r3
 80015ba:	2314      	movs	r3, #20
 80015bc:	001a      	movs	r2, r3
 80015be:	2100      	movs	r1, #0
 80015c0:	f002 ff0e 	bl	80043e0 <memset>
  if(uartHandle->Instance==USART2)
 80015c4:	687b      	ldr	r3, [r7, #4]
 80015c6:	681b      	ldr	r3, [r3, #0]
 80015c8:	4a1c      	ldr	r2, [pc, #112]	; (800163c <HAL_UART_MspInit+0x90>)
 80015ca:	4293      	cmp	r3, r2
 80015cc:	d132      	bne.n	8001634 <HAL_UART_MspInit+0x88>
  {
  /* USER CODE BEGIN USART2_MspInit 0 */

  /* USER CODE END USART2_MspInit 0 */
    /* USART2 clock enable */
    __HAL_RCC_USART2_CLK_ENABLE();
 80015ce:	4b1c      	ldr	r3, [pc, #112]	; (8001640 <HAL_UART_MspInit+0x94>)
 80015d0:	69da      	ldr	r2, [r3, #28]
 80015d2:	4b1b      	ldr	r3, [pc, #108]	; (8001640 <HAL_UART_MspInit+0x94>)
 80015d4:	2180      	movs	r1, #128	; 0x80
 80015d6:	0289      	lsls	r1, r1, #10
 80015d8:	430a      	orrs	r2, r1
 80015da:	61da      	str	r2, [r3, #28]
 80015dc:	4b18      	ldr	r3, [pc, #96]	; (8001640 <HAL_UART_MspInit+0x94>)
 80015de:	69da      	ldr	r2, [r3, #28]
 80015e0:	2380      	movs	r3, #128	; 0x80
 80015e2:	029b      	lsls	r3, r3, #10
 80015e4:	4013      	ands	r3, r2
 80015e6:	613b      	str	r3, [r7, #16]
 80015e8:	693b      	ldr	r3, [r7, #16]

    __HAL_RCC_GPIOA_CLK_ENABLE();
 80015ea:	4b15      	ldr	r3, [pc, #84]	; (8001640 <HAL_UART_MspInit+0x94>)
 80015ec:	695a      	ldr	r2, [r3, #20]
 80015ee:	4b14      	ldr	r3, [pc, #80]	; (8001640 <HAL_UART_MspInit+0x94>)
 80015f0:	2180      	movs	r1, #128	; 0x80
 80015f2:	0289      	lsls	r1, r1, #10
 80015f4:	430a      	orrs	r2, r1
 80015f6:	615a      	str	r2, [r3, #20]
 80015f8:	4b11      	ldr	r3, [pc, #68]	; (8001640 <HAL_UART_MspInit+0x94>)
 80015fa:	695a      	ldr	r2, [r3, #20]
 80015fc:	2380      	movs	r3, #128	; 0x80
 80015fe:	029b      	lsls	r3, r3, #10
 8001600:	4013      	ands	r3, r2
 8001602:	60fb      	str	r3, [r7, #12]
 8001604:	68fb      	ldr	r3, [r7, #12]
    /**USART2 GPIO Configuration
    PA2     ------> USART2_TX
    PA3     ------> USART2_RX
    */
    GPIO_InitStruct.Pin = USART_TX_Pin|USART_RX_Pin;
 8001606:	0021      	movs	r1, r4
 8001608:	187b      	adds	r3, r7, r1
 800160a:	220c      	movs	r2, #12
 800160c:	601a      	str	r2, [r3, #0]
    GPIO_InitStruct.Mode = GPIO_MODE_AF_PP;
 800160e:	187b      	adds	r3, r7, r1
 8001610:	2202      	movs	r2, #2
 8001612:	605a      	str	r2, [r3, #4]
    GPIO_InitStruct.Pull = GPIO_NOPULL;
 8001614:	187b      	adds	r3, r7, r1
 8001616:	2200      	movs	r2, #0
 8001618:	609a      	str	r2, [r3, #8]
    GPIO_InitStruct.Speed = GPIO_SPEED_FREQ_LOW;
 800161a:	187b      	adds	r3, r7, r1
 800161c:	2200      	movs	r2, #0
 800161e:	60da      	str	r2, [r3, #12]
    GPIO_InitStruct.Alternate = GPIO_AF1_USART2;
 8001620:	187b      	adds	r3, r7, r1
 8001622:	2201      	movs	r2, #1
 8001624:	611a      	str	r2, [r3, #16]
    HAL_GPIO_Init(GPIOA, &GPIO_InitStruct);
 8001626:	187a      	adds	r2, r7, r1
 8001628:	2390      	movs	r3, #144	; 0x90
 800162a:	05db      	lsls	r3, r3, #23
 800162c:	0011      	movs	r1, r2
 800162e:	0018      	movs	r0, r3
 8001630:	f000 f96e 	bl	8001910 <HAL_GPIO_Init>

  /* USER CODE BEGIN USART2_MspInit 1 */

  /* USER CODE END USART2_MspInit 1 */
  }
}
 8001634:	46c0      	nop			; (mov r8, r8)
 8001636:	46bd      	mov	sp, r7
 8001638:	b00b      	add	sp, #44	; 0x2c
 800163a:	bd90      	pop	{r4, r7, pc}
 800163c:	40004400 	.word	0x40004400
 8001640:	40021000 	.word	0x40021000

08001644 <Reset_Handler>:

  .section .text.Reset_Handler
  .weak Reset_Handler
  .type Reset_Handler, %function
Reset_Handler:
  ldr   r0, =_estack
 8001644:	480d      	ldr	r0, [pc, #52]	; (800167c <LoopForever+0x2>)
  mov   sp, r0          /* set stack pointer */
 8001646:	4685      	mov	sp, r0

/* Copy the data segment initializers from flash to SRAM */
  ldr r0, =_sdata
 8001648:	480d      	ldr	r0, [pc, #52]	; (8001680 <LoopForever+0x6>)
  ldr r1, =_edata
 800164a:	490e      	ldr	r1, [pc, #56]	; (8001684 <LoopForever+0xa>)
  ldr r2, =_sidata
 800164c:	4a0e      	ldr	r2, [pc, #56]	; (8001688 <LoopForever+0xe>)
  movs r3, #0
 800164e:	2300      	movs	r3, #0
  b LoopCopyDataInit
 8001650:	e002      	b.n	8001658 <LoopCopyDataInit>

08001652 <CopyDataInit>:

CopyDataInit:
  ldr r4, [r2, r3]
 8001652:	58d4      	ldr	r4, [r2, r3]
  str r4, [r0, r3]
 8001654:	50c4      	str	r4, [r0, r3]
  adds r3, r3, #4
 8001656:	3304      	adds	r3, #4

08001658 <LoopCopyDataInit>:

LoopCopyDataInit:
  adds r4, r0, r3
 8001658:	18c4      	adds	r4, r0, r3
  cmp r4, r1
 800165a:	428c      	cmp	r4, r1
  bcc CopyDataInit
 800165c:	d3f9      	bcc.n	8001652 <CopyDataInit>
  
/* Zero fill the bss segment. */
  ldr r2, =_sbss
 800165e:	4a0b      	ldr	r2, [pc, #44]	; (800168c <LoopForever+0x12>)
  ldr r4, =_ebss
 8001660:	4c0b      	ldr	r4, [pc, #44]	; (8001690 <LoopForever+0x16>)
  movs r3, #0
 8001662:	2300      	movs	r3, #0
  b LoopFillZerobss
 8001664:	e001      	b.n	800166a <LoopFillZerobss>

08001666 <FillZerobss>:

FillZerobss:
  str  r3, [r2]
 8001666:	6013      	str	r3, [r2, #0]
  adds r2, r2, #4
 8001668:	3204      	adds	r2, #4

0800166a <LoopFillZerobss>:

LoopFillZerobss:
  cmp r2, r4
 800166a:	42a2      	cmp	r2, r4
  bcc FillZerobss
 800166c:	d3fb      	bcc.n	8001666 <FillZerobss>

/* Call the clock system intitialization function.*/
  bl  SystemInit
 800166e:	f7ff fe54 	bl	800131a <SystemInit>
/* Call static constructors */
  bl __libc_init_array
 8001672:	f002 fe91 	bl	8004398 <__libc_init_array>
/* Call the application's entry point.*/
  bl main
 8001676:	f7ff fc67 	bl	8000f48 <main>

0800167a <LoopForever>:

LoopForever:
    b LoopForever
 800167a:	e7fe      	b.n	800167a <LoopForever>
  ldr   r0, =_estack
 800167c:	20004000 	.word	0x20004000
  ldr r0, =_sdata
 8001680:	20000000 	.word	0x20000000
  ldr r1, =_edata
 8001684:	2000000c 	.word	0x2000000c
  ldr r2, =_sidata
 8001688:	08004490 	.word	0x08004490
  ldr r2, =_sbss
 800168c:	2000000c 	.word	0x2000000c
  ldr r4, =_ebss
 8001690:	2000015c 	.word	0x2000015c

08001694 <ADC1_COMP_IRQHandler>:
 * @retval : None
*/
    .section .text.Default_Handler,"ax",%progbits
Default_Handler:
Infinite_Loop:
  b Infinite_Loop
 8001694:	e7fe      	b.n	8001694 <ADC1_COMP_IRQHandler>
	...

08001698 <HAL_Init>:
  *       In the default implementation,Systick is used as source of time base.
  *       The tick variable is incremented each 1ms in its ISR.
  * @retval HAL status
  */
HAL_StatusTypeDef HAL_Init(void)
{
 8001698:	b580      	push	{r7, lr}
 800169a:	af00      	add	r7, sp, #0
  /* Configure Flash prefetch */ 
#if (PREFETCH_ENABLE != 0)
  __HAL_FLASH_PREFETCH_BUFFER_ENABLE();
 800169c:	4b07      	ldr	r3, [pc, #28]	; (80016bc <HAL_Init+0x24>)
 800169e:	681a      	ldr	r2, [r3, #0]
 80016a0:	4b06      	ldr	r3, [pc, #24]	; (80016bc <HAL_Init+0x24>)
 80016a2:	2110      	movs	r1, #16
 80016a4:	430a      	orrs	r2, r1
 80016a6:	601a      	str	r2, [r3, #0]
#endif /* PREFETCH_ENABLE */

  /* Use systick as time base source and configure 1ms tick (default clock after Reset is HSI) */

  HAL_InitTick(TICK_INT_PRIORITY);
 80016a8:	2000      	movs	r0, #0
 80016aa:	f000 f809 	bl	80016c0 <HAL_InitTick>

  /* Init the low level hardware */
  HAL_MspInit();
 80016ae:	f7ff fdf9 	bl	80012a4 <HAL_MspInit>

  /* Return function status */
  return HAL_OK;
 80016b2:	2300      	movs	r3, #0
}
 80016b4:	0018      	movs	r0, r3
 80016b6:	46bd      	mov	sp, r7
 80016b8:	bd80      	pop	{r7, pc}
 80016ba:	46c0      	nop			; (mov r8, r8)
 80016bc:	40022000 	.word	0x40022000

080016c0 <HAL_InitTick>:
  *       implementation  in user file.
  * @param TickPriority Tick interrupt priority.
  * @retval HAL status
  */
__weak HAL_StatusTypeDef HAL_InitTick(uint32_t TickPriority)
{
 80016c0:	b590      	push	{r4, r7, lr}
 80016c2:	b083      	sub	sp, #12
 80016c4:	af00      	add	r7, sp, #0
 80016c6:	6078      	str	r0, [r7, #4]
  /*Configure the SysTick to have interrupt in 1ms time basis*/
  if (HAL_SYSTICK_Config(SystemCoreClock / (1000U / uwTickFreq)) > 0U)
 80016c8:	4b14      	ldr	r3, [pc, #80]	; (800171c <HAL_InitTick+0x5c>)
 80016ca:	681c      	ldr	r4, [r3, #0]
 80016cc:	4b14      	ldr	r3, [pc, #80]	; (8001720 <HAL_InitTick+0x60>)
 80016ce:	781b      	ldrb	r3, [r3, #0]
 80016d0:	0019      	movs	r1, r3
 80016d2:	23fa      	movs	r3, #250	; 0xfa
 80016d4:	0098      	lsls	r0, r3, #2
 80016d6:	f7fe fd17 	bl	8000108 <__udivsi3>
 80016da:	0003      	movs	r3, r0
 80016dc:	0019      	movs	r1, r3
 80016de:	0020      	movs	r0, r4
 80016e0:	f7fe fd12 	bl	8000108 <__udivsi3>
 80016e4:	0003      	movs	r3, r0
 80016e6:	0018      	movs	r0, r3
 80016e8:	f000 f905 	bl	80018f6 <HAL_SYSTICK_Config>
 80016ec:	1e03      	subs	r3, r0, #0
 80016ee:	d001      	beq.n	80016f4 <HAL_InitTick+0x34>
  {
    return HAL_ERROR;
 80016f0:	2301      	movs	r3, #1
 80016f2:	e00f      	b.n	8001714 <HAL_InitTick+0x54>
  }

  /* Configure the SysTick IRQ priority */
  if (TickPriority < (1UL << __NVIC_PRIO_BITS))
 80016f4:	687b      	ldr	r3, [r7, #4]
 80016f6:	2b03      	cmp	r3, #3
 80016f8:	d80b      	bhi.n	8001712 <HAL_InitTick+0x52>
  {
    HAL_NVIC_SetPriority(SysTick_IRQn, TickPriority, 0U);
 80016fa:	6879      	ldr	r1, [r7, #4]
 80016fc:	2301      	movs	r3, #1
 80016fe:	425b      	negs	r3, r3
 8001700:	2200      	movs	r2, #0
 8001702:	0018      	movs	r0, r3
 8001704:	f000 f8e2 	bl	80018cc <HAL_NVIC_SetPriority>
    uwTickPrio = TickPriority;
 8001708:	4b06      	ldr	r3, [pc, #24]	; (8001724 <HAL_InitTick+0x64>)
 800170a:	687a      	ldr	r2, [r7, #4]
 800170c:	601a      	str	r2, [r3, #0]
  {
    return HAL_ERROR;
  }

   /* Return function status */
  return HAL_OK;
 800170e:	2300      	movs	r3, #0
 8001710:	e000      	b.n	8001714 <HAL_InitTick+0x54>
    return HAL_ERROR;
 8001712:	2301      	movs	r3, #1
}
 8001714:	0018      	movs	r0, r3
 8001716:	46bd      	mov	sp, r7
 8001718:	b003      	add	sp, #12
 800171a:	bd90      	pop	{r4, r7, pc}
 800171c:	20000000 	.word	0x20000000
 8001720:	20000008 	.word	0x20000008
 8001724:	20000004 	.word	0x20000004

08001728 <HAL_IncTick>:
  * @note This function is declared as __weak to be overwritten in case of other 
  *       implementations in user file.
  * @retval None
  */
__weak void HAL_IncTick(void)
{
 8001728:	b580      	push	{r7, lr}
 800172a:	af00      	add	r7, sp, #0
  uwTick += uwTickFreq;
 800172c:	4b05      	ldr	r3, [pc, #20]	; (8001744 <HAL_IncTick+0x1c>)
 800172e:	781b      	ldrb	r3, [r3, #0]
 8001730:	001a      	movs	r2, r3
 8001732:	4b05      	ldr	r3, [pc, #20]	; (8001748 <HAL_IncTick+0x20>)
 8001734:	681b      	ldr	r3, [r3, #0]
 8001736:	18d2      	adds	r2, r2, r3
 8001738:	4b03      	ldr	r3, [pc, #12]	; (8001748 <HAL_IncTick+0x20>)
 800173a:	601a      	str	r2, [r3, #0]
}
 800173c:	46c0      	nop			; (mov r8, r8)
 800173e:	46bd      	mov	sp, r7
 8001740:	bd80      	pop	{r7, pc}
 8001742:	46c0      	nop			; (mov r8, r8)
 8001744:	20000008 	.word	0x20000008
 8001748:	20000158 	.word	0x20000158

0800174c <HAL_GetTick>:
  * @note   This function is declared as __weak  to be overwritten  in case of other 
  *       implementations in user file.
  * @retval tick value
  */
__weak uint32_t HAL_GetTick(void)
{
 800174c:	b580      	push	{r7, lr}
 800174e:	af00      	add	r7, sp, #0
  return uwTick;
 8001750:	4b02      	ldr	r3, [pc, #8]	; (800175c <HAL_GetTick+0x10>)
 8001752:	681b      	ldr	r3, [r3, #0]
}
 8001754:	0018      	movs	r0, r3
 8001756:	46bd      	mov	sp, r7
 8001758:	bd80      	pop	{r7, pc}
 800175a:	46c0      	nop			; (mov r8, r8)
 800175c:	20000158 	.word	0x20000158

08001760 <HAL_Delay>:
  *       implementations in user file.
  * @param Delay specifies the delay time length, in milliseconds.
  * @retval None
  */
__weak void HAL_Delay(uint32_t Delay)
{
 8001760:	b580      	push	{r7, lr}
 8001762:	b084      	sub	sp, #16
 8001764:	af00      	add	r7, sp, #0
 8001766:	6078      	str	r0, [r7, #4]
  uint32_t tickstart = HAL_GetTick();
 8001768:	f7ff fff0 	bl	800174c <HAL_GetTick>
 800176c:	0003      	movs	r3, r0
 800176e:	60bb      	str	r3, [r7, #8]
  uint32_t wait = Delay;
 8001770:	687b      	ldr	r3, [r7, #4]
 8001772:	60fb      	str	r3, [r7, #12]
  
  /* Add a freq to guarantee minimum wait */
  if (wait < HAL_MAX_DELAY)
 8001774:	68fb      	ldr	r3, [r7, #12]
 8001776:	3301      	adds	r3, #1
 8001778:	d005      	beq.n	8001786 <HAL_Delay+0x26>
  {
    wait += (uint32_t)(uwTickFreq);
 800177a:	4b0a      	ldr	r3, [pc, #40]	; (80017a4 <HAL_Delay+0x44>)
 800177c:	781b      	ldrb	r3, [r3, #0]
 800177e:	001a      	movs	r2, r3
 8001780:	68fb      	ldr	r3, [r7, #12]
 8001782:	189b      	adds	r3, r3, r2
 8001784:	60fb      	str	r3, [r7, #12]
  }
  
  while((HAL_GetTick() - tickstart) < wait)
 8001786:	46c0      	nop			; (mov r8, r8)
 8001788:	f7ff ffe0 	bl	800174c <HAL_GetTick>
 800178c:	0002      	movs	r2, r0
 800178e:	68bb      	ldr	r3, [r7, #8]
 8001790:	1ad3      	subs	r3, r2, r3
 8001792:	68fa      	ldr	r2, [r7, #12]
 8001794:	429a      	cmp	r2, r3
 8001796:	d8f7      	bhi.n	8001788 <HAL_Delay+0x28>
  {
  }
}
 8001798:	46c0      	nop			; (mov r8, r8)
 800179a:	46c0      	nop			; (mov r8, r8)
 800179c:	46bd      	mov	sp, r7
 800179e:	b004      	add	sp, #16
 80017a0:	bd80      	pop	{r7, pc}
 80017a2:	46c0      	nop			; (mov r8, r8)
 80017a4:	20000008 	.word	0x20000008

080017a8 <__NVIC_SetPriority>:
  \param [in]      IRQn  Interrupt number.
  \param [in]  priority  Priority to set.
  \note    The priority cannot be set for every processor exception.
 */
__STATIC_INLINE void __NVIC_SetPriority(IRQn_Type IRQn, uint32_t priority)
{
 80017a8:	b590      	push	{r4, r7, lr}
 80017aa:	b083      	sub	sp, #12
 80017ac:	af00      	add	r7, sp, #0
 80017ae:	0002      	movs	r2, r0
 80017b0:	6039      	str	r1, [r7, #0]
 80017b2:	1dfb      	adds	r3, r7, #7
 80017b4:	701a      	strb	r2, [r3, #0]
  if ((int32_t)(IRQn) >= 0)
 80017b6:	1dfb      	adds	r3, r7, #7
 80017b8:	781b      	ldrb	r3, [r3, #0]
 80017ba:	2b7f      	cmp	r3, #127	; 0x7f
 80017bc:	d828      	bhi.n	8001810 <__NVIC_SetPriority+0x68>
  {
    NVIC->IP[_IP_IDX(IRQn)]  = ((uint32_t)(NVIC->IP[_IP_IDX(IRQn)]  & ~(0xFFUL << _BIT_SHIFT(IRQn))) |
 80017be:	4a2f      	ldr	r2, [pc, #188]	; (800187c <__NVIC_SetPriority+0xd4>)
 80017c0:	1dfb      	adds	r3, r7, #7
 80017c2:	781b      	ldrb	r3, [r3, #0]
 80017c4:	b25b      	sxtb	r3, r3
 80017c6:	089b      	lsrs	r3, r3, #2
 80017c8:	33c0      	adds	r3, #192	; 0xc0
 80017ca:	009b      	lsls	r3, r3, #2
 80017cc:	589b      	ldr	r3, [r3, r2]
 80017ce:	1dfa      	adds	r2, r7, #7
 80017d0:	7812      	ldrb	r2, [r2, #0]
 80017d2:	0011      	movs	r1, r2
 80017d4:	2203      	movs	r2, #3
 80017d6:	400a      	ands	r2, r1
 80017d8:	00d2      	lsls	r2, r2, #3
 80017da:	21ff      	movs	r1, #255	; 0xff
 80017dc:	4091      	lsls	r1, r2
 80017de:	000a      	movs	r2, r1
 80017e0:	43d2      	mvns	r2, r2
 80017e2:	401a      	ands	r2, r3
 80017e4:	0011      	movs	r1, r2
       (((priority << (8U - __NVIC_PRIO_BITS)) & (uint32_t)0xFFUL) << _BIT_SHIFT(IRQn)));
 80017e6:	683b      	ldr	r3, [r7, #0]
 80017e8:	019b      	lsls	r3, r3, #6
 80017ea:	22ff      	movs	r2, #255	; 0xff
 80017ec:	401a      	ands	r2, r3
 80017ee:	1dfb      	adds	r3, r7, #7
 80017f0:	781b      	ldrb	r3, [r3, #0]
 80017f2:	0018      	movs	r0, r3
 80017f4:	2303      	movs	r3, #3
 80017f6:	4003      	ands	r3, r0
 80017f8:	00db      	lsls	r3, r3, #3
 80017fa:	409a      	lsls	r2, r3
    NVIC->IP[_IP_IDX(IRQn)]  = ((uint32_t)(NVIC->IP[_IP_IDX(IRQn)]  & ~(0xFFUL << _BIT_SHIFT(IRQn))) |
 80017fc:	481f      	ldr	r0, [pc, #124]	; (800187c <__NVIC_SetPriority+0xd4>)
 80017fe:	1dfb      	adds	r3, r7, #7
 8001800:	781b      	ldrb	r3, [r3, #0]
 8001802:	b25b      	sxtb	r3, r3
 8001804:	089b      	lsrs	r3, r3, #2
 8001806:	430a      	orrs	r2, r1
 8001808:	33c0      	adds	r3, #192	; 0xc0
 800180a:	009b      	lsls	r3, r3, #2
 800180c:	501a      	str	r2, [r3, r0]
  else
  {
    SCB->SHP[_SHP_IDX(IRQn)] = ((uint32_t)(SCB->SHP[_SHP_IDX(IRQn)] & ~(0xFFUL << _BIT_SHIFT(IRQn))) |
       (((priority << (8U - __NVIC_PRIO_BITS)) & (uint32_t)0xFFUL) << _BIT_SHIFT(IRQn)));
  }
}
 800180e:	e031      	b.n	8001874 <__NVIC_SetPriority+0xcc>
    SCB->SHP[_SHP_IDX(IRQn)] = ((uint32_t)(SCB->SHP[_SHP_IDX(IRQn)] & ~(0xFFUL << _BIT_SHIFT(IRQn))) |
 8001810:	4a1b      	ldr	r2, [pc, #108]	; (8001880 <__NVIC_SetPriority+0xd8>)
 8001812:	1dfb      	adds	r3, r7, #7
 8001814:	781b      	ldrb	r3, [r3, #0]
 8001816:	0019      	movs	r1, r3
 8001818:	230f      	movs	r3, #15
 800181a:	400b      	ands	r3, r1
 800181c:	3b08      	subs	r3, #8
 800181e:	089b      	lsrs	r3, r3, #2
 8001820:	3306      	adds	r3, #6
 8001822:	009b      	lsls	r3, r3, #2
 8001824:	18d3      	adds	r3, r2, r3
 8001826:	3304      	adds	r3, #4
 8001828:	681b      	ldr	r3, [r3, #0]
 800182a:	1dfa      	adds	r2, r7, #7
 800182c:	7812      	ldrb	r2, [r2, #0]
 800182e:	0011      	movs	r1, r2
 8001830:	2203      	movs	r2, #3
 8001832:	400a      	ands	r2, r1
 8001834:	00d2      	lsls	r2, r2, #3
 8001836:	21ff      	movs	r1, #255	; 0xff
 8001838:	4091      	lsls	r1, r2
 800183a:	000a      	movs	r2, r1
 800183c:	43d2      	mvns	r2, r2
 800183e:	401a      	ands	r2, r3
 8001840:	0011      	movs	r1, r2
       (((priority << (8U - __NVIC_PRIO_BITS)) & (uint32_t)0xFFUL) << _BIT_SHIFT(IRQn)));
 8001842:	683b      	ldr	r3, [r7, #0]
 8001844:	019b      	lsls	r3, r3, #6
 8001846:	22ff      	movs	r2, #255	; 0xff
 8001848:	401a      	ands	r2, r3
 800184a:	1dfb      	adds	r3, r7, #7
 800184c:	781b      	ldrb	r3, [r3, #0]
 800184e:	0018      	movs	r0, r3
 8001850:	2303      	movs	r3, #3
 8001852:	4003      	ands	r3, r0
 8001854:	00db      	lsls	r3, r3, #3
 8001856:	409a      	lsls	r2, r3
    SCB->SHP[_SHP_IDX(IRQn)] = ((uint32_t)(SCB->SHP[_SHP_IDX(IRQn)] & ~(0xFFUL << _BIT_SHIFT(IRQn))) |
 8001858:	4809      	ldr	r0, [pc, #36]	; (8001880 <__NVIC_SetPriority+0xd8>)
 800185a:	1dfb      	adds	r3, r7, #7
 800185c:	781b      	ldrb	r3, [r3, #0]
 800185e:	001c      	movs	r4, r3
 8001860:	230f      	movs	r3, #15
 8001862:	4023      	ands	r3, r4
 8001864:	3b08      	subs	r3, #8
 8001866:	089b      	lsrs	r3, r3, #2
 8001868:	430a      	orrs	r2, r1
 800186a:	3306      	adds	r3, #6
 800186c:	009b      	lsls	r3, r3, #2
 800186e:	18c3      	adds	r3, r0, r3
 8001870:	3304      	adds	r3, #4
 8001872:	601a      	str	r2, [r3, #0]
}
 8001874:	46c0      	nop			; (mov r8, r8)
 8001876:	46bd      	mov	sp, r7
 8001878:	b003      	add	sp, #12
 800187a:	bd90      	pop	{r4, r7, pc}
 800187c:	e000e100 	.word	0xe000e100
 8001880:	e000ed00 	.word	0xe000ed00

08001884 <SysTick_Config>:
  \note    When the variable <b>__Vendor_SysTickConfig</b> is set to 1, then the
           function <b>SysTick_Config</b> is not included. In this case, the file <b><i>device</i>.h</b>
           must contain a vendor-specific implementation of this function.
 */
__STATIC_INLINE uint32_t SysTick_Config(uint32_t ticks)
{
 8001884:	b580      	push	{r7, lr}
 8001886:	b082      	sub	sp, #8
 8001888:	af00      	add	r7, sp, #0
 800188a:	6078      	str	r0, [r7, #4]
  if ((ticks - 1UL) > SysTick_LOAD_RELOAD_Msk)
 800188c:	687b      	ldr	r3, [r7, #4]
 800188e:	1e5a      	subs	r2, r3, #1
 8001890:	2380      	movs	r3, #128	; 0x80
 8001892:	045b      	lsls	r3, r3, #17
 8001894:	429a      	cmp	r2, r3
 8001896:	d301      	bcc.n	800189c <SysTick_Config+0x18>
  {
    return (1UL);                                                   /* Reload value impossible */
 8001898:	2301      	movs	r3, #1
 800189a:	e010      	b.n	80018be <SysTick_Config+0x3a>
  }

  SysTick->LOAD  = (uint32_t)(ticks - 1UL);                         /* set reload register */
 800189c:	4b0a      	ldr	r3, [pc, #40]	; (80018c8 <SysTick_Config+0x44>)
 800189e:	687a      	ldr	r2, [r7, #4]
 80018a0:	3a01      	subs	r2, #1
 80018a2:	605a      	str	r2, [r3, #4]
  NVIC_SetPriority (SysTick_IRQn, (1UL << __NVIC_PRIO_BITS) - 1UL); /* set Priority for Systick Interrupt */
 80018a4:	2301      	movs	r3, #1
 80018a6:	425b      	negs	r3, r3
 80018a8:	2103      	movs	r1, #3
 80018aa:	0018      	movs	r0, r3
 80018ac:	f7ff ff7c 	bl	80017a8 <__NVIC_SetPriority>
  SysTick->VAL   = 0UL;                                             /* Load the SysTick Counter Value */
 80018b0:	4b05      	ldr	r3, [pc, #20]	; (80018c8 <SysTick_Config+0x44>)
 80018b2:	2200      	movs	r2, #0
 80018b4:	609a      	str	r2, [r3, #8]
  SysTick->CTRL  = SysTick_CTRL_CLKSOURCE_Msk |
 80018b6:	4b04      	ldr	r3, [pc, #16]	; (80018c8 <SysTick_Config+0x44>)
 80018b8:	2207      	movs	r2, #7
 80018ba:	601a      	str	r2, [r3, #0]
                   SysTick_CTRL_TICKINT_Msk   |
                   SysTick_CTRL_ENABLE_Msk;                         /* Enable SysTick IRQ and SysTick Timer */
  return (0UL);                                                     /* Function successful */
 80018bc:	2300      	movs	r3, #0
}
 80018be:	0018      	movs	r0, r3
 80018c0:	46bd      	mov	sp, r7
 80018c2:	b002      	add	sp, #8
 80018c4:	bd80      	pop	{r7, pc}
 80018c6:	46c0      	nop			; (mov r8, r8)
 80018c8:	e000e010 	.word	0xe000e010

080018cc <HAL_NVIC_SetPriority>:
  *         with stm32f0xx devices, this parameter is a dummy value and it is ignored, because 
  *         no subpriority supported in Cortex M0 based products.   
  * @retval None
  */
void HAL_NVIC_SetPriority(IRQn_Type IRQn, uint32_t PreemptPriority, uint32_t SubPriority)
{ 
 80018cc:	b580      	push	{r7, lr}
 80018ce:	b084      	sub	sp, #16
 80018d0:	af00      	add	r7, sp, #0
 80018d2:	60b9      	str	r1, [r7, #8]
 80018d4:	607a      	str	r2, [r7, #4]
 80018d6:	210f      	movs	r1, #15
 80018d8:	187b      	adds	r3, r7, r1
 80018da:	1c02      	adds	r2, r0, #0
 80018dc:	701a      	strb	r2, [r3, #0]
  /* Check the parameters */
  assert_param(IS_NVIC_PREEMPTION_PRIORITY(PreemptPriority));
  NVIC_SetPriority(IRQn,PreemptPriority);
 80018de:	68ba      	ldr	r2, [r7, #8]
 80018e0:	187b      	adds	r3, r7, r1
 80018e2:	781b      	ldrb	r3, [r3, #0]
 80018e4:	b25b      	sxtb	r3, r3
 80018e6:	0011      	movs	r1, r2
 80018e8:	0018      	movs	r0, r3
 80018ea:	f7ff ff5d 	bl	80017a8 <__NVIC_SetPriority>
}
 80018ee:	46c0      	nop			; (mov r8, r8)
 80018f0:	46bd      	mov	sp, r7
 80018f2:	b004      	add	sp, #16
 80018f4:	bd80      	pop	{r7, pc}

080018f6 <HAL_SYSTICK_Config>:
  * @param  TicksNumb Specifies the ticks Number of ticks between two interrupts.
  * @retval status:  - 0  Function succeeded.
  *                  - 1  Function failed.
  */
uint32_t HAL_SYSTICK_Config(uint32_t TicksNumb)
{
 80018f6:	b580      	push	{r7, lr}
 80018f8:	b082      	sub	sp, #8
 80018fa:	af00      	add	r7, sp, #0
 80018fc:	6078      	str	r0, [r7, #4]
   return SysTick_Config(TicksNumb);
 80018fe:	687b      	ldr	r3, [r7, #4]
 8001900:	0018      	movs	r0, r3
 8001902:	f7ff ffbf 	bl	8001884 <SysTick_Config>
 8001906:	0003      	movs	r3, r0
}
 8001908:	0018      	movs	r0, r3
 800190a:	46bd      	mov	sp, r7
 800190c:	b002      	add	sp, #8
 800190e:	bd80      	pop	{r7, pc}

08001910 <HAL_GPIO_Init>:
  * @param  GPIO_Init pointer to a GPIO_InitTypeDef structure that contains
  *         the configuration information for the specified GPIO peripheral.
  * @retval None
  */
void HAL_GPIO_Init(GPIO_TypeDef  *GPIOx, GPIO_InitTypeDef *GPIO_Init)
{
 8001910:	b580      	push	{r7, lr}
 8001912:	b086      	sub	sp, #24
 8001914:	af00      	add	r7, sp, #0
 8001916:	6078      	str	r0, [r7, #4]
 8001918:	6039      	str	r1, [r7, #0]
  uint32_t position = 0x00u;
 800191a:	2300      	movs	r3, #0
 800191c:	617b      	str	r3, [r7, #20]
  assert_param(IS_GPIO_ALL_INSTANCE(GPIOx));
  assert_param(IS_GPIO_PIN(GPIO_Init->Pin));
  assert_param(IS_GPIO_MODE(GPIO_Init->Mode));

  /* Configure the port pins */
  while (((GPIO_Init->Pin) >> position) != 0x00u)
 800191e:	e155      	b.n	8001bcc <HAL_GPIO_Init+0x2bc>
  {
    /* Get current io position */
    iocurrent = (GPIO_Init->Pin) & (1uL << position);
 8001920:	683b      	ldr	r3, [r7, #0]
 8001922:	681b      	ldr	r3, [r3, #0]
 8001924:	2101      	movs	r1, #1
 8001926:	697a      	ldr	r2, [r7, #20]
 8001928:	4091      	lsls	r1, r2
 800192a:	000a      	movs	r2, r1
 800192c:	4013      	ands	r3, r2
 800192e:	60fb      	str	r3, [r7, #12]

    if (iocurrent != 0x00u)
 8001930:	68fb      	ldr	r3, [r7, #12]
 8001932:	2b00      	cmp	r3, #0
 8001934:	d100      	bne.n	8001938 <HAL_GPIO_Init+0x28>
 8001936:	e146      	b.n	8001bc6 <HAL_GPIO_Init+0x2b6>
    {
      /*--------------------- GPIO Mode Configuration ------------------------*/
      /* In case of Output or Alternate function mode selection */
      if(((GPIO_Init->Mode & GPIO_MODE) == MODE_OUTPUT) ||
 8001938:	683b      	ldr	r3, [r7, #0]
 800193a:	685b      	ldr	r3, [r3, #4]
 800193c:	2203      	movs	r2, #3
 800193e:	4013      	ands	r3, r2
 8001940:	2b01      	cmp	r3, #1
 8001942:	d005      	beq.n	8001950 <HAL_GPIO_Init+0x40>
         ((GPIO_Init->Mode & GPIO_MODE) == MODE_AF))
 8001944:	683b      	ldr	r3, [r7, #0]
 8001946:	685b      	ldr	r3, [r3, #4]
 8001948:	2203      	movs	r2, #3
 800194a:	4013      	ands	r3, r2
      if(((GPIO_Init->Mode & GPIO_MODE) == MODE_OUTPUT) ||
 800194c:	2b02      	cmp	r3, #2
 800194e:	d130      	bne.n	80019b2 <HAL_GPIO_Init+0xa2>
      {
        /* Check the Speed parameter */
        assert_param(IS_GPIO_SPEED(GPIO_Init->Speed));
        /* Configure the IO Speed */
        temp = GPIOx->OSPEEDR;
 8001950:	687b      	ldr	r3, [r7, #4]
 8001952:	689b      	ldr	r3, [r3, #8]
 8001954:	613b      	str	r3, [r7, #16]
        temp &= ~(GPIO_OSPEEDER_OSPEEDR0 << (position * 2u));
 8001956:	697b      	ldr	r3, [r7, #20]
 8001958:	005b      	lsls	r3, r3, #1
 800195a:	2203      	movs	r2, #3
 800195c:	409a      	lsls	r2, r3
 800195e:	0013      	movs	r3, r2
 8001960:	43da      	mvns	r2, r3
 8001962:	693b      	ldr	r3, [r7, #16]
 8001964:	4013      	ands	r3, r2
 8001966:	613b      	str	r3, [r7, #16]
        temp |= (GPIO_Init->Speed << (position * 2u));
 8001968:	683b      	ldr	r3, [r7, #0]
 800196a:	68da      	ldr	r2, [r3, #12]
 800196c:	697b      	ldr	r3, [r7, #20]
 800196e:	005b      	lsls	r3, r3, #1
 8001970:	409a      	lsls	r2, r3
 8001972:	0013      	movs	r3, r2
 8001974:	693a      	ldr	r2, [r7, #16]
 8001976:	4313      	orrs	r3, r2
 8001978:	613b      	str	r3, [r7, #16]
        GPIOx->OSPEEDR = temp;
 800197a:	687b      	ldr	r3, [r7, #4]
 800197c:	693a      	ldr	r2, [r7, #16]
 800197e:	609a      	str	r2, [r3, #8]

        /* Configure the IO Output Type */
        temp = GPIOx->OTYPER;
 8001980:	687b      	ldr	r3, [r7, #4]
 8001982:	685b      	ldr	r3, [r3, #4]
 8001984:	613b      	str	r3, [r7, #16]
        temp &= ~(GPIO_OTYPER_OT_0 << position) ;
 8001986:	2201      	movs	r2, #1
 8001988:	697b      	ldr	r3, [r7, #20]
 800198a:	409a      	lsls	r2, r3
 800198c:	0013      	movs	r3, r2
 800198e:	43da      	mvns	r2, r3
 8001990:	693b      	ldr	r3, [r7, #16]
 8001992:	4013      	ands	r3, r2
 8001994:	613b      	str	r3, [r7, #16]
        temp |= (((GPIO_Init->Mode & OUTPUT_TYPE) >> OUTPUT_TYPE_Pos) << position);
 8001996:	683b      	ldr	r3, [r7, #0]
 8001998:	685b      	ldr	r3, [r3, #4]
 800199a:	091b      	lsrs	r3, r3, #4
 800199c:	2201      	movs	r2, #1
 800199e:	401a      	ands	r2, r3
 80019a0:	697b      	ldr	r3, [r7, #20]
 80019a2:	409a      	lsls	r2, r3
 80019a4:	0013      	movs	r3, r2
 80019a6:	693a      	ldr	r2, [r7, #16]
 80019a8:	4313      	orrs	r3, r2
 80019aa:	613b      	str	r3, [r7, #16]
        GPIOx->OTYPER = temp;
 80019ac:	687b      	ldr	r3, [r7, #4]
 80019ae:	693a      	ldr	r2, [r7, #16]
 80019b0:	605a      	str	r2, [r3, #4]
      }
      
      if((GPIO_Init->Mode & GPIO_MODE) != MODE_ANALOG)
 80019b2:	683b      	ldr	r3, [r7, #0]
 80019b4:	685b      	ldr	r3, [r3, #4]
 80019b6:	2203      	movs	r2, #3
 80019b8:	4013      	ands	r3, r2
 80019ba:	2b03      	cmp	r3, #3
 80019bc:	d017      	beq.n	80019ee <HAL_GPIO_Init+0xde>
      {
        /* Check the Pull parameter */
        assert_param(IS_GPIO_PULL(GPIO_Init->Pull));

        /* Activate the Pull-up or Pull down resistor for the current IO */
        temp = GPIOx->PUPDR;
 80019be:	687b      	ldr	r3, [r7, #4]
 80019c0:	68db      	ldr	r3, [r3, #12]
 80019c2:	613b      	str	r3, [r7, #16]
        temp &= ~(GPIO_PUPDR_PUPDR0 << (position * 2u));
 80019c4:	697b      	ldr	r3, [r7, #20]
 80019c6:	005b      	lsls	r3, r3, #1
 80019c8:	2203      	movs	r2, #3
 80019ca:	409a      	lsls	r2, r3
 80019cc:	0013      	movs	r3, r2
 80019ce:	43da      	mvns	r2, r3
 80019d0:	693b      	ldr	r3, [r7, #16]
 80019d2:	4013      	ands	r3, r2
 80019d4:	613b      	str	r3, [r7, #16]
        temp |= ((GPIO_Init->Pull) << (position * 2u));
 80019d6:	683b      	ldr	r3, [r7, #0]
 80019d8:	689a      	ldr	r2, [r3, #8]
 80019da:	697b      	ldr	r3, [r7, #20]
 80019dc:	005b      	lsls	r3, r3, #1
 80019de:	409a      	lsls	r2, r3
 80019e0:	0013      	movs	r3, r2
 80019e2:	693a      	ldr	r2, [r7, #16]
 80019e4:	4313      	orrs	r3, r2
 80019e6:	613b      	str	r3, [r7, #16]
        GPIOx->PUPDR = temp;
 80019e8:	687b      	ldr	r3, [r7, #4]
 80019ea:	693a      	ldr	r2, [r7, #16]
 80019ec:	60da      	str	r2, [r3, #12]
      }

      /* In case of Alternate function mode selection */
      if((GPIO_Init->Mode & GPIO_MODE) == MODE_AF)
 80019ee:	683b      	ldr	r3, [r7, #0]
 80019f0:	685b      	ldr	r3, [r3, #4]
 80019f2:	2203      	movs	r2, #3
 80019f4:	4013      	ands	r3, r2
 80019f6:	2b02      	cmp	r3, #2
 80019f8:	d123      	bne.n	8001a42 <HAL_GPIO_Init+0x132>
        /* Check the Alternate function parameters */
        assert_param(IS_GPIO_AF_INSTANCE(GPIOx));
        assert_param(IS_GPIO_AF(GPIO_Init->Alternate));

        /* Configure Alternate function mapped with the current IO */
        temp = GPIOx->AFR[position >> 3u];
 80019fa:	697b      	ldr	r3, [r7, #20]
 80019fc:	08da      	lsrs	r2, r3, #3
 80019fe:	687b      	ldr	r3, [r7, #4]
 8001a00:	3208      	adds	r2, #8
 8001a02:	0092      	lsls	r2, r2, #2
 8001a04:	58d3      	ldr	r3, [r2, r3]
 8001a06:	613b      	str	r3, [r7, #16]
        temp &= ~(0xFu << ((position & 0x07u) * 4u));
 8001a08:	697b      	ldr	r3, [r7, #20]
 8001a0a:	2207      	movs	r2, #7
 8001a0c:	4013      	ands	r3, r2
 8001a0e:	009b      	lsls	r3, r3, #2
 8001a10:	220f      	movs	r2, #15
 8001a12:	409a      	lsls	r2, r3
 8001a14:	0013      	movs	r3, r2
 8001a16:	43da      	mvns	r2, r3
 8001a18:	693b      	ldr	r3, [r7, #16]
 8001a1a:	4013      	ands	r3, r2
 8001a1c:	613b      	str	r3, [r7, #16]
        temp |= ((GPIO_Init->Alternate) << ((position & 0x07u) * 4u));
 8001a1e:	683b      	ldr	r3, [r7, #0]
 8001a20:	691a      	ldr	r2, [r3, #16]
 8001a22:	697b      	ldr	r3, [r7, #20]
 8001a24:	2107      	movs	r1, #7
 8001a26:	400b      	ands	r3, r1
 8001a28:	009b      	lsls	r3, r3, #2
 8001a2a:	409a      	lsls	r2, r3
 8001a2c:	0013      	movs	r3, r2
 8001a2e:	693a      	ldr	r2, [r7, #16]
 8001a30:	4313      	orrs	r3, r2
 8001a32:	613b      	str	r3, [r7, #16]
        GPIOx->AFR[position >> 3u] = temp;
 8001a34:	697b      	ldr	r3, [r7, #20]
 8001a36:	08da      	lsrs	r2, r3, #3
 8001a38:	687b      	ldr	r3, [r7, #4]
 8001a3a:	3208      	adds	r2, #8
 8001a3c:	0092      	lsls	r2, r2, #2
 8001a3e:	6939      	ldr	r1, [r7, #16]
 8001a40:	50d1      	str	r1, [r2, r3]
      }

      /* Configure IO Direction mode (Input, Output, Alternate or Analog) */
      temp = GPIOx->MODER;
 8001a42:	687b      	ldr	r3, [r7, #4]
 8001a44:	681b      	ldr	r3, [r3, #0]
 8001a46:	613b      	str	r3, [r7, #16]
      temp &= ~(GPIO_MODER_MODER0 << (position * 2u));
 8001a48:	697b      	ldr	r3, [r7, #20]
 8001a4a:	005b      	lsls	r3, r3, #1
 8001a4c:	2203      	movs	r2, #3
 8001a4e:	409a      	lsls	r2, r3
 8001a50:	0013      	movs	r3, r2
 8001a52:	43da      	mvns	r2, r3
 8001a54:	693b      	ldr	r3, [r7, #16]
 8001a56:	4013      	ands	r3, r2
 8001a58:	613b      	str	r3, [r7, #16]
      temp |= ((GPIO_Init->Mode & GPIO_MODE) << (position * 2u));
 8001a5a:	683b      	ldr	r3, [r7, #0]
 8001a5c:	685b      	ldr	r3, [r3, #4]
 8001a5e:	2203      	movs	r2, #3
 8001a60:	401a      	ands	r2, r3
 8001a62:	697b      	ldr	r3, [r7, #20]
 8001a64:	005b      	lsls	r3, r3, #1
 8001a66:	409a      	lsls	r2, r3
 8001a68:	0013      	movs	r3, r2
 8001a6a:	693a      	ldr	r2, [r7, #16]
 8001a6c:	4313      	orrs	r3, r2
 8001a6e:	613b      	str	r3, [r7, #16]
      GPIOx->MODER = temp;
 8001a70:	687b      	ldr	r3, [r7, #4]
 8001a72:	693a      	ldr	r2, [r7, #16]
 8001a74:	601a      	str	r2, [r3, #0]

      /*--------------------- EXTI Mode Configuration ------------------------*/
      /* Configure the External Interrupt or event for the current IO */
      if((GPIO_Init->Mode & EXTI_MODE) != 0x00u)
 8001a76:	683b      	ldr	r3, [r7, #0]
 8001a78:	685a      	ldr	r2, [r3, #4]
 8001a7a:	23c0      	movs	r3, #192	; 0xc0
 8001a7c:	029b      	lsls	r3, r3, #10
 8001a7e:	4013      	ands	r3, r2
 8001a80:	d100      	bne.n	8001a84 <HAL_GPIO_Init+0x174>
 8001a82:	e0a0      	b.n	8001bc6 <HAL_GPIO_Init+0x2b6>
      {
        /* Enable SYSCFG Clock */
        __HAL_RCC_SYSCFG_CLK_ENABLE();
 8001a84:	4b57      	ldr	r3, [pc, #348]	; (8001be4 <HAL_GPIO_Init+0x2d4>)
 8001a86:	699a      	ldr	r2, [r3, #24]
 8001a88:	4b56      	ldr	r3, [pc, #344]	; (8001be4 <HAL_GPIO_Init+0x2d4>)
 8001a8a:	2101      	movs	r1, #1
 8001a8c:	430a      	orrs	r2, r1
 8001a8e:	619a      	str	r2, [r3, #24]
 8001a90:	4b54      	ldr	r3, [pc, #336]	; (8001be4 <HAL_GPIO_Init+0x2d4>)
 8001a92:	699b      	ldr	r3, [r3, #24]
 8001a94:	2201      	movs	r2, #1
 8001a96:	4013      	ands	r3, r2
 8001a98:	60bb      	str	r3, [r7, #8]
 8001a9a:	68bb      	ldr	r3, [r7, #8]

        temp = SYSCFG->EXTICR[position >> 2u];
 8001a9c:	4a52      	ldr	r2, [pc, #328]	; (8001be8 <HAL_GPIO_Init+0x2d8>)
 8001a9e:	697b      	ldr	r3, [r7, #20]
 8001aa0:	089b      	lsrs	r3, r3, #2
 8001aa2:	3302      	adds	r3, #2
 8001aa4:	009b      	lsls	r3, r3, #2
 8001aa6:	589b      	ldr	r3, [r3, r2]
 8001aa8:	613b      	str	r3, [r7, #16]
        temp &= ~(0x0FuL << (4u * (position & 0x03u)));
 8001aaa:	697b      	ldr	r3, [r7, #20]
 8001aac:	2203      	movs	r2, #3
 8001aae:	4013      	ands	r3, r2
 8001ab0:	009b      	lsls	r3, r3, #2
 8001ab2:	220f      	movs	r2, #15
 8001ab4:	409a      	lsls	r2, r3
 8001ab6:	0013      	movs	r3, r2
 8001ab8:	43da      	mvns	r2, r3
 8001aba:	693b      	ldr	r3, [r7, #16]
 8001abc:	4013      	ands	r3, r2
 8001abe:	613b      	str	r3, [r7, #16]
        temp |= (GPIO_GET_INDEX(GPIOx) << (4u * (position & 0x03u)));
 8001ac0:	687a      	ldr	r2, [r7, #4]
 8001ac2:	2390      	movs	r3, #144	; 0x90
 8001ac4:	05db      	lsls	r3, r3, #23
 8001ac6:	429a      	cmp	r2, r3
 8001ac8:	d019      	beq.n	8001afe <HAL_GPIO_Init+0x1ee>
 8001aca:	687b      	ldr	r3, [r7, #4]
 8001acc:	4a47      	ldr	r2, [pc, #284]	; (8001bec <HAL_GPIO_Init+0x2dc>)
 8001ace:	4293      	cmp	r3, r2
 8001ad0:	d013      	beq.n	8001afa <HAL_GPIO_Init+0x1ea>
 8001ad2:	687b      	ldr	r3, [r7, #4]
 8001ad4:	4a46      	ldr	r2, [pc, #280]	; (8001bf0 <HAL_GPIO_Init+0x2e0>)
 8001ad6:	4293      	cmp	r3, r2
 8001ad8:	d00d      	beq.n	8001af6 <HAL_GPIO_Init+0x1e6>
 8001ada:	687b      	ldr	r3, [r7, #4]
 8001adc:	4a45      	ldr	r2, [pc, #276]	; (8001bf4 <HAL_GPIO_Init+0x2e4>)
 8001ade:	4293      	cmp	r3, r2
 8001ae0:	d007      	beq.n	8001af2 <HAL_GPIO_Init+0x1e2>
 8001ae2:	687b      	ldr	r3, [r7, #4]
 8001ae4:	4a44      	ldr	r2, [pc, #272]	; (8001bf8 <HAL_GPIO_Init+0x2e8>)
 8001ae6:	4293      	cmp	r3, r2
 8001ae8:	d101      	bne.n	8001aee <HAL_GPIO_Init+0x1de>
 8001aea:	2304      	movs	r3, #4
 8001aec:	e008      	b.n	8001b00 <HAL_GPIO_Init+0x1f0>
 8001aee:	2305      	movs	r3, #5
 8001af0:	e006      	b.n	8001b00 <HAL_GPIO_Init+0x1f0>
 8001af2:	2303      	movs	r3, #3
 8001af4:	e004      	b.n	8001b00 <HAL_GPIO_Init+0x1f0>
 8001af6:	2302      	movs	r3, #2
 8001af8:	e002      	b.n	8001b00 <HAL_GPIO_Init+0x1f0>
 8001afa:	2301      	movs	r3, #1
 8001afc:	e000      	b.n	8001b00 <HAL_GPIO_Init+0x1f0>
 8001afe:	2300      	movs	r3, #0
 8001b00:	697a      	ldr	r2, [r7, #20]
 8001b02:	2103      	movs	r1, #3
 8001b04:	400a      	ands	r2, r1
 8001b06:	0092      	lsls	r2, r2, #2
 8001b08:	4093      	lsls	r3, r2
 8001b0a:	693a      	ldr	r2, [r7, #16]
 8001b0c:	4313      	orrs	r3, r2
 8001b0e:	613b      	str	r3, [r7, #16]
        SYSCFG->EXTICR[position >> 2u] = temp;
 8001b10:	4935      	ldr	r1, [pc, #212]	; (8001be8 <HAL_GPIO_Init+0x2d8>)
 8001b12:	697b      	ldr	r3, [r7, #20]
 8001b14:	089b      	lsrs	r3, r3, #2
 8001b16:	3302      	adds	r3, #2
 8001b18:	009b      	lsls	r3, r3, #2
 8001b1a:	693a      	ldr	r2, [r7, #16]
 8001b1c:	505a      	str	r2, [r3, r1]

        /* Clear EXTI line configuration */
        temp = EXTI->IMR;
 8001b1e:	4b37      	ldr	r3, [pc, #220]	; (8001bfc <HAL_GPIO_Init+0x2ec>)
 8001b20:	681b      	ldr	r3, [r3, #0]
 8001b22:	613b      	str	r3, [r7, #16]
        temp &= ~(iocurrent);
 8001b24:	68fb      	ldr	r3, [r7, #12]
 8001b26:	43da      	mvns	r2, r3
 8001b28:	693b      	ldr	r3, [r7, #16]
 8001b2a:	4013      	ands	r3, r2
 8001b2c:	613b      	str	r3, [r7, #16]
        if((GPIO_Init->Mode & EXTI_IT) != 0x00u)
 8001b2e:	683b      	ldr	r3, [r7, #0]
 8001b30:	685a      	ldr	r2, [r3, #4]
 8001b32:	2380      	movs	r3, #128	; 0x80
 8001b34:	025b      	lsls	r3, r3, #9
 8001b36:	4013      	ands	r3, r2
 8001b38:	d003      	beq.n	8001b42 <HAL_GPIO_Init+0x232>
        {
          temp |= iocurrent;
 8001b3a:	693a      	ldr	r2, [r7, #16]
 8001b3c:	68fb      	ldr	r3, [r7, #12]
 8001b3e:	4313      	orrs	r3, r2
 8001b40:	613b      	str	r3, [r7, #16]
        }
        EXTI->IMR = temp;
 8001b42:	4b2e      	ldr	r3, [pc, #184]	; (8001bfc <HAL_GPIO_Init+0x2ec>)
 8001b44:	693a      	ldr	r2, [r7, #16]
 8001b46:	601a      	str	r2, [r3, #0]

        temp = EXTI->EMR;
 8001b48:	4b2c      	ldr	r3, [pc, #176]	; (8001bfc <HAL_GPIO_Init+0x2ec>)
 8001b4a:	685b      	ldr	r3, [r3, #4]
 8001b4c:	613b      	str	r3, [r7, #16]
        temp &= ~(iocurrent);
 8001b4e:	68fb      	ldr	r3, [r7, #12]
 8001b50:	43da      	mvns	r2, r3
 8001b52:	693b      	ldr	r3, [r7, #16]
 8001b54:	4013      	ands	r3, r2
 8001b56:	613b      	str	r3, [r7, #16]
        if((GPIO_Init->Mode & EXTI_EVT) != 0x00u)
 8001b58:	683b      	ldr	r3, [r7, #0]
 8001b5a:	685a      	ldr	r2, [r3, #4]
 8001b5c:	2380      	movs	r3, #128	; 0x80
 8001b5e:	029b      	lsls	r3, r3, #10
 8001b60:	4013      	ands	r3, r2
 8001b62:	d003      	beq.n	8001b6c <HAL_GPIO_Init+0x25c>
        {
          temp |= iocurrent;
 8001b64:	693a      	ldr	r2, [r7, #16]
 8001b66:	68fb      	ldr	r3, [r7, #12]
 8001b68:	4313      	orrs	r3, r2
 8001b6a:	613b      	str	r3, [r7, #16]
        }
        EXTI->EMR = temp;
 8001b6c:	4b23      	ldr	r3, [pc, #140]	; (8001bfc <HAL_GPIO_Init+0x2ec>)
 8001b6e:	693a      	ldr	r2, [r7, #16]
 8001b70:	605a      	str	r2, [r3, #4]

        /* Clear Rising Falling edge configuration */
        temp = EXTI->RTSR;
 8001b72:	4b22      	ldr	r3, [pc, #136]	; (8001bfc <HAL_GPIO_Init+0x2ec>)
 8001b74:	689b      	ldr	r3, [r3, #8]
 8001b76:	613b      	str	r3, [r7, #16]
        temp &= ~(iocurrent);
 8001b78:	68fb      	ldr	r3, [r7, #12]
 8001b7a:	43da      	mvns	r2, r3
 8001b7c:	693b      	ldr	r3, [r7, #16]
 8001b7e:	4013      	ands	r3, r2
 8001b80:	613b      	str	r3, [r7, #16]
        if((GPIO_Init->Mode & TRIGGER_RISING) != 0x00u)
 8001b82:	683b      	ldr	r3, [r7, #0]
 8001b84:	685a      	ldr	r2, [r3, #4]
 8001b86:	2380      	movs	r3, #128	; 0x80
 8001b88:	035b      	lsls	r3, r3, #13
 8001b8a:	4013      	ands	r3, r2
 8001b8c:	d003      	beq.n	8001b96 <HAL_GPIO_Init+0x286>
        {
          temp |= iocurrent;
 8001b8e:	693a      	ldr	r2, [r7, #16]
 8001b90:	68fb      	ldr	r3, [r7, #12]
 8001b92:	4313      	orrs	r3, r2
 8001b94:	613b      	str	r3, [r7, #16]
        }
        EXTI->RTSR = temp;
 8001b96:	4b19      	ldr	r3, [pc, #100]	; (8001bfc <HAL_GPIO_Init+0x2ec>)
 8001b98:	693a      	ldr	r2, [r7, #16]
 8001b9a:	609a      	str	r2, [r3, #8]

        temp = EXTI->FTSR;
 8001b9c:	4b17      	ldr	r3, [pc, #92]	; (8001bfc <HAL_GPIO_Init+0x2ec>)
 8001b9e:	68db      	ldr	r3, [r3, #12]
 8001ba0:	613b      	str	r3, [r7, #16]
        temp &= ~(iocurrent);
 8001ba2:	68fb      	ldr	r3, [r7, #12]
 8001ba4:	43da      	mvns	r2, r3
 8001ba6:	693b      	ldr	r3, [r7, #16]
 8001ba8:	4013      	ands	r3, r2
 8001baa:	613b      	str	r3, [r7, #16]
        if((GPIO_Init->Mode & TRIGGER_FALLING) != 0x00u)
 8001bac:	683b      	ldr	r3, [r7, #0]
 8001bae:	685a      	ldr	r2, [r3, #4]
 8001bb0:	2380      	movs	r3, #128	; 0x80
 8001bb2:	039b      	lsls	r3, r3, #14
 8001bb4:	4013      	ands	r3, r2
 8001bb6:	d003      	beq.n	8001bc0 <HAL_GPIO_Init+0x2b0>
        {
          temp |= iocurrent;
 8001bb8:	693a      	ldr	r2, [r7, #16]
 8001bba:	68fb      	ldr	r3, [r7, #12]
 8001bbc:	4313      	orrs	r3, r2
 8001bbe:	613b      	str	r3, [r7, #16]
        }
        EXTI->FTSR = temp;
 8001bc0:	4b0e      	ldr	r3, [pc, #56]	; (8001bfc <HAL_GPIO_Init+0x2ec>)
 8001bc2:	693a      	ldr	r2, [r7, #16]
 8001bc4:	60da      	str	r2, [r3, #12]
      }
    }

    position++;
 8001bc6:	697b      	ldr	r3, [r7, #20]
 8001bc8:	3301      	adds	r3, #1
 8001bca:	617b      	str	r3, [r7, #20]
  while (((GPIO_Init->Pin) >> position) != 0x00u)
 8001bcc:	683b      	ldr	r3, [r7, #0]
 8001bce:	681a      	ldr	r2, [r3, #0]
 8001bd0:	697b      	ldr	r3, [r7, #20]
 8001bd2:	40da      	lsrs	r2, r3
 8001bd4:	1e13      	subs	r3, r2, #0
 8001bd6:	d000      	beq.n	8001bda <HAL_GPIO_Init+0x2ca>
 8001bd8:	e6a2      	b.n	8001920 <HAL_GPIO_Init+0x10>
  } 
}
 8001bda:	46c0      	nop			; (mov r8, r8)
 8001bdc:	46c0      	nop			; (mov r8, r8)
 8001bde:	46bd      	mov	sp, r7
 8001be0:	b006      	add	sp, #24
 8001be2:	bd80      	pop	{r7, pc}
 8001be4:	40021000 	.word	0x40021000
 8001be8:	40010000 	.word	0x40010000
 8001bec:	48000400 	.word	0x48000400
 8001bf0:	48000800 	.word	0x48000800
 8001bf4:	48000c00 	.word	0x48000c00
 8001bf8:	48001000 	.word	0x48001000
 8001bfc:	40010400 	.word	0x40010400

08001c00 <HAL_GPIO_WritePin>:
  *            @arg GPIO_PIN_RESET: to clear the port pin
  *            @arg GPIO_PIN_SET: to set the port pin
  * @retval None
  */
void HAL_GPIO_WritePin(GPIO_TypeDef* GPIOx, uint16_t GPIO_Pin, GPIO_PinState PinState)
{
 8001c00:	b580      	push	{r7, lr}
 8001c02:	b082      	sub	sp, #8
 8001c04:	af00      	add	r7, sp, #0
 8001c06:	6078      	str	r0, [r7, #4]
 8001c08:	0008      	movs	r0, r1
 8001c0a:	0011      	movs	r1, r2
 8001c0c:	1cbb      	adds	r3, r7, #2
 8001c0e:	1c02      	adds	r2, r0, #0
 8001c10:	801a      	strh	r2, [r3, #0]
 8001c12:	1c7b      	adds	r3, r7, #1
 8001c14:	1c0a      	adds	r2, r1, #0
 8001c16:	701a      	strb	r2, [r3, #0]
  /* Check the parameters */
  assert_param(IS_GPIO_PIN(GPIO_Pin));
  assert_param(IS_GPIO_PIN_ACTION(PinState));

  if (PinState != GPIO_PIN_RESET)
 8001c18:	1c7b      	adds	r3, r7, #1
 8001c1a:	781b      	ldrb	r3, [r3, #0]
 8001c1c:	2b00      	cmp	r3, #0
 8001c1e:	d004      	beq.n	8001c2a <HAL_GPIO_WritePin+0x2a>
  {
    GPIOx->BSRR = (uint32_t)GPIO_Pin;
 8001c20:	1cbb      	adds	r3, r7, #2
 8001c22:	881a      	ldrh	r2, [r3, #0]
 8001c24:	687b      	ldr	r3, [r7, #4]
 8001c26:	619a      	str	r2, [r3, #24]
  }
  else
  {
    GPIOx->BRR = (uint32_t)GPIO_Pin;
  }
}
 8001c28:	e003      	b.n	8001c32 <HAL_GPIO_WritePin+0x32>
    GPIOx->BRR = (uint32_t)GPIO_Pin;
 8001c2a:	1cbb      	adds	r3, r7, #2
 8001c2c:	881a      	ldrh	r2, [r3, #0]
 8001c2e:	687b      	ldr	r3, [r7, #4]
 8001c30:	629a      	str	r2, [r3, #40]	; 0x28
}
 8001c32:	46c0      	nop			; (mov r8, r8)
 8001c34:	46bd      	mov	sp, r7
 8001c36:	b002      	add	sp, #8
 8001c38:	bd80      	pop	{r7, pc}
	...

08001c3c <HAL_RCC_OscConfig>:
  *         supported by this macro. User should request a transition to HSE Off
  *         first and then HSE On or HSE Bypass.
  * @retval HAL status
  */
HAL_StatusTypeDef HAL_RCC_OscConfig(RCC_OscInitTypeDef  *RCC_OscInitStruct)
{
 8001c3c:	b580      	push	{r7, lr}
 8001c3e:	b088      	sub	sp, #32
 8001c40:	af00      	add	r7, sp, #0
 8001c42:	6078      	str	r0, [r7, #4]
  uint32_t tickstart;
  uint32_t pll_config;
  uint32_t pll_config2;

  /* Check Null pointer */
  if(RCC_OscInitStruct == NULL)
 8001c44:	687b      	ldr	r3, [r7, #4]
 8001c46:	2b00      	cmp	r3, #0
 8001c48:	d102      	bne.n	8001c50 <HAL_RCC_OscConfig+0x14>
  {
    return HAL_ERROR;
 8001c4a:	2301      	movs	r3, #1
 8001c4c:	f000 fb76 	bl	800233c <HAL_RCC_OscConfig+0x700>

  /* Check the parameters */
  assert_param(IS_RCC_OSCILLATORTYPE(RCC_OscInitStruct->OscillatorType));

  /*------------------------------- HSE Configuration ------------------------*/ 
  if(((RCC_OscInitStruct->OscillatorType) & RCC_OSCILLATORTYPE_HSE) == RCC_OSCILLATORTYPE_HSE)
 8001c50:	687b      	ldr	r3, [r7, #4]
 8001c52:	681b      	ldr	r3, [r3, #0]
 8001c54:	2201      	movs	r2, #1
 8001c56:	4013      	ands	r3, r2
 8001c58:	d100      	bne.n	8001c5c <HAL_RCC_OscConfig+0x20>
 8001c5a:	e08e      	b.n	8001d7a <HAL_RCC_OscConfig+0x13e>
  {
    /* Check the parameters */
    assert_param(IS_RCC_HSE(RCC_OscInitStruct->HSEState));

    /* When the HSE is used as system clock or clock source for PLL in these cases it is not allowed to be disabled */
    if((__HAL_RCC_GET_SYSCLK_SOURCE() == RCC_SYSCLKSOURCE_STATUS_HSE) 
 8001c5c:	4bc5      	ldr	r3, [pc, #788]	; (8001f74 <HAL_RCC_OscConfig+0x338>)
 8001c5e:	685b      	ldr	r3, [r3, #4]
 8001c60:	220c      	movs	r2, #12
 8001c62:	4013      	ands	r3, r2
 8001c64:	2b04      	cmp	r3, #4
 8001c66:	d00e      	beq.n	8001c86 <HAL_RCC_OscConfig+0x4a>
       || ((__HAL_RCC_GET_SYSCLK_SOURCE() == RCC_SYSCLKSOURCE_STATUS_PLLCLK) && (__HAL_RCC_GET_PLL_OSCSOURCE() == RCC_PLLSOURCE_HSE)))
 8001c68:	4bc2      	ldr	r3, [pc, #776]	; (8001f74 <HAL_RCC_OscConfig+0x338>)
 8001c6a:	685b      	ldr	r3, [r3, #4]
 8001c6c:	220c      	movs	r2, #12
 8001c6e:	4013      	ands	r3, r2
 8001c70:	2b08      	cmp	r3, #8
 8001c72:	d117      	bne.n	8001ca4 <HAL_RCC_OscConfig+0x68>
 8001c74:	4bbf      	ldr	r3, [pc, #764]	; (8001f74 <HAL_RCC_OscConfig+0x338>)
 8001c76:	685a      	ldr	r2, [r3, #4]
 8001c78:	23c0      	movs	r3, #192	; 0xc0
 8001c7a:	025b      	lsls	r3, r3, #9
 8001c7c:	401a      	ands	r2, r3
 8001c7e:	2380      	movs	r3, #128	; 0x80
 8001c80:	025b      	lsls	r3, r3, #9
 8001c82:	429a      	cmp	r2, r3
 8001c84:	d10e      	bne.n	8001ca4 <HAL_RCC_OscConfig+0x68>
    {
      if((__HAL_RCC_GET_FLAG(RCC_FLAG_HSERDY) != RESET) && (RCC_OscInitStruct->HSEState == RCC_HSE_OFF))
 8001c86:	4bbb      	ldr	r3, [pc, #748]	; (8001f74 <HAL_RCC_OscConfig+0x338>)
 8001c88:	681a      	ldr	r2, [r3, #0]
 8001c8a:	2380      	movs	r3, #128	; 0x80
 8001c8c:	029b      	lsls	r3, r3, #10
 8001c8e:	4013      	ands	r3, r2
 8001c90:	d100      	bne.n	8001c94 <HAL_RCC_OscConfig+0x58>
 8001c92:	e071      	b.n	8001d78 <HAL_RCC_OscConfig+0x13c>
 8001c94:	687b      	ldr	r3, [r7, #4]
 8001c96:	685b      	ldr	r3, [r3, #4]
 8001c98:	2b00      	cmp	r3, #0
 8001c9a:	d000      	beq.n	8001c9e <HAL_RCC_OscConfig+0x62>
 8001c9c:	e06c      	b.n	8001d78 <HAL_RCC_OscConfig+0x13c>
      {
        return HAL_ERROR;
 8001c9e:	2301      	movs	r3, #1
 8001ca0:	f000 fb4c 	bl	800233c <HAL_RCC_OscConfig+0x700>
      }
    }
    else
    {
      /* Set the new HSE configuration ---------------------------------------*/
      __HAL_RCC_HSE_CONFIG(RCC_OscInitStruct->HSEState);
 8001ca4:	687b      	ldr	r3, [r7, #4]
 8001ca6:	685b      	ldr	r3, [r3, #4]
 8001ca8:	2b01      	cmp	r3, #1
 8001caa:	d107      	bne.n	8001cbc <HAL_RCC_OscConfig+0x80>
 8001cac:	4bb1      	ldr	r3, [pc, #708]	; (8001f74 <HAL_RCC_OscConfig+0x338>)
 8001cae:	681a      	ldr	r2, [r3, #0]
 8001cb0:	4bb0      	ldr	r3, [pc, #704]	; (8001f74 <HAL_RCC_OscConfig+0x338>)
 8001cb2:	2180      	movs	r1, #128	; 0x80
 8001cb4:	0249      	lsls	r1, r1, #9
 8001cb6:	430a      	orrs	r2, r1
 8001cb8:	601a      	str	r2, [r3, #0]
 8001cba:	e02f      	b.n	8001d1c <HAL_RCC_OscConfig+0xe0>
 8001cbc:	687b      	ldr	r3, [r7, #4]
 8001cbe:	685b      	ldr	r3, [r3, #4]
 8001cc0:	2b00      	cmp	r3, #0
 8001cc2:	d10c      	bne.n	8001cde <HAL_RCC_OscConfig+0xa2>
 8001cc4:	4bab      	ldr	r3, [pc, #684]	; (8001f74 <HAL_RCC_OscConfig+0x338>)
 8001cc6:	681a      	ldr	r2, [r3, #0]
 8001cc8:	4baa      	ldr	r3, [pc, #680]	; (8001f74 <HAL_RCC_OscConfig+0x338>)
 8001cca:	49ab      	ldr	r1, [pc, #684]	; (8001f78 <HAL_RCC_OscConfig+0x33c>)
 8001ccc:	400a      	ands	r2, r1
 8001cce:	601a      	str	r2, [r3, #0]
 8001cd0:	4ba8      	ldr	r3, [pc, #672]	; (8001f74 <HAL_RCC_OscConfig+0x338>)
 8001cd2:	681a      	ldr	r2, [r3, #0]
 8001cd4:	4ba7      	ldr	r3, [pc, #668]	; (8001f74 <HAL_RCC_OscConfig+0x338>)
 8001cd6:	49a9      	ldr	r1, [pc, #676]	; (8001f7c <HAL_RCC_OscConfig+0x340>)
 8001cd8:	400a      	ands	r2, r1
 8001cda:	601a      	str	r2, [r3, #0]
 8001cdc:	e01e      	b.n	8001d1c <HAL_RCC_OscConfig+0xe0>
 8001cde:	687b      	ldr	r3, [r7, #4]
 8001ce0:	685b      	ldr	r3, [r3, #4]
 8001ce2:	2b05      	cmp	r3, #5
 8001ce4:	d10e      	bne.n	8001d04 <HAL_RCC_OscConfig+0xc8>
 8001ce6:	4ba3      	ldr	r3, [pc, #652]	; (8001f74 <HAL_RCC_OscConfig+0x338>)
 8001ce8:	681a      	ldr	r2, [r3, #0]
 8001cea:	4ba2      	ldr	r3, [pc, #648]	; (8001f74 <HAL_RCC_OscConfig+0x338>)
 8001cec:	2180      	movs	r1, #128	; 0x80
 8001cee:	02c9      	lsls	r1, r1, #11
 8001cf0:	430a      	orrs	r2, r1
 8001cf2:	601a      	str	r2, [r3, #0]
 8001cf4:	4b9f      	ldr	r3, [pc, #636]	; (8001f74 <HAL_RCC_OscConfig+0x338>)
 8001cf6:	681a      	ldr	r2, [r3, #0]
 8001cf8:	4b9e      	ldr	r3, [pc, #632]	; (8001f74 <HAL_RCC_OscConfig+0x338>)
 8001cfa:	2180      	movs	r1, #128	; 0x80
 8001cfc:	0249      	lsls	r1, r1, #9
 8001cfe:	430a      	orrs	r2, r1
 8001d00:	601a      	str	r2, [r3, #0]
 8001d02:	e00b      	b.n	8001d1c <HAL_RCC_OscConfig+0xe0>
 8001d04:	4b9b      	ldr	r3, [pc, #620]	; (8001f74 <HAL_RCC_OscConfig+0x338>)
 8001d06:	681a      	ldr	r2, [r3, #0]
 8001d08:	4b9a      	ldr	r3, [pc, #616]	; (8001f74 <HAL_RCC_OscConfig+0x338>)
 8001d0a:	499b      	ldr	r1, [pc, #620]	; (8001f78 <HAL_RCC_OscConfig+0x33c>)
 8001d0c:	400a      	ands	r2, r1
 8001d0e:	601a      	str	r2, [r3, #0]
 8001d10:	4b98      	ldr	r3, [pc, #608]	; (8001f74 <HAL_RCC_OscConfig+0x338>)
 8001d12:	681a      	ldr	r2, [r3, #0]
 8001d14:	4b97      	ldr	r3, [pc, #604]	; (8001f74 <HAL_RCC_OscConfig+0x338>)
 8001d16:	4999      	ldr	r1, [pc, #612]	; (8001f7c <HAL_RCC_OscConfig+0x340>)
 8001d18:	400a      	ands	r2, r1
 8001d1a:	601a      	str	r2, [r3, #0]
      

       /* Check the HSE State */
      if(RCC_OscInitStruct->HSEState != RCC_HSE_OFF)
 8001d1c:	687b      	ldr	r3, [r7, #4]
 8001d1e:	685b      	ldr	r3, [r3, #4]
 8001d20:	2b00      	cmp	r3, #0
 8001d22:	d014      	beq.n	8001d4e <HAL_RCC_OscConfig+0x112>
      {
        /* Get Start Tick */
        tickstart = HAL_GetTick();
 8001d24:	f7ff fd12 	bl	800174c <HAL_GetTick>
 8001d28:	0003      	movs	r3, r0
 8001d2a:	61bb      	str	r3, [r7, #24]
        
        /* Wait till HSE is ready */
        while(__HAL_RCC_GET_FLAG(RCC_FLAG_HSERDY) == RESET)
 8001d2c:	e008      	b.n	8001d40 <HAL_RCC_OscConfig+0x104>
        {
          if((HAL_GetTick() - tickstart ) > HSE_TIMEOUT_VALUE)
 8001d2e:	f7ff fd0d 	bl	800174c <HAL_GetTick>
 8001d32:	0002      	movs	r2, r0
 8001d34:	69bb      	ldr	r3, [r7, #24]
 8001d36:	1ad3      	subs	r3, r2, r3
 8001d38:	2b64      	cmp	r3, #100	; 0x64
 8001d3a:	d901      	bls.n	8001d40 <HAL_RCC_OscConfig+0x104>
          {
            return HAL_TIMEOUT;
 8001d3c:	2303      	movs	r3, #3
 8001d3e:	e2fd      	b.n	800233c <HAL_RCC_OscConfig+0x700>
        while(__HAL_RCC_GET_FLAG(RCC_FLAG_HSERDY) == RESET)
 8001d40:	4b8c      	ldr	r3, [pc, #560]	; (8001f74 <HAL_RCC_OscConfig+0x338>)
 8001d42:	681a      	ldr	r2, [r3, #0]
 8001d44:	2380      	movs	r3, #128	; 0x80
 8001d46:	029b      	lsls	r3, r3, #10
 8001d48:	4013      	ands	r3, r2
 8001d4a:	d0f0      	beq.n	8001d2e <HAL_RCC_OscConfig+0xf2>
 8001d4c:	e015      	b.n	8001d7a <HAL_RCC_OscConfig+0x13e>
        }
      }
      else
      {
        /* Get Start Tick */
        tickstart = HAL_GetTick();
 8001d4e:	f7ff fcfd 	bl	800174c <HAL_GetTick>
 8001d52:	0003      	movs	r3, r0
 8001d54:	61bb      	str	r3, [r7, #24]
        
        /* Wait till HSE is disabled */
        while(__HAL_RCC_GET_FLAG(RCC_FLAG_HSERDY) != RESET)
 8001d56:	e008      	b.n	8001d6a <HAL_RCC_OscConfig+0x12e>
        {
           if((HAL_GetTick() - tickstart ) > HSE_TIMEOUT_VALUE)
 8001d58:	f7ff fcf8 	bl	800174c <HAL_GetTick>
 8001d5c:	0002      	movs	r2, r0
 8001d5e:	69bb      	ldr	r3, [r7, #24]
 8001d60:	1ad3      	subs	r3, r2, r3
 8001d62:	2b64      	cmp	r3, #100	; 0x64
 8001d64:	d901      	bls.n	8001d6a <HAL_RCC_OscConfig+0x12e>
          {
            return HAL_TIMEOUT;
 8001d66:	2303      	movs	r3, #3
 8001d68:	e2e8      	b.n	800233c <HAL_RCC_OscConfig+0x700>
        while(__HAL_RCC_GET_FLAG(RCC_FLAG_HSERDY) != RESET)
 8001d6a:	4b82      	ldr	r3, [pc, #520]	; (8001f74 <HAL_RCC_OscConfig+0x338>)
 8001d6c:	681a      	ldr	r2, [r3, #0]
 8001d6e:	2380      	movs	r3, #128	; 0x80
 8001d70:	029b      	lsls	r3, r3, #10
 8001d72:	4013      	ands	r3, r2
 8001d74:	d1f0      	bne.n	8001d58 <HAL_RCC_OscConfig+0x11c>
 8001d76:	e000      	b.n	8001d7a <HAL_RCC_OscConfig+0x13e>
      if((__HAL_RCC_GET_FLAG(RCC_FLAG_HSERDY) != RESET) && (RCC_OscInitStruct->HSEState == RCC_HSE_OFF))
 8001d78:	46c0      	nop			; (mov r8, r8)
        }
      }
    }
  }
  /*----------------------------- HSI Configuration --------------------------*/ 
  if(((RCC_OscInitStruct->OscillatorType) & RCC_OSCILLATORTYPE_HSI) == RCC_OSCILLATORTYPE_HSI)
 8001d7a:	687b      	ldr	r3, [r7, #4]
 8001d7c:	681b      	ldr	r3, [r3, #0]
 8001d7e:	2202      	movs	r2, #2
 8001d80:	4013      	ands	r3, r2
 8001d82:	d100      	bne.n	8001d86 <HAL_RCC_OscConfig+0x14a>
 8001d84:	e06c      	b.n	8001e60 <HAL_RCC_OscConfig+0x224>
    /* Check the parameters */
    assert_param(IS_RCC_HSI(RCC_OscInitStruct->HSIState));
    assert_param(IS_RCC_CALIBRATION_VALUE(RCC_OscInitStruct->HSICalibrationValue));
    
    /* Check if HSI is used as system clock or as PLL source when PLL is selected as system clock */ 
    if((__HAL_RCC_GET_SYSCLK_SOURCE() == RCC_SYSCLKSOURCE_STATUS_HSI) 
 8001d86:	4b7b      	ldr	r3, [pc, #492]	; (8001f74 <HAL_RCC_OscConfig+0x338>)
 8001d88:	685b      	ldr	r3, [r3, #4]
 8001d8a:	220c      	movs	r2, #12
 8001d8c:	4013      	ands	r3, r2
 8001d8e:	d00e      	beq.n	8001dae <HAL_RCC_OscConfig+0x172>
       || ((__HAL_RCC_GET_SYSCLK_SOURCE() == RCC_SYSCLKSOURCE_STATUS_PLLCLK) && (__HAL_RCC_GET_PLL_OSCSOURCE() == RCC_PLLSOURCE_HSI)))
 8001d90:	4b78      	ldr	r3, [pc, #480]	; (8001f74 <HAL_RCC_OscConfig+0x338>)
 8001d92:	685b      	ldr	r3, [r3, #4]
 8001d94:	220c      	movs	r2, #12
 8001d96:	4013      	ands	r3, r2
 8001d98:	2b08      	cmp	r3, #8
 8001d9a:	d11f      	bne.n	8001ddc <HAL_RCC_OscConfig+0x1a0>
 8001d9c:	4b75      	ldr	r3, [pc, #468]	; (8001f74 <HAL_RCC_OscConfig+0x338>)
 8001d9e:	685a      	ldr	r2, [r3, #4]
 8001da0:	23c0      	movs	r3, #192	; 0xc0
 8001da2:	025b      	lsls	r3, r3, #9
 8001da4:	401a      	ands	r2, r3
 8001da6:	2380      	movs	r3, #128	; 0x80
 8001da8:	021b      	lsls	r3, r3, #8
 8001daa:	429a      	cmp	r2, r3
 8001dac:	d116      	bne.n	8001ddc <HAL_RCC_OscConfig+0x1a0>
    {
      /* When HSI is used as system clock it will not disabled */
      if((__HAL_RCC_GET_FLAG(RCC_FLAG_HSIRDY) != RESET) && (RCC_OscInitStruct->HSIState != RCC_HSI_ON))
 8001dae:	4b71      	ldr	r3, [pc, #452]	; (8001f74 <HAL_RCC_OscConfig+0x338>)
 8001db0:	681b      	ldr	r3, [r3, #0]
 8001db2:	2202      	movs	r2, #2
 8001db4:	4013      	ands	r3, r2
 8001db6:	d005      	beq.n	8001dc4 <HAL_RCC_OscConfig+0x188>
 8001db8:	687b      	ldr	r3, [r7, #4]
 8001dba:	68db      	ldr	r3, [r3, #12]
 8001dbc:	2b01      	cmp	r3, #1
 8001dbe:	d001      	beq.n	8001dc4 <HAL_RCC_OscConfig+0x188>
      {
        return HAL_ERROR;
 8001dc0:	2301      	movs	r3, #1
 8001dc2:	e2bb      	b.n	800233c <HAL_RCC_OscConfig+0x700>
      }
      /* Otherwise, just the calibration is allowed */
      else
      {
        /* Adjusts the Internal High Speed oscillator (HSI) calibration value.*/
        __HAL_RCC_HSI_CALIBRATIONVALUE_ADJUST(RCC_OscInitStruct->HSICalibrationValue);
 8001dc4:	4b6b      	ldr	r3, [pc, #428]	; (8001f74 <HAL_RCC_OscConfig+0x338>)
 8001dc6:	681b      	ldr	r3, [r3, #0]
 8001dc8:	22f8      	movs	r2, #248	; 0xf8
 8001dca:	4393      	bics	r3, r2
 8001dcc:	0019      	movs	r1, r3
 8001dce:	687b      	ldr	r3, [r7, #4]
 8001dd0:	691b      	ldr	r3, [r3, #16]
 8001dd2:	00da      	lsls	r2, r3, #3
 8001dd4:	4b67      	ldr	r3, [pc, #412]	; (8001f74 <HAL_RCC_OscConfig+0x338>)
 8001dd6:	430a      	orrs	r2, r1
 8001dd8:	601a      	str	r2, [r3, #0]
      if((__HAL_RCC_GET_FLAG(RCC_FLAG_HSIRDY) != RESET) && (RCC_OscInitStruct->HSIState != RCC_HSI_ON))
 8001dda:	e041      	b.n	8001e60 <HAL_RCC_OscConfig+0x224>
      }
    }
    else
    {
      /* Check the HSI State */
      if(RCC_OscInitStruct->HSIState != RCC_HSI_OFF)
 8001ddc:	687b      	ldr	r3, [r7, #4]
 8001dde:	68db      	ldr	r3, [r3, #12]
 8001de0:	2b00      	cmp	r3, #0
 8001de2:	d024      	beq.n	8001e2e <HAL_RCC_OscConfig+0x1f2>
      {
       /* Enable the Internal High Speed oscillator (HSI). */
        __HAL_RCC_HSI_ENABLE();
 8001de4:	4b63      	ldr	r3, [pc, #396]	; (8001f74 <HAL_RCC_OscConfig+0x338>)
 8001de6:	681a      	ldr	r2, [r3, #0]
 8001de8:	4b62      	ldr	r3, [pc, #392]	; (8001f74 <HAL_RCC_OscConfig+0x338>)
 8001dea:	2101      	movs	r1, #1
 8001dec:	430a      	orrs	r2, r1
 8001dee:	601a      	str	r2, [r3, #0]
        
        /* Get Start Tick */
        tickstart = HAL_GetTick();
 8001df0:	f7ff fcac 	bl	800174c <HAL_GetTick>
 8001df4:	0003      	movs	r3, r0
 8001df6:	61bb      	str	r3, [r7, #24]
        
        /* Wait till HSI is ready */
        while(__HAL_RCC_GET_FLAG(RCC_FLAG_HSIRDY) == RESET)
 8001df8:	e008      	b.n	8001e0c <HAL_RCC_OscConfig+0x1d0>
        {
          if((HAL_GetTick() - tickstart ) > HSI_TIMEOUT_VALUE)
 8001dfa:	f7ff fca7 	bl	800174c <HAL_GetTick>
 8001dfe:	0002      	movs	r2, r0
 8001e00:	69bb      	ldr	r3, [r7, #24]
 8001e02:	1ad3      	subs	r3, r2, r3
 8001e04:	2b02      	cmp	r3, #2
 8001e06:	d901      	bls.n	8001e0c <HAL_RCC_OscConfig+0x1d0>
          {
            return HAL_TIMEOUT;
 8001e08:	2303      	movs	r3, #3
 8001e0a:	e297      	b.n	800233c <HAL_RCC_OscConfig+0x700>
        while(__HAL_RCC_GET_FLAG(RCC_FLAG_HSIRDY) == RESET)
 8001e0c:	4b59      	ldr	r3, [pc, #356]	; (8001f74 <HAL_RCC_OscConfig+0x338>)
 8001e0e:	681b      	ldr	r3, [r3, #0]
 8001e10:	2202      	movs	r2, #2
 8001e12:	4013      	ands	r3, r2
 8001e14:	d0f1      	beq.n	8001dfa <HAL_RCC_OscConfig+0x1be>
          }
        }
                
        /* Adjusts the Internal High Speed oscillator (HSI) calibration value.*/
        __HAL_RCC_HSI_CALIBRATIONVALUE_ADJUST(RCC_OscInitStruct->HSICalibrationValue);
 8001e16:	4b57      	ldr	r3, [pc, #348]	; (8001f74 <HAL_RCC_OscConfig+0x338>)
 8001e18:	681b      	ldr	r3, [r3, #0]
 8001e1a:	22f8      	movs	r2, #248	; 0xf8
 8001e1c:	4393      	bics	r3, r2
 8001e1e:	0019      	movs	r1, r3
 8001e20:	687b      	ldr	r3, [r7, #4]
 8001e22:	691b      	ldr	r3, [r3, #16]
 8001e24:	00da      	lsls	r2, r3, #3
 8001e26:	4b53      	ldr	r3, [pc, #332]	; (8001f74 <HAL_RCC_OscConfig+0x338>)
 8001e28:	430a      	orrs	r2, r1
 8001e2a:	601a      	str	r2, [r3, #0]
 8001e2c:	e018      	b.n	8001e60 <HAL_RCC_OscConfig+0x224>
      }
      else
      {
        /* Disable the Internal High Speed oscillator (HSI). */
        __HAL_RCC_HSI_DISABLE();
 8001e2e:	4b51      	ldr	r3, [pc, #324]	; (8001f74 <HAL_RCC_OscConfig+0x338>)
 8001e30:	681a      	ldr	r2, [r3, #0]
 8001e32:	4b50      	ldr	r3, [pc, #320]	; (8001f74 <HAL_RCC_OscConfig+0x338>)
 8001e34:	2101      	movs	r1, #1
 8001e36:	438a      	bics	r2, r1
 8001e38:	601a      	str	r2, [r3, #0]
        
        /* Get Start Tick */
        tickstart = HAL_GetTick();
 8001e3a:	f7ff fc87 	bl	800174c <HAL_GetTick>
 8001e3e:	0003      	movs	r3, r0
 8001e40:	61bb      	str	r3, [r7, #24]
        
        /* Wait till HSI is disabled */
        while(__HAL_RCC_GET_FLAG(RCC_FLAG_HSIRDY) != RESET)
 8001e42:	e008      	b.n	8001e56 <HAL_RCC_OscConfig+0x21a>
        {
          if((HAL_GetTick() - tickstart ) > HSI_TIMEOUT_VALUE)
 8001e44:	f7ff fc82 	bl	800174c <HAL_GetTick>
 8001e48:	0002      	movs	r2, r0
 8001e4a:	69bb      	ldr	r3, [r7, #24]
 8001e4c:	1ad3      	subs	r3, r2, r3
 8001e4e:	2b02      	cmp	r3, #2
 8001e50:	d901      	bls.n	8001e56 <HAL_RCC_OscConfig+0x21a>
          {
            return HAL_TIMEOUT;
 8001e52:	2303      	movs	r3, #3
 8001e54:	e272      	b.n	800233c <HAL_RCC_OscConfig+0x700>
        while(__HAL_RCC_GET_FLAG(RCC_FLAG_HSIRDY) != RESET)
 8001e56:	4b47      	ldr	r3, [pc, #284]	; (8001f74 <HAL_RCC_OscConfig+0x338>)
 8001e58:	681b      	ldr	r3, [r3, #0]
 8001e5a:	2202      	movs	r2, #2
 8001e5c:	4013      	ands	r3, r2
 8001e5e:	d1f1      	bne.n	8001e44 <HAL_RCC_OscConfig+0x208>
        }
      }
    }
  }
  /*------------------------------ LSI Configuration -------------------------*/ 
  if(((RCC_OscInitStruct->OscillatorType) & RCC_OSCILLATORTYPE_LSI) == RCC_OSCILLATORTYPE_LSI)
 8001e60:	687b      	ldr	r3, [r7, #4]
 8001e62:	681b      	ldr	r3, [r3, #0]
 8001e64:	2208      	movs	r2, #8
 8001e66:	4013      	ands	r3, r2
 8001e68:	d036      	beq.n	8001ed8 <HAL_RCC_OscConfig+0x29c>
  {
    /* Check the parameters */
    assert_param(IS_RCC_LSI(RCC_OscInitStruct->LSIState));
    
    /* Check the LSI State */
    if(RCC_OscInitStruct->LSIState != RCC_LSI_OFF)
 8001e6a:	687b      	ldr	r3, [r7, #4]
 8001e6c:	69db      	ldr	r3, [r3, #28]
 8001e6e:	2b00      	cmp	r3, #0
 8001e70:	d019      	beq.n	8001ea6 <HAL_RCC_OscConfig+0x26a>
    {
      /* Enable the Internal Low Speed oscillator (LSI). */
      __HAL_RCC_LSI_ENABLE();
 8001e72:	4b40      	ldr	r3, [pc, #256]	; (8001f74 <HAL_RCC_OscConfig+0x338>)
 8001e74:	6a5a      	ldr	r2, [r3, #36]	; 0x24
 8001e76:	4b3f      	ldr	r3, [pc, #252]	; (8001f74 <HAL_RCC_OscConfig+0x338>)
 8001e78:	2101      	movs	r1, #1
 8001e7a:	430a      	orrs	r2, r1
 8001e7c:	625a      	str	r2, [r3, #36]	; 0x24
      
      /* Get Start Tick */
      tickstart = HAL_GetTick();
 8001e7e:	f7ff fc65 	bl	800174c <HAL_GetTick>
 8001e82:	0003      	movs	r3, r0
 8001e84:	61bb      	str	r3, [r7, #24]
      
      /* Wait till LSI is ready */  
      while(__HAL_RCC_GET_FLAG(RCC_FLAG_LSIRDY) == RESET)
 8001e86:	e008      	b.n	8001e9a <HAL_RCC_OscConfig+0x25e>
      {
        if((HAL_GetTick() - tickstart ) > LSI_TIMEOUT_VALUE)
 8001e88:	f7ff fc60 	bl	800174c <HAL_GetTick>
 8001e8c:	0002      	movs	r2, r0
 8001e8e:	69bb      	ldr	r3, [r7, #24]
 8001e90:	1ad3      	subs	r3, r2, r3
 8001e92:	2b02      	cmp	r3, #2
 8001e94:	d901      	bls.n	8001e9a <HAL_RCC_OscConfig+0x25e>
        {
          return HAL_TIMEOUT;
 8001e96:	2303      	movs	r3, #3
 8001e98:	e250      	b.n	800233c <HAL_RCC_OscConfig+0x700>
      while(__HAL_RCC_GET_FLAG(RCC_FLAG_LSIRDY) == RESET)
 8001e9a:	4b36      	ldr	r3, [pc, #216]	; (8001f74 <HAL_RCC_OscConfig+0x338>)
 8001e9c:	6a5b      	ldr	r3, [r3, #36]	; 0x24
 8001e9e:	2202      	movs	r2, #2
 8001ea0:	4013      	ands	r3, r2
 8001ea2:	d0f1      	beq.n	8001e88 <HAL_RCC_OscConfig+0x24c>
 8001ea4:	e018      	b.n	8001ed8 <HAL_RCC_OscConfig+0x29c>
      }
    }
    else
    {
      /* Disable the Internal Low Speed oscillator (LSI). */
      __HAL_RCC_LSI_DISABLE();
 8001ea6:	4b33      	ldr	r3, [pc, #204]	; (8001f74 <HAL_RCC_OscConfig+0x338>)
 8001ea8:	6a5a      	ldr	r2, [r3, #36]	; 0x24
 8001eaa:	4b32      	ldr	r3, [pc, #200]	; (8001f74 <HAL_RCC_OscConfig+0x338>)
 8001eac:	2101      	movs	r1, #1
 8001eae:	438a      	bics	r2, r1
 8001eb0:	625a      	str	r2, [r3, #36]	; 0x24
      
      /* Get Start Tick */
      tickstart = HAL_GetTick();
 8001eb2:	f7ff fc4b 	bl	800174c <HAL_GetTick>
 8001eb6:	0003      	movs	r3, r0
 8001eb8:	61bb      	str	r3, [r7, #24]
      
      /* Wait till LSI is disabled */  
      while(__HAL_RCC_GET_FLAG(RCC_FLAG_LSIRDY) != RESET)
 8001eba:	e008      	b.n	8001ece <HAL_RCC_OscConfig+0x292>
      {
        if((HAL_GetTick() - tickstart ) > LSI_TIMEOUT_VALUE)
 8001ebc:	f7ff fc46 	bl	800174c <HAL_GetTick>
 8001ec0:	0002      	movs	r2, r0
 8001ec2:	69bb      	ldr	r3, [r7, #24]
 8001ec4:	1ad3      	subs	r3, r2, r3
 8001ec6:	2b02      	cmp	r3, #2
 8001ec8:	d901      	bls.n	8001ece <HAL_RCC_OscConfig+0x292>
        {
          return HAL_TIMEOUT;
 8001eca:	2303      	movs	r3, #3
 8001ecc:	e236      	b.n	800233c <HAL_RCC_OscConfig+0x700>
      while(__HAL_RCC_GET_FLAG(RCC_FLAG_LSIRDY) != RESET)
 8001ece:	4b29      	ldr	r3, [pc, #164]	; (8001f74 <HAL_RCC_OscConfig+0x338>)
 8001ed0:	6a5b      	ldr	r3, [r3, #36]	; 0x24
 8001ed2:	2202      	movs	r2, #2
 8001ed4:	4013      	ands	r3, r2
 8001ed6:	d1f1      	bne.n	8001ebc <HAL_RCC_OscConfig+0x280>
        }
      }
    }
  }
  /*------------------------------ LSE Configuration -------------------------*/ 
  if(((RCC_OscInitStruct->OscillatorType) & RCC_OSCILLATORTYPE_LSE) == RCC_OSCILLATORTYPE_LSE)
 8001ed8:	687b      	ldr	r3, [r7, #4]
 8001eda:	681b      	ldr	r3, [r3, #0]
 8001edc:	2204      	movs	r2, #4
 8001ede:	4013      	ands	r3, r2
 8001ee0:	d100      	bne.n	8001ee4 <HAL_RCC_OscConfig+0x2a8>
 8001ee2:	e0b5      	b.n	8002050 <HAL_RCC_OscConfig+0x414>
  {
    FlagStatus       pwrclkchanged = RESET;
 8001ee4:	201f      	movs	r0, #31
 8001ee6:	183b      	adds	r3, r7, r0
 8001ee8:	2200      	movs	r2, #0
 8001eea:	701a      	strb	r2, [r3, #0]
    /* Check the parameters */
    assert_param(IS_RCC_LSE(RCC_OscInitStruct->LSEState));

    /* Update LSE configuration in Backup Domain control register    */
    /* Requires to enable write access to Backup Domain of necessary */
    if(__HAL_RCC_PWR_IS_CLK_DISABLED())
 8001eec:	4b21      	ldr	r3, [pc, #132]	; (8001f74 <HAL_RCC_OscConfig+0x338>)
 8001eee:	69da      	ldr	r2, [r3, #28]
 8001ef0:	2380      	movs	r3, #128	; 0x80
 8001ef2:	055b      	lsls	r3, r3, #21
 8001ef4:	4013      	ands	r3, r2
 8001ef6:	d110      	bne.n	8001f1a <HAL_RCC_OscConfig+0x2de>
    {
      __HAL_RCC_PWR_CLK_ENABLE();
 8001ef8:	4b1e      	ldr	r3, [pc, #120]	; (8001f74 <HAL_RCC_OscConfig+0x338>)
 8001efa:	69da      	ldr	r2, [r3, #28]
 8001efc:	4b1d      	ldr	r3, [pc, #116]	; (8001f74 <HAL_RCC_OscConfig+0x338>)
 8001efe:	2180      	movs	r1, #128	; 0x80
 8001f00:	0549      	lsls	r1, r1, #21
 8001f02:	430a      	orrs	r2, r1
 8001f04:	61da      	str	r2, [r3, #28]
 8001f06:	4b1b      	ldr	r3, [pc, #108]	; (8001f74 <HAL_RCC_OscConfig+0x338>)
 8001f08:	69da      	ldr	r2, [r3, #28]
 8001f0a:	2380      	movs	r3, #128	; 0x80
 8001f0c:	055b      	lsls	r3, r3, #21
 8001f0e:	4013      	ands	r3, r2
 8001f10:	60fb      	str	r3, [r7, #12]
 8001f12:	68fb      	ldr	r3, [r7, #12]
      pwrclkchanged = SET;
 8001f14:	183b      	adds	r3, r7, r0
 8001f16:	2201      	movs	r2, #1
 8001f18:	701a      	strb	r2, [r3, #0]
    }
    
    if(HAL_IS_BIT_CLR(PWR->CR, PWR_CR_DBP))
 8001f1a:	4b19      	ldr	r3, [pc, #100]	; (8001f80 <HAL_RCC_OscConfig+0x344>)
 8001f1c:	681a      	ldr	r2, [r3, #0]
 8001f1e:	2380      	movs	r3, #128	; 0x80
 8001f20:	005b      	lsls	r3, r3, #1
 8001f22:	4013      	ands	r3, r2
 8001f24:	d11a      	bne.n	8001f5c <HAL_RCC_OscConfig+0x320>
    {
      /* Enable write access to Backup domain */
      SET_BIT(PWR->CR, PWR_CR_DBP);
 8001f26:	4b16      	ldr	r3, [pc, #88]	; (8001f80 <HAL_RCC_OscConfig+0x344>)
 8001f28:	681a      	ldr	r2, [r3, #0]
 8001f2a:	4b15      	ldr	r3, [pc, #84]	; (8001f80 <HAL_RCC_OscConfig+0x344>)
 8001f2c:	2180      	movs	r1, #128	; 0x80
 8001f2e:	0049      	lsls	r1, r1, #1
 8001f30:	430a      	orrs	r2, r1
 8001f32:	601a      	str	r2, [r3, #0]
      
      /* Wait for Backup domain Write protection disable */
      tickstart = HAL_GetTick();
 8001f34:	f7ff fc0a 	bl	800174c <HAL_GetTick>
 8001f38:	0003      	movs	r3, r0
 8001f3a:	61bb      	str	r3, [r7, #24]

      while(HAL_IS_BIT_CLR(PWR->CR, PWR_CR_DBP))
 8001f3c:	e008      	b.n	8001f50 <HAL_RCC_OscConfig+0x314>
      {
        if((HAL_GetTick() - tickstart) > RCC_DBP_TIMEOUT_VALUE)
 8001f3e:	f7ff fc05 	bl	800174c <HAL_GetTick>
 8001f42:	0002      	movs	r2, r0
 8001f44:	69bb      	ldr	r3, [r7, #24]
 8001f46:	1ad3      	subs	r3, r2, r3
 8001f48:	2b64      	cmp	r3, #100	; 0x64
 8001f4a:	d901      	bls.n	8001f50 <HAL_RCC_OscConfig+0x314>
        {
          return HAL_TIMEOUT;
 8001f4c:	2303      	movs	r3, #3
 8001f4e:	e1f5      	b.n	800233c <HAL_RCC_OscConfig+0x700>
      while(HAL_IS_BIT_CLR(PWR->CR, PWR_CR_DBP))
 8001f50:	4b0b      	ldr	r3, [pc, #44]	; (8001f80 <HAL_RCC_OscConfig+0x344>)
 8001f52:	681a      	ldr	r2, [r3, #0]
 8001f54:	2380      	movs	r3, #128	; 0x80
 8001f56:	005b      	lsls	r3, r3, #1
 8001f58:	4013      	ands	r3, r2
 8001f5a:	d0f0      	beq.n	8001f3e <HAL_RCC_OscConfig+0x302>
        }
      }
    }

    /* Set the new LSE configuration -----------------------------------------*/
    __HAL_RCC_LSE_CONFIG(RCC_OscInitStruct->LSEState);
 8001f5c:	687b      	ldr	r3, [r7, #4]
 8001f5e:	689b      	ldr	r3, [r3, #8]
 8001f60:	2b01      	cmp	r3, #1
 8001f62:	d10f      	bne.n	8001f84 <HAL_RCC_OscConfig+0x348>
 8001f64:	4b03      	ldr	r3, [pc, #12]	; (8001f74 <HAL_RCC_OscConfig+0x338>)
 8001f66:	6a1a      	ldr	r2, [r3, #32]
 8001f68:	4b02      	ldr	r3, [pc, #8]	; (8001f74 <HAL_RCC_OscConfig+0x338>)
 8001f6a:	2101      	movs	r1, #1
 8001f6c:	430a      	orrs	r2, r1
 8001f6e:	621a      	str	r2, [r3, #32]
 8001f70:	e036      	b.n	8001fe0 <HAL_RCC_OscConfig+0x3a4>
 8001f72:	46c0      	nop			; (mov r8, r8)
 8001f74:	40021000 	.word	0x40021000
 8001f78:	fffeffff 	.word	0xfffeffff
 8001f7c:	fffbffff 	.word	0xfffbffff
 8001f80:	40007000 	.word	0x40007000
 8001f84:	687b      	ldr	r3, [r7, #4]
 8001f86:	689b      	ldr	r3, [r3, #8]
 8001f88:	2b00      	cmp	r3, #0
 8001f8a:	d10c      	bne.n	8001fa6 <HAL_RCC_OscConfig+0x36a>
 8001f8c:	4bca      	ldr	r3, [pc, #808]	; (80022b8 <HAL_RCC_OscConfig+0x67c>)
 8001f8e:	6a1a      	ldr	r2, [r3, #32]
 8001f90:	4bc9      	ldr	r3, [pc, #804]	; (80022b8 <HAL_RCC_OscConfig+0x67c>)
 8001f92:	2101      	movs	r1, #1
 8001f94:	438a      	bics	r2, r1
 8001f96:	621a      	str	r2, [r3, #32]
 8001f98:	4bc7      	ldr	r3, [pc, #796]	; (80022b8 <HAL_RCC_OscConfig+0x67c>)
 8001f9a:	6a1a      	ldr	r2, [r3, #32]
 8001f9c:	4bc6      	ldr	r3, [pc, #792]	; (80022b8 <HAL_RCC_OscConfig+0x67c>)
 8001f9e:	2104      	movs	r1, #4
 8001fa0:	438a      	bics	r2, r1
 8001fa2:	621a      	str	r2, [r3, #32]
 8001fa4:	e01c      	b.n	8001fe0 <HAL_RCC_OscConfig+0x3a4>
 8001fa6:	687b      	ldr	r3, [r7, #4]
 8001fa8:	689b      	ldr	r3, [r3, #8]
 8001faa:	2b05      	cmp	r3, #5
 8001fac:	d10c      	bne.n	8001fc8 <HAL_RCC_OscConfig+0x38c>
 8001fae:	4bc2      	ldr	r3, [pc, #776]	; (80022b8 <HAL_RCC_OscConfig+0x67c>)
 8001fb0:	6a1a      	ldr	r2, [r3, #32]
 8001fb2:	4bc1      	ldr	r3, [pc, #772]	; (80022b8 <HAL_RCC_OscConfig+0x67c>)
 8001fb4:	2104      	movs	r1, #4
 8001fb6:	430a      	orrs	r2, r1
 8001fb8:	621a      	str	r2, [r3, #32]
 8001fba:	4bbf      	ldr	r3, [pc, #764]	; (80022b8 <HAL_RCC_OscConfig+0x67c>)
 8001fbc:	6a1a      	ldr	r2, [r3, #32]
 8001fbe:	4bbe      	ldr	r3, [pc, #760]	; (80022b8 <HAL_RCC_OscConfig+0x67c>)
 8001fc0:	2101      	movs	r1, #1
 8001fc2:	430a      	orrs	r2, r1
 8001fc4:	621a      	str	r2, [r3, #32]
 8001fc6:	e00b      	b.n	8001fe0 <HAL_RCC_OscConfig+0x3a4>
 8001fc8:	4bbb      	ldr	r3, [pc, #748]	; (80022b8 <HAL_RCC_OscConfig+0x67c>)
 8001fca:	6a1a      	ldr	r2, [r3, #32]
 8001fcc:	4bba      	ldr	r3, [pc, #744]	; (80022b8 <HAL_RCC_OscConfig+0x67c>)
 8001fce:	2101      	movs	r1, #1
 8001fd0:	438a      	bics	r2, r1
 8001fd2:	621a      	str	r2, [r3, #32]
 8001fd4:	4bb8      	ldr	r3, [pc, #736]	; (80022b8 <HAL_RCC_OscConfig+0x67c>)
 8001fd6:	6a1a      	ldr	r2, [r3, #32]
 8001fd8:	4bb7      	ldr	r3, [pc, #732]	; (80022b8 <HAL_RCC_OscConfig+0x67c>)
 8001fda:	2104      	movs	r1, #4
 8001fdc:	438a      	bics	r2, r1
 8001fde:	621a      	str	r2, [r3, #32]
    /* Check the LSE State */
    if(RCC_OscInitStruct->LSEState != RCC_LSE_OFF)
 8001fe0:	687b      	ldr	r3, [r7, #4]
 8001fe2:	689b      	ldr	r3, [r3, #8]
 8001fe4:	2b00      	cmp	r3, #0
 8001fe6:	d014      	beq.n	8002012 <HAL_RCC_OscConfig+0x3d6>
    {
      /* Get Start Tick */
      tickstart = HAL_GetTick();
 8001fe8:	f7ff fbb0 	bl	800174c <HAL_GetTick>
 8001fec:	0003      	movs	r3, r0
 8001fee:	61bb      	str	r3, [r7, #24]
      
      /* Wait till LSE is ready */  
      while(__HAL_RCC_GET_FLAG(RCC_FLAG_LSERDY) == RESET)
 8001ff0:	e009      	b.n	8002006 <HAL_RCC_OscConfig+0x3ca>
      {
        if((HAL_GetTick() - tickstart ) > RCC_LSE_TIMEOUT_VALUE)
 8001ff2:	f7ff fbab 	bl	800174c <HAL_GetTick>
 8001ff6:	0002      	movs	r2, r0
 8001ff8:	69bb      	ldr	r3, [r7, #24]
 8001ffa:	1ad3      	subs	r3, r2, r3
 8001ffc:	4aaf      	ldr	r2, [pc, #700]	; (80022bc <HAL_RCC_OscConfig+0x680>)
 8001ffe:	4293      	cmp	r3, r2
 8002000:	d901      	bls.n	8002006 <HAL_RCC_OscConfig+0x3ca>
        {
          return HAL_TIMEOUT;
 8002002:	2303      	movs	r3, #3
 8002004:	e19a      	b.n	800233c <HAL_RCC_OscConfig+0x700>
      while(__HAL_RCC_GET_FLAG(RCC_FLAG_LSERDY) == RESET)
 8002006:	4bac      	ldr	r3, [pc, #688]	; (80022b8 <HAL_RCC_OscConfig+0x67c>)
 8002008:	6a1b      	ldr	r3, [r3, #32]
 800200a:	2202      	movs	r2, #2
 800200c:	4013      	ands	r3, r2
 800200e:	d0f0      	beq.n	8001ff2 <HAL_RCC_OscConfig+0x3b6>
 8002010:	e013      	b.n	800203a <HAL_RCC_OscConfig+0x3fe>
      }
    }
    else
    {
      /* Get Start Tick */
      tickstart = HAL_GetTick();
 8002012:	f7ff fb9b 	bl	800174c <HAL_GetTick>
 8002016:	0003      	movs	r3, r0
 8002018:	61bb      	str	r3, [r7, #24]
      
      /* Wait till LSE is disabled */  
      while(__HAL_RCC_GET_FLAG(RCC_FLAG_LSERDY) != RESET)
 800201a:	e009      	b.n	8002030 <HAL_RCC_OscConfig+0x3f4>
      {
        if((HAL_GetTick() - tickstart ) > RCC_LSE_TIMEOUT_VALUE)
 800201c:	f7ff fb96 	bl	800174c <HAL_GetTick>
 8002020:	0002      	movs	r2, r0
 8002022:	69bb      	ldr	r3, [r7, #24]
 8002024:	1ad3      	subs	r3, r2, r3
 8002026:	4aa5      	ldr	r2, [pc, #660]	; (80022bc <HAL_RCC_OscConfig+0x680>)
 8002028:	4293      	cmp	r3, r2
 800202a:	d901      	bls.n	8002030 <HAL_RCC_OscConfig+0x3f4>
        {
          return HAL_TIMEOUT;
 800202c:	2303      	movs	r3, #3
 800202e:	e185      	b.n	800233c <HAL_RCC_OscConfig+0x700>
      while(__HAL_RCC_GET_FLAG(RCC_FLAG_LSERDY) != RESET)
 8002030:	4ba1      	ldr	r3, [pc, #644]	; (80022b8 <HAL_RCC_OscConfig+0x67c>)
 8002032:	6a1b      	ldr	r3, [r3, #32]
 8002034:	2202      	movs	r2, #2
 8002036:	4013      	ands	r3, r2
 8002038:	d1f0      	bne.n	800201c <HAL_RCC_OscConfig+0x3e0>
        }
      }
    }

    /* Require to disable power clock if necessary */
    if(pwrclkchanged == SET)
 800203a:	231f      	movs	r3, #31
 800203c:	18fb      	adds	r3, r7, r3
 800203e:	781b      	ldrb	r3, [r3, #0]
 8002040:	2b01      	cmp	r3, #1
 8002042:	d105      	bne.n	8002050 <HAL_RCC_OscConfig+0x414>
    {
      __HAL_RCC_PWR_CLK_DISABLE();
 8002044:	4b9c      	ldr	r3, [pc, #624]	; (80022b8 <HAL_RCC_OscConfig+0x67c>)
 8002046:	69da      	ldr	r2, [r3, #28]
 8002048:	4b9b      	ldr	r3, [pc, #620]	; (80022b8 <HAL_RCC_OscConfig+0x67c>)
 800204a:	499d      	ldr	r1, [pc, #628]	; (80022c0 <HAL_RCC_OscConfig+0x684>)
 800204c:	400a      	ands	r2, r1
 800204e:	61da      	str	r2, [r3, #28]
    }
  }

  /*----------------------------- HSI14 Configuration --------------------------*/
  if(((RCC_OscInitStruct->OscillatorType) & RCC_OSCILLATORTYPE_HSI14) == RCC_OSCILLATORTYPE_HSI14)
 8002050:	687b      	ldr	r3, [r7, #4]
 8002052:	681b      	ldr	r3, [r3, #0]
 8002054:	2210      	movs	r2, #16
 8002056:	4013      	ands	r3, r2
 8002058:	d063      	beq.n	8002122 <HAL_RCC_OscConfig+0x4e6>
    /* Check the parameters */
    assert_param(IS_RCC_HSI14(RCC_OscInitStruct->HSI14State));
    assert_param(IS_RCC_CALIBRATION_VALUE(RCC_OscInitStruct->HSI14CalibrationValue));

    /* Check the HSI14 State */
    if(RCC_OscInitStruct->HSI14State == RCC_HSI14_ON)
 800205a:	687b      	ldr	r3, [r7, #4]
 800205c:	695b      	ldr	r3, [r3, #20]
 800205e:	2b01      	cmp	r3, #1
 8002060:	d12a      	bne.n	80020b8 <HAL_RCC_OscConfig+0x47c>
    {
      /* Disable ADC control of the Internal High Speed oscillator HSI14 */
      __HAL_RCC_HSI14ADC_DISABLE();
 8002062:	4b95      	ldr	r3, [pc, #596]	; (80022b8 <HAL_RCC_OscConfig+0x67c>)
 8002064:	6b5a      	ldr	r2, [r3, #52]	; 0x34
 8002066:	4b94      	ldr	r3, [pc, #592]	; (80022b8 <HAL_RCC_OscConfig+0x67c>)
 8002068:	2104      	movs	r1, #4
 800206a:	430a      	orrs	r2, r1
 800206c:	635a      	str	r2, [r3, #52]	; 0x34

      /* Enable the Internal High Speed oscillator (HSI). */
      __HAL_RCC_HSI14_ENABLE();
 800206e:	4b92      	ldr	r3, [pc, #584]	; (80022b8 <HAL_RCC_OscConfig+0x67c>)
 8002070:	6b5a      	ldr	r2, [r3, #52]	; 0x34
 8002072:	4b91      	ldr	r3, [pc, #580]	; (80022b8 <HAL_RCC_OscConfig+0x67c>)
 8002074:	2101      	movs	r1, #1
 8002076:	430a      	orrs	r2, r1
 8002078:	635a      	str	r2, [r3, #52]	; 0x34

      /* Get Start Tick */
      tickstart = HAL_GetTick();
 800207a:	f7ff fb67 	bl	800174c <HAL_GetTick>
 800207e:	0003      	movs	r3, r0
 8002080:	61bb      	str	r3, [r7, #24]
      
      /* Wait till HSI is ready */  
      while(__HAL_RCC_GET_FLAG(RCC_FLAG_HSI14RDY) == RESET)
 8002082:	e008      	b.n	8002096 <HAL_RCC_OscConfig+0x45a>
      {
        if((HAL_GetTick() - tickstart) > HSI14_TIMEOUT_VALUE)
 8002084:	f7ff fb62 	bl	800174c <HAL_GetTick>
 8002088:	0002      	movs	r2, r0
 800208a:	69bb      	ldr	r3, [r7, #24]
 800208c:	1ad3      	subs	r3, r2, r3
 800208e:	2b02      	cmp	r3, #2
 8002090:	d901      	bls.n	8002096 <HAL_RCC_OscConfig+0x45a>
        {
          return HAL_TIMEOUT;
 8002092:	2303      	movs	r3, #3
 8002094:	e152      	b.n	800233c <HAL_RCC_OscConfig+0x700>
      while(__HAL_RCC_GET_FLAG(RCC_FLAG_HSI14RDY) == RESET)
 8002096:	4b88      	ldr	r3, [pc, #544]	; (80022b8 <HAL_RCC_OscConfig+0x67c>)
 8002098:	6b5b      	ldr	r3, [r3, #52]	; 0x34
 800209a:	2202      	movs	r2, #2
 800209c:	4013      	ands	r3, r2
 800209e:	d0f1      	beq.n	8002084 <HAL_RCC_OscConfig+0x448>
        }      
      } 

      /* Adjusts the Internal High Speed oscillator 14Mhz (HSI14) calibration value. */
      __HAL_RCC_HSI14_CALIBRATIONVALUE_ADJUST(RCC_OscInitStruct->HSI14CalibrationValue);
 80020a0:	4b85      	ldr	r3, [pc, #532]	; (80022b8 <HAL_RCC_OscConfig+0x67c>)
 80020a2:	6b5b      	ldr	r3, [r3, #52]	; 0x34
 80020a4:	22f8      	movs	r2, #248	; 0xf8
 80020a6:	4393      	bics	r3, r2
 80020a8:	0019      	movs	r1, r3
 80020aa:	687b      	ldr	r3, [r7, #4]
 80020ac:	699b      	ldr	r3, [r3, #24]
 80020ae:	00da      	lsls	r2, r3, #3
 80020b0:	4b81      	ldr	r3, [pc, #516]	; (80022b8 <HAL_RCC_OscConfig+0x67c>)
 80020b2:	430a      	orrs	r2, r1
 80020b4:	635a      	str	r2, [r3, #52]	; 0x34
 80020b6:	e034      	b.n	8002122 <HAL_RCC_OscConfig+0x4e6>
    }
    else if(RCC_OscInitStruct->HSI14State == RCC_HSI14_ADC_CONTROL)
 80020b8:	687b      	ldr	r3, [r7, #4]
 80020ba:	695b      	ldr	r3, [r3, #20]
 80020bc:	3305      	adds	r3, #5
 80020be:	d111      	bne.n	80020e4 <HAL_RCC_OscConfig+0x4a8>
    {
      /* Enable ADC control of the Internal High Speed oscillator HSI14 */
      __HAL_RCC_HSI14ADC_ENABLE();
 80020c0:	4b7d      	ldr	r3, [pc, #500]	; (80022b8 <HAL_RCC_OscConfig+0x67c>)
 80020c2:	6b5a      	ldr	r2, [r3, #52]	; 0x34
 80020c4:	4b7c      	ldr	r3, [pc, #496]	; (80022b8 <HAL_RCC_OscConfig+0x67c>)
 80020c6:	2104      	movs	r1, #4
 80020c8:	438a      	bics	r2, r1
 80020ca:	635a      	str	r2, [r3, #52]	; 0x34

      /* Adjusts the Internal High Speed oscillator 14Mhz (HSI14) calibration value. */
      __HAL_RCC_HSI14_CALIBRATIONVALUE_ADJUST(RCC_OscInitStruct->HSI14CalibrationValue);
 80020cc:	4b7a      	ldr	r3, [pc, #488]	; (80022b8 <HAL_RCC_OscConfig+0x67c>)
 80020ce:	6b5b      	ldr	r3, [r3, #52]	; 0x34
 80020d0:	22f8      	movs	r2, #248	; 0xf8
 80020d2:	4393      	bics	r3, r2
 80020d4:	0019      	movs	r1, r3
 80020d6:	687b      	ldr	r3, [r7, #4]
 80020d8:	699b      	ldr	r3, [r3, #24]
 80020da:	00da      	lsls	r2, r3, #3
 80020dc:	4b76      	ldr	r3, [pc, #472]	; (80022b8 <HAL_RCC_OscConfig+0x67c>)
 80020de:	430a      	orrs	r2, r1
 80020e0:	635a      	str	r2, [r3, #52]	; 0x34
 80020e2:	e01e      	b.n	8002122 <HAL_RCC_OscConfig+0x4e6>
    }
    else
    {
      /* Disable ADC control of the Internal High Speed oscillator HSI14 */
      __HAL_RCC_HSI14ADC_DISABLE();
 80020e4:	4b74      	ldr	r3, [pc, #464]	; (80022b8 <HAL_RCC_OscConfig+0x67c>)
 80020e6:	6b5a      	ldr	r2, [r3, #52]	; 0x34
 80020e8:	4b73      	ldr	r3, [pc, #460]	; (80022b8 <HAL_RCC_OscConfig+0x67c>)
 80020ea:	2104      	movs	r1, #4
 80020ec:	430a      	orrs	r2, r1
 80020ee:	635a      	str	r2, [r3, #52]	; 0x34

      /* Disable the Internal High Speed oscillator (HSI). */
      __HAL_RCC_HSI14_DISABLE();
 80020f0:	4b71      	ldr	r3, [pc, #452]	; (80022b8 <HAL_RCC_OscConfig+0x67c>)
 80020f2:	6b5a      	ldr	r2, [r3, #52]	; 0x34
 80020f4:	4b70      	ldr	r3, [pc, #448]	; (80022b8 <HAL_RCC_OscConfig+0x67c>)
 80020f6:	2101      	movs	r1, #1
 80020f8:	438a      	bics	r2, r1
 80020fa:	635a      	str	r2, [r3, #52]	; 0x34

      /* Get Start Tick */
      tickstart = HAL_GetTick();
 80020fc:	f7ff fb26 	bl	800174c <HAL_GetTick>
 8002100:	0003      	movs	r3, r0
 8002102:	61bb      	str	r3, [r7, #24]
      
      /* Wait till HSI is ready */  
      while(__HAL_RCC_GET_FLAG(RCC_FLAG_HSI14RDY) != RESET)
 8002104:	e008      	b.n	8002118 <HAL_RCC_OscConfig+0x4dc>
      {
        if((HAL_GetTick() - tickstart) > HSI14_TIMEOUT_VALUE)
 8002106:	f7ff fb21 	bl	800174c <HAL_GetTick>
 800210a:	0002      	movs	r2, r0
 800210c:	69bb      	ldr	r3, [r7, #24]
 800210e:	1ad3      	subs	r3, r2, r3
 8002110:	2b02      	cmp	r3, #2
 8002112:	d901      	bls.n	8002118 <HAL_RCC_OscConfig+0x4dc>
        {
          return HAL_TIMEOUT;
 8002114:	2303      	movs	r3, #3
 8002116:	e111      	b.n	800233c <HAL_RCC_OscConfig+0x700>
      while(__HAL_RCC_GET_FLAG(RCC_FLAG_HSI14RDY) != RESET)
 8002118:	4b67      	ldr	r3, [pc, #412]	; (80022b8 <HAL_RCC_OscConfig+0x67c>)
 800211a:	6b5b      	ldr	r3, [r3, #52]	; 0x34
 800211c:	2202      	movs	r2, #2
 800211e:	4013      	ands	r3, r2
 8002120:	d1f1      	bne.n	8002106 <HAL_RCC_OscConfig+0x4ca>
    }
  }

#if defined(RCC_HSI48_SUPPORT)
  /*----------------------------- HSI48 Configuration --------------------------*/
  if(((RCC_OscInitStruct->OscillatorType) & RCC_OSCILLATORTYPE_HSI48) == RCC_OSCILLATORTYPE_HSI48)
 8002122:	687b      	ldr	r3, [r7, #4]
 8002124:	681b      	ldr	r3, [r3, #0]
 8002126:	2220      	movs	r2, #32
 8002128:	4013      	ands	r3, r2
 800212a:	d05c      	beq.n	80021e6 <HAL_RCC_OscConfig+0x5aa>
  {
    /* Check the parameters */
    assert_param(IS_RCC_HSI48(RCC_OscInitStruct->HSI48State));

    /* When the HSI48 is used as system clock it is not allowed to be disabled */
    if((__HAL_RCC_GET_SYSCLK_SOURCE() == RCC_SYSCLKSOURCE_STATUS_HSI48) ||
 800212c:	4b62      	ldr	r3, [pc, #392]	; (80022b8 <HAL_RCC_OscConfig+0x67c>)
 800212e:	685b      	ldr	r3, [r3, #4]
 8002130:	220c      	movs	r2, #12
 8002132:	4013      	ands	r3, r2
 8002134:	2b0c      	cmp	r3, #12
 8002136:	d00e      	beq.n	8002156 <HAL_RCC_OscConfig+0x51a>
       ((__HAL_RCC_GET_SYSCLK_SOURCE() == RCC_SYSCLKSOURCE_STATUS_PLLCLK) && (__HAL_RCC_GET_PLL_OSCSOURCE() == RCC_PLLSOURCE_HSI48)))
 8002138:	4b5f      	ldr	r3, [pc, #380]	; (80022b8 <HAL_RCC_OscConfig+0x67c>)
 800213a:	685b      	ldr	r3, [r3, #4]
 800213c:	220c      	movs	r2, #12
 800213e:	4013      	ands	r3, r2
    if((__HAL_RCC_GET_SYSCLK_SOURCE() == RCC_SYSCLKSOURCE_STATUS_HSI48) ||
 8002140:	2b08      	cmp	r3, #8
 8002142:	d114      	bne.n	800216e <HAL_RCC_OscConfig+0x532>
       ((__HAL_RCC_GET_SYSCLK_SOURCE() == RCC_SYSCLKSOURCE_STATUS_PLLCLK) && (__HAL_RCC_GET_PLL_OSCSOURCE() == RCC_PLLSOURCE_HSI48)))
 8002144:	4b5c      	ldr	r3, [pc, #368]	; (80022b8 <HAL_RCC_OscConfig+0x67c>)
 8002146:	685a      	ldr	r2, [r3, #4]
 8002148:	23c0      	movs	r3, #192	; 0xc0
 800214a:	025b      	lsls	r3, r3, #9
 800214c:	401a      	ands	r2, r3
 800214e:	23c0      	movs	r3, #192	; 0xc0
 8002150:	025b      	lsls	r3, r3, #9
 8002152:	429a      	cmp	r2, r3
 8002154:	d10b      	bne.n	800216e <HAL_RCC_OscConfig+0x532>
    {
      if((__HAL_RCC_GET_FLAG(RCC_FLAG_HSI48RDY) != RESET) && (RCC_OscInitStruct->HSI48State != RCC_HSI48_ON))
 8002156:	4b58      	ldr	r3, [pc, #352]	; (80022b8 <HAL_RCC_OscConfig+0x67c>)
 8002158:	6b5a      	ldr	r2, [r3, #52]	; 0x34
 800215a:	2380      	movs	r3, #128	; 0x80
 800215c:	025b      	lsls	r3, r3, #9
 800215e:	4013      	ands	r3, r2
 8002160:	d040      	beq.n	80021e4 <HAL_RCC_OscConfig+0x5a8>
 8002162:	687b      	ldr	r3, [r7, #4]
 8002164:	6a1b      	ldr	r3, [r3, #32]
 8002166:	2b01      	cmp	r3, #1
 8002168:	d03c      	beq.n	80021e4 <HAL_RCC_OscConfig+0x5a8>
      {
        return HAL_ERROR;
 800216a:	2301      	movs	r3, #1
 800216c:	e0e6      	b.n	800233c <HAL_RCC_OscConfig+0x700>
      }
    }
    else
    {
      /* Check the HSI48 State */
      if(RCC_OscInitStruct->HSI48State != RCC_HSI48_OFF)
 800216e:	687b      	ldr	r3, [r7, #4]
 8002170:	6a1b      	ldr	r3, [r3, #32]
 8002172:	2b00      	cmp	r3, #0
 8002174:	d01b      	beq.n	80021ae <HAL_RCC_OscConfig+0x572>
      {
        /* Enable the Internal High Speed oscillator (HSI48). */
        __HAL_RCC_HSI48_ENABLE();
 8002176:	4b50      	ldr	r3, [pc, #320]	; (80022b8 <HAL_RCC_OscConfig+0x67c>)
 8002178:	6b5a      	ldr	r2, [r3, #52]	; 0x34
 800217a:	4b4f      	ldr	r3, [pc, #316]	; (80022b8 <HAL_RCC_OscConfig+0x67c>)
 800217c:	2180      	movs	r1, #128	; 0x80
 800217e:	0249      	lsls	r1, r1, #9
 8002180:	430a      	orrs	r2, r1
 8002182:	635a      	str	r2, [r3, #52]	; 0x34

        /* Get Start Tick */
        tickstart = HAL_GetTick();
 8002184:	f7ff fae2 	bl	800174c <HAL_GetTick>
 8002188:	0003      	movs	r3, r0
 800218a:	61bb      	str	r3, [r7, #24]
      
        /* Wait till HSI48 is ready */  
        while(__HAL_RCC_GET_FLAG(RCC_FLAG_HSI48RDY) == RESET)
 800218c:	e008      	b.n	80021a0 <HAL_RCC_OscConfig+0x564>
        {
          if((HAL_GetTick() - tickstart) > HSI48_TIMEOUT_VALUE)
 800218e:	f7ff fadd 	bl	800174c <HAL_GetTick>
 8002192:	0002      	movs	r2, r0
 8002194:	69bb      	ldr	r3, [r7, #24]
 8002196:	1ad3      	subs	r3, r2, r3
 8002198:	2b02      	cmp	r3, #2
 800219a:	d901      	bls.n	80021a0 <HAL_RCC_OscConfig+0x564>
          {
            return HAL_TIMEOUT;
 800219c:	2303      	movs	r3, #3
 800219e:	e0cd      	b.n	800233c <HAL_RCC_OscConfig+0x700>
        while(__HAL_RCC_GET_FLAG(RCC_FLAG_HSI48RDY) == RESET)
 80021a0:	4b45      	ldr	r3, [pc, #276]	; (80022b8 <HAL_RCC_OscConfig+0x67c>)
 80021a2:	6b5a      	ldr	r2, [r3, #52]	; 0x34
 80021a4:	2380      	movs	r3, #128	; 0x80
 80021a6:	025b      	lsls	r3, r3, #9
 80021a8:	4013      	ands	r3, r2
 80021aa:	d0f0      	beq.n	800218e <HAL_RCC_OscConfig+0x552>
 80021ac:	e01b      	b.n	80021e6 <HAL_RCC_OscConfig+0x5aa>
        } 
      }
      else
      {
        /* Disable the Internal High Speed oscillator (HSI48). */
        __HAL_RCC_HSI48_DISABLE();
 80021ae:	4b42      	ldr	r3, [pc, #264]	; (80022b8 <HAL_RCC_OscConfig+0x67c>)
 80021b0:	6b5a      	ldr	r2, [r3, #52]	; 0x34
 80021b2:	4b41      	ldr	r3, [pc, #260]	; (80022b8 <HAL_RCC_OscConfig+0x67c>)
 80021b4:	4943      	ldr	r1, [pc, #268]	; (80022c4 <HAL_RCC_OscConfig+0x688>)
 80021b6:	400a      	ands	r2, r1
 80021b8:	635a      	str	r2, [r3, #52]	; 0x34

        /* Get Start Tick */
        tickstart = HAL_GetTick();
 80021ba:	f7ff fac7 	bl	800174c <HAL_GetTick>
 80021be:	0003      	movs	r3, r0
 80021c0:	61bb      	str	r3, [r7, #24]
      
        /* Wait till HSI48 is ready */  
        while(__HAL_RCC_GET_FLAG(RCC_FLAG_HSI48RDY) != RESET)
 80021c2:	e008      	b.n	80021d6 <HAL_RCC_OscConfig+0x59a>
        {
          if((HAL_GetTick() - tickstart) > HSI48_TIMEOUT_VALUE)
 80021c4:	f7ff fac2 	bl	800174c <HAL_GetTick>
 80021c8:	0002      	movs	r2, r0
 80021ca:	69bb      	ldr	r3, [r7, #24]
 80021cc:	1ad3      	subs	r3, r2, r3
 80021ce:	2b02      	cmp	r3, #2
 80021d0:	d901      	bls.n	80021d6 <HAL_RCC_OscConfig+0x59a>
          {
            return HAL_TIMEOUT;
 80021d2:	2303      	movs	r3, #3
 80021d4:	e0b2      	b.n	800233c <HAL_RCC_OscConfig+0x700>
        while(__HAL_RCC_GET_FLAG(RCC_FLAG_HSI48RDY) != RESET)
 80021d6:	4b38      	ldr	r3, [pc, #224]	; (80022b8 <HAL_RCC_OscConfig+0x67c>)
 80021d8:	6b5a      	ldr	r2, [r3, #52]	; 0x34
 80021da:	2380      	movs	r3, #128	; 0x80
 80021dc:	025b      	lsls	r3, r3, #9
 80021de:	4013      	ands	r3, r2
 80021e0:	d1f0      	bne.n	80021c4 <HAL_RCC_OscConfig+0x588>
 80021e2:	e000      	b.n	80021e6 <HAL_RCC_OscConfig+0x5aa>
      if((__HAL_RCC_GET_FLAG(RCC_FLAG_HSI48RDY) != RESET) && (RCC_OscInitStruct->HSI48State != RCC_HSI48_ON))
 80021e4:	46c0      	nop			; (mov r8, r8)
#endif /* RCC_HSI48_SUPPORT */
       
  /*-------------------------------- PLL Configuration -----------------------*/
  /* Check the parameters */
  assert_param(IS_RCC_PLL(RCC_OscInitStruct->PLL.PLLState));
  if ((RCC_OscInitStruct->PLL.PLLState) != RCC_PLL_NONE)
 80021e6:	687b      	ldr	r3, [r7, #4]
 80021e8:	6a5b      	ldr	r3, [r3, #36]	; 0x24
 80021ea:	2b00      	cmp	r3, #0
 80021ec:	d100      	bne.n	80021f0 <HAL_RCC_OscConfig+0x5b4>
 80021ee:	e0a4      	b.n	800233a <HAL_RCC_OscConfig+0x6fe>
  {
    /* Check if the PLL is used as system clock or not */
    if(__HAL_RCC_GET_SYSCLK_SOURCE() != RCC_SYSCLKSOURCE_STATUS_PLLCLK)
 80021f0:	4b31      	ldr	r3, [pc, #196]	; (80022b8 <HAL_RCC_OscConfig+0x67c>)
 80021f2:	685b      	ldr	r3, [r3, #4]
 80021f4:	220c      	movs	r2, #12
 80021f6:	4013      	ands	r3, r2
 80021f8:	2b08      	cmp	r3, #8
 80021fa:	d100      	bne.n	80021fe <HAL_RCC_OscConfig+0x5c2>
 80021fc:	e078      	b.n	80022f0 <HAL_RCC_OscConfig+0x6b4>
    { 
      if((RCC_OscInitStruct->PLL.PLLState) == RCC_PLL_ON)
 80021fe:	687b      	ldr	r3, [r7, #4]
 8002200:	6a5b      	ldr	r3, [r3, #36]	; 0x24
 8002202:	2b02      	cmp	r3, #2
 8002204:	d14c      	bne.n	80022a0 <HAL_RCC_OscConfig+0x664>
        assert_param(IS_RCC_PLLSOURCE(RCC_OscInitStruct->PLL.PLLSource));
        assert_param(IS_RCC_PLL_MUL(RCC_OscInitStruct->PLL.PLLMUL));
        assert_param(IS_RCC_PREDIV(RCC_OscInitStruct->PLL.PREDIV));
  
        /* Disable the main PLL. */
        __HAL_RCC_PLL_DISABLE();
 8002206:	4b2c      	ldr	r3, [pc, #176]	; (80022b8 <HAL_RCC_OscConfig+0x67c>)
 8002208:	681a      	ldr	r2, [r3, #0]
 800220a:	4b2b      	ldr	r3, [pc, #172]	; (80022b8 <HAL_RCC_OscConfig+0x67c>)
 800220c:	492e      	ldr	r1, [pc, #184]	; (80022c8 <HAL_RCC_OscConfig+0x68c>)
 800220e:	400a      	ands	r2, r1
 8002210:	601a      	str	r2, [r3, #0]
        
        /* Get Start Tick */
        tickstart = HAL_GetTick();
 8002212:	f7ff fa9b 	bl	800174c <HAL_GetTick>
 8002216:	0003      	movs	r3, r0
 8002218:	61bb      	str	r3, [r7, #24]
        
        /* Wait till PLL is disabled */
        while(__HAL_RCC_GET_FLAG(RCC_FLAG_PLLRDY)  != RESET)
 800221a:	e008      	b.n	800222e <HAL_RCC_OscConfig+0x5f2>
        {
          if((HAL_GetTick() - tickstart ) > PLL_TIMEOUT_VALUE)
 800221c:	f7ff fa96 	bl	800174c <HAL_GetTick>
 8002220:	0002      	movs	r2, r0
 8002222:	69bb      	ldr	r3, [r7, #24]
 8002224:	1ad3      	subs	r3, r2, r3
 8002226:	2b02      	cmp	r3, #2
 8002228:	d901      	bls.n	800222e <HAL_RCC_OscConfig+0x5f2>
          {
            return HAL_TIMEOUT;
 800222a:	2303      	movs	r3, #3
 800222c:	e086      	b.n	800233c <HAL_RCC_OscConfig+0x700>
        while(__HAL_RCC_GET_FLAG(RCC_FLAG_PLLRDY)  != RESET)
 800222e:	4b22      	ldr	r3, [pc, #136]	; (80022b8 <HAL_RCC_OscConfig+0x67c>)
 8002230:	681a      	ldr	r2, [r3, #0]
 8002232:	2380      	movs	r3, #128	; 0x80
 8002234:	049b      	lsls	r3, r3, #18
 8002236:	4013      	ands	r3, r2
 8002238:	d1f0      	bne.n	800221c <HAL_RCC_OscConfig+0x5e0>
          }
        }

        /* Configure the main PLL clock source, predivider and multiplication factor. */
        __HAL_RCC_PLL_CONFIG(RCC_OscInitStruct->PLL.PLLSource,
 800223a:	4b1f      	ldr	r3, [pc, #124]	; (80022b8 <HAL_RCC_OscConfig+0x67c>)
 800223c:	6adb      	ldr	r3, [r3, #44]	; 0x2c
 800223e:	220f      	movs	r2, #15
 8002240:	4393      	bics	r3, r2
 8002242:	0019      	movs	r1, r3
 8002244:	687b      	ldr	r3, [r7, #4]
 8002246:	6b1a      	ldr	r2, [r3, #48]	; 0x30
 8002248:	4b1b      	ldr	r3, [pc, #108]	; (80022b8 <HAL_RCC_OscConfig+0x67c>)
 800224a:	430a      	orrs	r2, r1
 800224c:	62da      	str	r2, [r3, #44]	; 0x2c
 800224e:	4b1a      	ldr	r3, [pc, #104]	; (80022b8 <HAL_RCC_OscConfig+0x67c>)
 8002250:	685b      	ldr	r3, [r3, #4]
 8002252:	4a1e      	ldr	r2, [pc, #120]	; (80022cc <HAL_RCC_OscConfig+0x690>)
 8002254:	4013      	ands	r3, r2
 8002256:	0019      	movs	r1, r3
 8002258:	687b      	ldr	r3, [r7, #4]
 800225a:	6ada      	ldr	r2, [r3, #44]	; 0x2c
 800225c:	687b      	ldr	r3, [r7, #4]
 800225e:	6a9b      	ldr	r3, [r3, #40]	; 0x28
 8002260:	431a      	orrs	r2, r3
 8002262:	4b15      	ldr	r3, [pc, #84]	; (80022b8 <HAL_RCC_OscConfig+0x67c>)
 8002264:	430a      	orrs	r2, r1
 8002266:	605a      	str	r2, [r3, #4]
                             RCC_OscInitStruct->PLL.PREDIV,
                             RCC_OscInitStruct->PLL.PLLMUL);
        /* Enable the main PLL. */
        __HAL_RCC_PLL_ENABLE();
 8002268:	4b13      	ldr	r3, [pc, #76]	; (80022b8 <HAL_RCC_OscConfig+0x67c>)
 800226a:	681a      	ldr	r2, [r3, #0]
 800226c:	4b12      	ldr	r3, [pc, #72]	; (80022b8 <HAL_RCC_OscConfig+0x67c>)
 800226e:	2180      	movs	r1, #128	; 0x80
 8002270:	0449      	lsls	r1, r1, #17
 8002272:	430a      	orrs	r2, r1
 8002274:	601a      	str	r2, [r3, #0]
        
        /* Get Start Tick */
        tickstart = HAL_GetTick();
 8002276:	f7ff fa69 	bl	800174c <HAL_GetTick>
 800227a:	0003      	movs	r3, r0
 800227c:	61bb      	str	r3, [r7, #24]
        
        /* Wait till PLL is ready */
        while(__HAL_RCC_GET_FLAG(RCC_FLAG_PLLRDY)  == RESET)
 800227e:	e008      	b.n	8002292 <HAL_RCC_OscConfig+0x656>
        {
          if((HAL_GetTick() - tickstart ) > PLL_TIMEOUT_VALUE)
 8002280:	f7ff fa64 	bl	800174c <HAL_GetTick>
 8002284:	0002      	movs	r2, r0
 8002286:	69bb      	ldr	r3, [r7, #24]
 8002288:	1ad3      	subs	r3, r2, r3
 800228a:	2b02      	cmp	r3, #2
 800228c:	d901      	bls.n	8002292 <HAL_RCC_OscConfig+0x656>
          {
            return HAL_TIMEOUT;
 800228e:	2303      	movs	r3, #3
 8002290:	e054      	b.n	800233c <HAL_RCC_OscConfig+0x700>
        while(__HAL_RCC_GET_FLAG(RCC_FLAG_PLLRDY)  == RESET)
 8002292:	4b09      	ldr	r3, [pc, #36]	; (80022b8 <HAL_RCC_OscConfig+0x67c>)
 8002294:	681a      	ldr	r2, [r3, #0]
 8002296:	2380      	movs	r3, #128	; 0x80
 8002298:	049b      	lsls	r3, r3, #18
 800229a:	4013      	ands	r3, r2
 800229c:	d0f0      	beq.n	8002280 <HAL_RCC_OscConfig+0x644>
 800229e:	e04c      	b.n	800233a <HAL_RCC_OscConfig+0x6fe>
        }
      }
      else
      {
        /* Disable the main PLL. */
        __HAL_RCC_PLL_DISABLE();
 80022a0:	4b05      	ldr	r3, [pc, #20]	; (80022b8 <HAL_RCC_OscConfig+0x67c>)
 80022a2:	681a      	ldr	r2, [r3, #0]
 80022a4:	4b04      	ldr	r3, [pc, #16]	; (80022b8 <HAL_RCC_OscConfig+0x67c>)
 80022a6:	4908      	ldr	r1, [pc, #32]	; (80022c8 <HAL_RCC_OscConfig+0x68c>)
 80022a8:	400a      	ands	r2, r1
 80022aa:	601a      	str	r2, [r3, #0]
 
        /* Get Start Tick */
        tickstart = HAL_GetTick();
 80022ac:	f7ff fa4e 	bl	800174c <HAL_GetTick>
 80022b0:	0003      	movs	r3, r0
 80022b2:	61bb      	str	r3, [r7, #24]
        
        /* Wait till PLL is disabled */  
        while(__HAL_RCC_GET_FLAG(RCC_FLAG_PLLRDY)  != RESET)
 80022b4:	e015      	b.n	80022e2 <HAL_RCC_OscConfig+0x6a6>
 80022b6:	46c0      	nop			; (mov r8, r8)
 80022b8:	40021000 	.word	0x40021000
 80022bc:	00001388 	.word	0x00001388
 80022c0:	efffffff 	.word	0xefffffff
 80022c4:	fffeffff 	.word	0xfffeffff
 80022c8:	feffffff 	.word	0xfeffffff
 80022cc:	ffc27fff 	.word	0xffc27fff
        {
          if((HAL_GetTick() - tickstart ) > PLL_TIMEOUT_VALUE)
 80022d0:	f7ff fa3c 	bl	800174c <HAL_GetTick>
 80022d4:	0002      	movs	r2, r0
 80022d6:	69bb      	ldr	r3, [r7, #24]
 80022d8:	1ad3      	subs	r3, r2, r3
 80022da:	2b02      	cmp	r3, #2
 80022dc:	d901      	bls.n	80022e2 <HAL_RCC_OscConfig+0x6a6>
          {
            return HAL_TIMEOUT;
 80022de:	2303      	movs	r3, #3
 80022e0:	e02c      	b.n	800233c <HAL_RCC_OscConfig+0x700>
        while(__HAL_RCC_GET_FLAG(RCC_FLAG_PLLRDY)  != RESET)
 80022e2:	4b18      	ldr	r3, [pc, #96]	; (8002344 <HAL_RCC_OscConfig+0x708>)
 80022e4:	681a      	ldr	r2, [r3, #0]
 80022e6:	2380      	movs	r3, #128	; 0x80
 80022e8:	049b      	lsls	r3, r3, #18
 80022ea:	4013      	ands	r3, r2
 80022ec:	d1f0      	bne.n	80022d0 <HAL_RCC_OscConfig+0x694>
 80022ee:	e024      	b.n	800233a <HAL_RCC_OscConfig+0x6fe>
      }
    }
    else
    {
      /* Check if there is a request to disable the PLL used as System clock source */
      if((RCC_OscInitStruct->PLL.PLLState) == RCC_PLL_OFF)
 80022f0:	687b      	ldr	r3, [r7, #4]
 80022f2:	6a5b      	ldr	r3, [r3, #36]	; 0x24
 80022f4:	2b01      	cmp	r3, #1
 80022f6:	d101      	bne.n	80022fc <HAL_RCC_OscConfig+0x6c0>
      {
        return HAL_ERROR;
 80022f8:	2301      	movs	r3, #1
 80022fa:	e01f      	b.n	800233c <HAL_RCC_OscConfig+0x700>
      }
      else
      {
        /* Do not return HAL_ERROR if request repeats the current configuration */
        pll_config  = RCC->CFGR;
 80022fc:	4b11      	ldr	r3, [pc, #68]	; (8002344 <HAL_RCC_OscConfig+0x708>)
 80022fe:	685b      	ldr	r3, [r3, #4]
 8002300:	617b      	str	r3, [r7, #20]
        pll_config2 = RCC->CFGR2;
 8002302:	4b10      	ldr	r3, [pc, #64]	; (8002344 <HAL_RCC_OscConfig+0x708>)
 8002304:	6adb      	ldr	r3, [r3, #44]	; 0x2c
 8002306:	613b      	str	r3, [r7, #16]
        if((READ_BIT(pll_config,  RCC_CFGR_PLLSRC)  != RCC_OscInitStruct->PLL.PLLSource) ||
 8002308:	697a      	ldr	r2, [r7, #20]
 800230a:	23c0      	movs	r3, #192	; 0xc0
 800230c:	025b      	lsls	r3, r3, #9
 800230e:	401a      	ands	r2, r3
 8002310:	687b      	ldr	r3, [r7, #4]
 8002312:	6a9b      	ldr	r3, [r3, #40]	; 0x28
 8002314:	429a      	cmp	r2, r3
 8002316:	d10e      	bne.n	8002336 <HAL_RCC_OscConfig+0x6fa>
           (READ_BIT(pll_config2, RCC_CFGR2_PREDIV) != RCC_OscInitStruct->PLL.PREDIV)    ||
 8002318:	693b      	ldr	r3, [r7, #16]
 800231a:	220f      	movs	r2, #15
 800231c:	401a      	ands	r2, r3
 800231e:	687b      	ldr	r3, [r7, #4]
 8002320:	6b1b      	ldr	r3, [r3, #48]	; 0x30
        if((READ_BIT(pll_config,  RCC_CFGR_PLLSRC)  != RCC_OscInitStruct->PLL.PLLSource) ||
 8002322:	429a      	cmp	r2, r3
 8002324:	d107      	bne.n	8002336 <HAL_RCC_OscConfig+0x6fa>
           (READ_BIT(pll_config,  RCC_CFGR_PLLMUL)  != RCC_OscInitStruct->PLL.PLLMUL))
 8002326:	697a      	ldr	r2, [r7, #20]
 8002328:	23f0      	movs	r3, #240	; 0xf0
 800232a:	039b      	lsls	r3, r3, #14
 800232c:	401a      	ands	r2, r3
 800232e:	687b      	ldr	r3, [r7, #4]
 8002330:	6adb      	ldr	r3, [r3, #44]	; 0x2c
           (READ_BIT(pll_config2, RCC_CFGR2_PREDIV) != RCC_OscInitStruct->PLL.PREDIV)    ||
 8002332:	429a      	cmp	r2, r3
 8002334:	d001      	beq.n	800233a <HAL_RCC_OscConfig+0x6fe>
        {
          return HAL_ERROR;
 8002336:	2301      	movs	r3, #1
 8002338:	e000      	b.n	800233c <HAL_RCC_OscConfig+0x700>
        }
      }
    }
  }

  return HAL_OK;
 800233a:	2300      	movs	r3, #0
}
 800233c:	0018      	movs	r0, r3
 800233e:	46bd      	mov	sp, r7
 8002340:	b008      	add	sp, #32
 8002342:	bd80      	pop	{r7, pc}
 8002344:	40021000 	.word	0x40021000

08002348 <HAL_RCC_ClockConfig>:
  *         You can use @ref HAL_RCC_GetClockConfig() function to know which clock is
  *         currently used as system clock source.
  * @retval HAL status
  */
HAL_StatusTypeDef HAL_RCC_ClockConfig(RCC_ClkInitTypeDef  *RCC_ClkInitStruct, uint32_t FLatency)
{
 8002348:	b580      	push	{r7, lr}
 800234a:	b084      	sub	sp, #16
 800234c:	af00      	add	r7, sp, #0
 800234e:	6078      	str	r0, [r7, #4]
 8002350:	6039      	str	r1, [r7, #0]
  uint32_t tickstart;

  /* Check Null pointer */
  if(RCC_ClkInitStruct == NULL)
 8002352:	687b      	ldr	r3, [r7, #4]
 8002354:	2b00      	cmp	r3, #0
 8002356:	d101      	bne.n	800235c <HAL_RCC_ClockConfig+0x14>
  {
    return HAL_ERROR;
 8002358:	2301      	movs	r3, #1
 800235a:	e0bf      	b.n	80024dc <HAL_RCC_ClockConfig+0x194>
  /* To correctly read data from FLASH memory, the number of wait states (LATENCY) 
  must be correctly programmed according to the frequency of the CPU clock 
    (HCLK) of the device. */

  /* Increasing the number of wait states because of higher CPU frequency */
  if(FLatency > __HAL_FLASH_GET_LATENCY())
 800235c:	4b61      	ldr	r3, [pc, #388]	; (80024e4 <HAL_RCC_ClockConfig+0x19c>)
 800235e:	681b      	ldr	r3, [r3, #0]
 8002360:	2201      	movs	r2, #1
 8002362:	4013      	ands	r3, r2
 8002364:	683a      	ldr	r2, [r7, #0]
 8002366:	429a      	cmp	r2, r3
 8002368:	d911      	bls.n	800238e <HAL_RCC_ClockConfig+0x46>
  {    
    /* Program the new number of wait states to the LATENCY bits in the FLASH_ACR register */
    __HAL_FLASH_SET_LATENCY(FLatency);
 800236a:	4b5e      	ldr	r3, [pc, #376]	; (80024e4 <HAL_RCC_ClockConfig+0x19c>)
 800236c:	681b      	ldr	r3, [r3, #0]
 800236e:	2201      	movs	r2, #1
 8002370:	4393      	bics	r3, r2
 8002372:	0019      	movs	r1, r3
 8002374:	4b5b      	ldr	r3, [pc, #364]	; (80024e4 <HAL_RCC_ClockConfig+0x19c>)
 8002376:	683a      	ldr	r2, [r7, #0]
 8002378:	430a      	orrs	r2, r1
 800237a:	601a      	str	r2, [r3, #0]
    
    /* Check that the new number of wait states is taken into account to access the Flash
    memory by reading the FLASH_ACR register */
    if(__HAL_FLASH_GET_LATENCY() != FLatency)
 800237c:	4b59      	ldr	r3, [pc, #356]	; (80024e4 <HAL_RCC_ClockConfig+0x19c>)
 800237e:	681b      	ldr	r3, [r3, #0]
 8002380:	2201      	movs	r2, #1
 8002382:	4013      	ands	r3, r2
 8002384:	683a      	ldr	r2, [r7, #0]
 8002386:	429a      	cmp	r2, r3
 8002388:	d001      	beq.n	800238e <HAL_RCC_ClockConfig+0x46>
    {
      return HAL_ERROR;
 800238a:	2301      	movs	r3, #1
 800238c:	e0a6      	b.n	80024dc <HAL_RCC_ClockConfig+0x194>
    }
  }

  /*-------------------------- HCLK Configuration --------------------------*/
  if(((RCC_ClkInitStruct->ClockType) & RCC_CLOCKTYPE_HCLK) == RCC_CLOCKTYPE_HCLK)
 800238e:	687b      	ldr	r3, [r7, #4]
 8002390:	681b      	ldr	r3, [r3, #0]
 8002392:	2202      	movs	r2, #2
 8002394:	4013      	ands	r3, r2
 8002396:	d015      	beq.n	80023c4 <HAL_RCC_ClockConfig+0x7c>
  {
    /* Set the highest APB divider in order to ensure that we do not go through
       a non-spec phase whatever we decrease or increase HCLK. */
    if(((RCC_ClkInitStruct->ClockType) & RCC_CLOCKTYPE_PCLK1) == RCC_CLOCKTYPE_PCLK1)
 8002398:	687b      	ldr	r3, [r7, #4]
 800239a:	681b      	ldr	r3, [r3, #0]
 800239c:	2204      	movs	r2, #4
 800239e:	4013      	ands	r3, r2
 80023a0:	d006      	beq.n	80023b0 <HAL_RCC_ClockConfig+0x68>
    {
      MODIFY_REG(RCC->CFGR, RCC_CFGR_PPRE, RCC_HCLK_DIV16);
 80023a2:	4b51      	ldr	r3, [pc, #324]	; (80024e8 <HAL_RCC_ClockConfig+0x1a0>)
 80023a4:	685a      	ldr	r2, [r3, #4]
 80023a6:	4b50      	ldr	r3, [pc, #320]	; (80024e8 <HAL_RCC_ClockConfig+0x1a0>)
 80023a8:	21e0      	movs	r1, #224	; 0xe0
 80023aa:	00c9      	lsls	r1, r1, #3
 80023ac:	430a      	orrs	r2, r1
 80023ae:	605a      	str	r2, [r3, #4]
    }

    /* Set the new HCLK clock divider */
    assert_param(IS_RCC_HCLK(RCC_ClkInitStruct->AHBCLKDivider));
    MODIFY_REG(RCC->CFGR, RCC_CFGR_HPRE, RCC_ClkInitStruct->AHBCLKDivider);
 80023b0:	4b4d      	ldr	r3, [pc, #308]	; (80024e8 <HAL_RCC_ClockConfig+0x1a0>)
 80023b2:	685b      	ldr	r3, [r3, #4]
 80023b4:	22f0      	movs	r2, #240	; 0xf0
 80023b6:	4393      	bics	r3, r2
 80023b8:	0019      	movs	r1, r3
 80023ba:	687b      	ldr	r3, [r7, #4]
 80023bc:	689a      	ldr	r2, [r3, #8]
 80023be:	4b4a      	ldr	r3, [pc, #296]	; (80024e8 <HAL_RCC_ClockConfig+0x1a0>)
 80023c0:	430a      	orrs	r2, r1
 80023c2:	605a      	str	r2, [r3, #4]
  }

  /*------------------------- SYSCLK Configuration ---------------------------*/ 
  if(((RCC_ClkInitStruct->ClockType) & RCC_CLOCKTYPE_SYSCLK) == RCC_CLOCKTYPE_SYSCLK)
 80023c4:	687b      	ldr	r3, [r7, #4]
 80023c6:	681b      	ldr	r3, [r3, #0]
 80023c8:	2201      	movs	r2, #1
 80023ca:	4013      	ands	r3, r2
 80023cc:	d04c      	beq.n	8002468 <HAL_RCC_ClockConfig+0x120>
  {
    assert_param(IS_RCC_SYSCLKSOURCE(RCC_ClkInitStruct->SYSCLKSource));
    
    /* HSE is selected as System Clock Source */
    if(RCC_ClkInitStruct->SYSCLKSource == RCC_SYSCLKSOURCE_HSE)
 80023ce:	687b      	ldr	r3, [r7, #4]
 80023d0:	685b      	ldr	r3, [r3, #4]
 80023d2:	2b01      	cmp	r3, #1
 80023d4:	d107      	bne.n	80023e6 <HAL_RCC_ClockConfig+0x9e>
    {
      /* Check the HSE ready flag */  
      if(__HAL_RCC_GET_FLAG(RCC_FLAG_HSERDY) == RESET)
 80023d6:	4b44      	ldr	r3, [pc, #272]	; (80024e8 <HAL_RCC_ClockConfig+0x1a0>)
 80023d8:	681a      	ldr	r2, [r3, #0]
 80023da:	2380      	movs	r3, #128	; 0x80
 80023dc:	029b      	lsls	r3, r3, #10
 80023de:	4013      	ands	r3, r2
 80023e0:	d120      	bne.n	8002424 <HAL_RCC_ClockConfig+0xdc>
      {
        return HAL_ERROR;
 80023e2:	2301      	movs	r3, #1
 80023e4:	e07a      	b.n	80024dc <HAL_RCC_ClockConfig+0x194>
      }
    }
    /* PLL is selected as System Clock Source */
    else if(RCC_ClkInitStruct->SYSCLKSource == RCC_SYSCLKSOURCE_PLLCLK)
 80023e6:	687b      	ldr	r3, [r7, #4]
 80023e8:	685b      	ldr	r3, [r3, #4]
 80023ea:	2b02      	cmp	r3, #2
 80023ec:	d107      	bne.n	80023fe <HAL_RCC_ClockConfig+0xb6>
    {
      /* Check the PLL ready flag */  
      if(__HAL_RCC_GET_FLAG(RCC_FLAG_PLLRDY) == RESET)
 80023ee:	4b3e      	ldr	r3, [pc, #248]	; (80024e8 <HAL_RCC_ClockConfig+0x1a0>)
 80023f0:	681a      	ldr	r2, [r3, #0]
 80023f2:	2380      	movs	r3, #128	; 0x80
 80023f4:	049b      	lsls	r3, r3, #18
 80023f6:	4013      	ands	r3, r2
 80023f8:	d114      	bne.n	8002424 <HAL_RCC_ClockConfig+0xdc>
      {
        return HAL_ERROR;
 80023fa:	2301      	movs	r3, #1
 80023fc:	e06e      	b.n	80024dc <HAL_RCC_ClockConfig+0x194>
      }
    }
#if defined(RCC_CFGR_SWS_HSI48)
    /* HSI48 is selected as System Clock Source */
    else if(RCC_ClkInitStruct->SYSCLKSource == RCC_SYSCLKSOURCE_HSI48)
 80023fe:	687b      	ldr	r3, [r7, #4]
 8002400:	685b      	ldr	r3, [r3, #4]
 8002402:	2b03      	cmp	r3, #3
 8002404:	d107      	bne.n	8002416 <HAL_RCC_ClockConfig+0xce>
    {
      /* Check the HSI48 ready flag */
      if(__HAL_RCC_GET_FLAG(RCC_FLAG_HSI48RDY) == RESET)
 8002406:	4b38      	ldr	r3, [pc, #224]	; (80024e8 <HAL_RCC_ClockConfig+0x1a0>)
 8002408:	6b5a      	ldr	r2, [r3, #52]	; 0x34
 800240a:	2380      	movs	r3, #128	; 0x80
 800240c:	025b      	lsls	r3, r3, #9
 800240e:	4013      	ands	r3, r2
 8002410:	d108      	bne.n	8002424 <HAL_RCC_ClockConfig+0xdc>
      {
        return HAL_ERROR;
 8002412:	2301      	movs	r3, #1
 8002414:	e062      	b.n	80024dc <HAL_RCC_ClockConfig+0x194>
#endif /* RCC_CFGR_SWS_HSI48 */
    /* HSI is selected as System Clock Source */
    else
    {
      /* Check the HSI ready flag */  
      if(__HAL_RCC_GET_FLAG(RCC_FLAG_HSIRDY) == RESET)
 8002416:	4b34      	ldr	r3, [pc, #208]	; (80024e8 <HAL_RCC_ClockConfig+0x1a0>)
 8002418:	681b      	ldr	r3, [r3, #0]
 800241a:	2202      	movs	r2, #2
 800241c:	4013      	ands	r3, r2
 800241e:	d101      	bne.n	8002424 <HAL_RCC_ClockConfig+0xdc>
      {
        return HAL_ERROR;
 8002420:	2301      	movs	r3, #1
 8002422:	e05b      	b.n	80024dc <HAL_RCC_ClockConfig+0x194>
      }
    }
    __HAL_RCC_SYSCLK_CONFIG(RCC_ClkInitStruct->SYSCLKSource);
 8002424:	4b30      	ldr	r3, [pc, #192]	; (80024e8 <HAL_RCC_ClockConfig+0x1a0>)
 8002426:	685b      	ldr	r3, [r3, #4]
 8002428:	2203      	movs	r2, #3
 800242a:	4393      	bics	r3, r2
 800242c:	0019      	movs	r1, r3
 800242e:	687b      	ldr	r3, [r7, #4]
 8002430:	685a      	ldr	r2, [r3, #4]
 8002432:	4b2d      	ldr	r3, [pc, #180]	; (80024e8 <HAL_RCC_ClockConfig+0x1a0>)
 8002434:	430a      	orrs	r2, r1
 8002436:	605a      	str	r2, [r3, #4]

    /* Get Start Tick */
    tickstart = HAL_GetTick();
 8002438:	f7ff f988 	bl	800174c <HAL_GetTick>
 800243c:	0003      	movs	r3, r0
 800243e:	60fb      	str	r3, [r7, #12]
    
    while (__HAL_RCC_GET_SYSCLK_SOURCE() != (RCC_ClkInitStruct->SYSCLKSource << RCC_CFGR_SWS_Pos))
 8002440:	e009      	b.n	8002456 <HAL_RCC_ClockConfig+0x10e>
    {
      if((HAL_GetTick() - tickstart ) > CLOCKSWITCH_TIMEOUT_VALUE)
 8002442:	f7ff f983 	bl	800174c <HAL_GetTick>
 8002446:	0002      	movs	r2, r0
 8002448:	68fb      	ldr	r3, [r7, #12]
 800244a:	1ad3      	subs	r3, r2, r3
 800244c:	4a27      	ldr	r2, [pc, #156]	; (80024ec <HAL_RCC_ClockConfig+0x1a4>)
 800244e:	4293      	cmp	r3, r2
 8002450:	d901      	bls.n	8002456 <HAL_RCC_ClockConfig+0x10e>
      {
        return HAL_TIMEOUT;
 8002452:	2303      	movs	r3, #3
 8002454:	e042      	b.n	80024dc <HAL_RCC_ClockConfig+0x194>
    while (__HAL_RCC_GET_SYSCLK_SOURCE() != (RCC_ClkInitStruct->SYSCLKSource << RCC_CFGR_SWS_Pos))
 8002456:	4b24      	ldr	r3, [pc, #144]	; (80024e8 <HAL_RCC_ClockConfig+0x1a0>)
 8002458:	685b      	ldr	r3, [r3, #4]
 800245a:	220c      	movs	r2, #12
 800245c:	401a      	ands	r2, r3
 800245e:	687b      	ldr	r3, [r7, #4]
 8002460:	685b      	ldr	r3, [r3, #4]
 8002462:	009b      	lsls	r3, r3, #2
 8002464:	429a      	cmp	r2, r3
 8002466:	d1ec      	bne.n	8002442 <HAL_RCC_ClockConfig+0xfa>
      }
    }
  }

  /* Decreasing the number of wait states because of lower CPU frequency */
  if(FLatency < __HAL_FLASH_GET_LATENCY())
 8002468:	4b1e      	ldr	r3, [pc, #120]	; (80024e4 <HAL_RCC_ClockConfig+0x19c>)
 800246a:	681b      	ldr	r3, [r3, #0]
 800246c:	2201      	movs	r2, #1
 800246e:	4013      	ands	r3, r2
 8002470:	683a      	ldr	r2, [r7, #0]
 8002472:	429a      	cmp	r2, r3
 8002474:	d211      	bcs.n	800249a <HAL_RCC_ClockConfig+0x152>
  {    
    /* Program the new number of wait states to the LATENCY bits in the FLASH_ACR register */
    __HAL_FLASH_SET_LATENCY(FLatency);
 8002476:	4b1b      	ldr	r3, [pc, #108]	; (80024e4 <HAL_RCC_ClockConfig+0x19c>)
 8002478:	681b      	ldr	r3, [r3, #0]
 800247a:	2201      	movs	r2, #1
 800247c:	4393      	bics	r3, r2
 800247e:	0019      	movs	r1, r3
 8002480:	4b18      	ldr	r3, [pc, #96]	; (80024e4 <HAL_RCC_ClockConfig+0x19c>)
 8002482:	683a      	ldr	r2, [r7, #0]
 8002484:	430a      	orrs	r2, r1
 8002486:	601a      	str	r2, [r3, #0]
    
    /* Check that the new number of wait states is taken into account to access the Flash
    memory by reading the FLASH_ACR register */
    if(__HAL_FLASH_GET_LATENCY() != FLatency)
 8002488:	4b16      	ldr	r3, [pc, #88]	; (80024e4 <HAL_RCC_ClockConfig+0x19c>)
 800248a:	681b      	ldr	r3, [r3, #0]
 800248c:	2201      	movs	r2, #1
 800248e:	4013      	ands	r3, r2
 8002490:	683a      	ldr	r2, [r7, #0]
 8002492:	429a      	cmp	r2, r3
 8002494:	d001      	beq.n	800249a <HAL_RCC_ClockConfig+0x152>
    {
      return HAL_ERROR;
 8002496:	2301      	movs	r3, #1
 8002498:	e020      	b.n	80024dc <HAL_RCC_ClockConfig+0x194>
    }
  }    

  /*-------------------------- PCLK1 Configuration ---------------------------*/ 
  if(((RCC_ClkInitStruct->ClockType) & RCC_CLOCKTYPE_PCLK1) == RCC_CLOCKTYPE_PCLK1)
 800249a:	687b      	ldr	r3, [r7, #4]
 800249c:	681b      	ldr	r3, [r3, #0]
 800249e:	2204      	movs	r2, #4
 80024a0:	4013      	ands	r3, r2
 80024a2:	d009      	beq.n	80024b8 <HAL_RCC_ClockConfig+0x170>
  {
    assert_param(IS_RCC_PCLK(RCC_ClkInitStruct->APB1CLKDivider));
    MODIFY_REG(RCC->CFGR, RCC_CFGR_PPRE, RCC_ClkInitStruct->APB1CLKDivider);
 80024a4:	4b10      	ldr	r3, [pc, #64]	; (80024e8 <HAL_RCC_ClockConfig+0x1a0>)
 80024a6:	685b      	ldr	r3, [r3, #4]
 80024a8:	4a11      	ldr	r2, [pc, #68]	; (80024f0 <HAL_RCC_ClockConfig+0x1a8>)
 80024aa:	4013      	ands	r3, r2
 80024ac:	0019      	movs	r1, r3
 80024ae:	687b      	ldr	r3, [r7, #4]
 80024b0:	68da      	ldr	r2, [r3, #12]
 80024b2:	4b0d      	ldr	r3, [pc, #52]	; (80024e8 <HAL_RCC_ClockConfig+0x1a0>)
 80024b4:	430a      	orrs	r2, r1
 80024b6:	605a      	str	r2, [r3, #4]
  }
  
  /* Update the SystemCoreClock global variable */
  SystemCoreClock = HAL_RCC_GetSysClockFreq() >> AHBPrescTable[(RCC->CFGR & RCC_CFGR_HPRE)>> RCC_CFGR_HPRE_BITNUMBER];
 80024b8:	f000 f820 	bl	80024fc <HAL_RCC_GetSysClockFreq>
 80024bc:	0001      	movs	r1, r0
 80024be:	4b0a      	ldr	r3, [pc, #40]	; (80024e8 <HAL_RCC_ClockConfig+0x1a0>)
 80024c0:	685b      	ldr	r3, [r3, #4]
 80024c2:	091b      	lsrs	r3, r3, #4
 80024c4:	220f      	movs	r2, #15
 80024c6:	4013      	ands	r3, r2
 80024c8:	4a0a      	ldr	r2, [pc, #40]	; (80024f4 <HAL_RCC_ClockConfig+0x1ac>)
 80024ca:	5cd3      	ldrb	r3, [r2, r3]
 80024cc:	000a      	movs	r2, r1
 80024ce:	40da      	lsrs	r2, r3
 80024d0:	4b09      	ldr	r3, [pc, #36]	; (80024f8 <HAL_RCC_ClockConfig+0x1b0>)
 80024d2:	601a      	str	r2, [r3, #0]

  /* Configure the source of time base considering new system clocks settings*/
  HAL_InitTick (TICK_INT_PRIORITY);
 80024d4:	2000      	movs	r0, #0
 80024d6:	f7ff f8f3 	bl	80016c0 <HAL_InitTick>
  
  return HAL_OK;
 80024da:	2300      	movs	r3, #0
}
 80024dc:	0018      	movs	r0, r3
 80024de:	46bd      	mov	sp, r7
 80024e0:	b004      	add	sp, #16
 80024e2:	bd80      	pop	{r7, pc}
 80024e4:	40022000 	.word	0x40022000
 80024e8:	40021000 	.word	0x40021000
 80024ec:	00001388 	.word	0x00001388
 80024f0:	fffff8ff 	.word	0xfffff8ff
 80024f4:	08004470 	.word	0x08004470
 80024f8:	20000000 	.word	0x20000000

080024fc <HAL_RCC_GetSysClockFreq>:
  *         right SYSCLK value. Otherwise, any configuration based on this function will be incorrect.
  *         
  * @retval SYSCLK frequency
  */
uint32_t HAL_RCC_GetSysClockFreq(void)
{
 80024fc:	b590      	push	{r4, r7, lr}
 80024fe:	b08f      	sub	sp, #60	; 0x3c
 8002500:	af00      	add	r7, sp, #0
  const uint8_t aPLLMULFactorTable[16] = { 2U,  3U,  4U,  5U,  6U,  7U,  8U,  9U,
 8002502:	2314      	movs	r3, #20
 8002504:	18fb      	adds	r3, r7, r3
 8002506:	4a38      	ldr	r2, [pc, #224]	; (80025e8 <HAL_RCC_GetSysClockFreq+0xec>)
 8002508:	ca13      	ldmia	r2!, {r0, r1, r4}
 800250a:	c313      	stmia	r3!, {r0, r1, r4}
 800250c:	6812      	ldr	r2, [r2, #0]
 800250e:	601a      	str	r2, [r3, #0]
                                         10U, 11U, 12U, 13U, 14U, 15U, 16U, 16U};
  const uint8_t aPredivFactorTable[16] = { 1U, 2U,  3U,  4U,  5U,  6U,  7U,  8U,
 8002510:	1d3b      	adds	r3, r7, #4
 8002512:	4a36      	ldr	r2, [pc, #216]	; (80025ec <HAL_RCC_GetSysClockFreq+0xf0>)
 8002514:	ca13      	ldmia	r2!, {r0, r1, r4}
 8002516:	c313      	stmia	r3!, {r0, r1, r4}
 8002518:	6812      	ldr	r2, [r2, #0]
 800251a:	601a      	str	r2, [r3, #0]
                                           9U,10U, 11U, 12U, 13U, 14U, 15U, 16U};

  uint32_t tmpreg = 0U, prediv = 0U, pllclk = 0U, pllmul = 0U;
 800251c:	2300      	movs	r3, #0
 800251e:	62fb      	str	r3, [r7, #44]	; 0x2c
 8002520:	2300      	movs	r3, #0
 8002522:	62bb      	str	r3, [r7, #40]	; 0x28
 8002524:	2300      	movs	r3, #0
 8002526:	637b      	str	r3, [r7, #52]	; 0x34
 8002528:	2300      	movs	r3, #0
 800252a:	627b      	str	r3, [r7, #36]	; 0x24
  uint32_t sysclockfreq = 0U;
 800252c:	2300      	movs	r3, #0
 800252e:	633b      	str	r3, [r7, #48]	; 0x30
  
  tmpreg = RCC->CFGR;
 8002530:	4b2f      	ldr	r3, [pc, #188]	; (80025f0 <HAL_RCC_GetSysClockFreq+0xf4>)
 8002532:	685b      	ldr	r3, [r3, #4]
 8002534:	62fb      	str	r3, [r7, #44]	; 0x2c
  
  /* Get SYSCLK source -------------------------------------------------------*/
  switch (tmpreg & RCC_CFGR_SWS)
 8002536:	6afb      	ldr	r3, [r7, #44]	; 0x2c
 8002538:	220c      	movs	r2, #12
 800253a:	4013      	ands	r3, r2
 800253c:	2b0c      	cmp	r3, #12
 800253e:	d047      	beq.n	80025d0 <HAL_RCC_GetSysClockFreq+0xd4>
 8002540:	d849      	bhi.n	80025d6 <HAL_RCC_GetSysClockFreq+0xda>
 8002542:	2b04      	cmp	r3, #4
 8002544:	d002      	beq.n	800254c <HAL_RCC_GetSysClockFreq+0x50>
 8002546:	2b08      	cmp	r3, #8
 8002548:	d003      	beq.n	8002552 <HAL_RCC_GetSysClockFreq+0x56>
 800254a:	e044      	b.n	80025d6 <HAL_RCC_GetSysClockFreq+0xda>
  {
    case RCC_SYSCLKSOURCE_STATUS_HSE:  /* HSE used as system clock */
    {
      sysclockfreq = HSE_VALUE;
 800254c:	4b29      	ldr	r3, [pc, #164]	; (80025f4 <HAL_RCC_GetSysClockFreq+0xf8>)
 800254e:	633b      	str	r3, [r7, #48]	; 0x30
      break;
 8002550:	e044      	b.n	80025dc <HAL_RCC_GetSysClockFreq+0xe0>
    }
    case RCC_SYSCLKSOURCE_STATUS_PLLCLK:  /* PLL used as system clock */
    {
      pllmul = aPLLMULFactorTable[(uint32_t)(tmpreg & RCC_CFGR_PLLMUL) >> RCC_CFGR_PLLMUL_BITNUMBER];
 8002552:	6afb      	ldr	r3, [r7, #44]	; 0x2c
 8002554:	0c9b      	lsrs	r3, r3, #18
 8002556:	220f      	movs	r2, #15
 8002558:	4013      	ands	r3, r2
 800255a:	2214      	movs	r2, #20
 800255c:	18ba      	adds	r2, r7, r2
 800255e:	5cd3      	ldrb	r3, [r2, r3]
 8002560:	627b      	str	r3, [r7, #36]	; 0x24
      prediv = aPredivFactorTable[(uint32_t)(RCC->CFGR2 & RCC_CFGR2_PREDIV) >> RCC_CFGR2_PREDIV_BITNUMBER];
 8002562:	4b23      	ldr	r3, [pc, #140]	; (80025f0 <HAL_RCC_GetSysClockFreq+0xf4>)
 8002564:	6adb      	ldr	r3, [r3, #44]	; 0x2c
 8002566:	220f      	movs	r2, #15
 8002568:	4013      	ands	r3, r2
 800256a:	1d3a      	adds	r2, r7, #4
 800256c:	5cd3      	ldrb	r3, [r2, r3]
 800256e:	62bb      	str	r3, [r7, #40]	; 0x28
      if ((tmpreg & RCC_CFGR_PLLSRC) == RCC_PLLSOURCE_HSE)
 8002570:	6afa      	ldr	r2, [r7, #44]	; 0x2c
 8002572:	23c0      	movs	r3, #192	; 0xc0
 8002574:	025b      	lsls	r3, r3, #9
 8002576:	401a      	ands	r2, r3
 8002578:	2380      	movs	r3, #128	; 0x80
 800257a:	025b      	lsls	r3, r3, #9
 800257c:	429a      	cmp	r2, r3
 800257e:	d109      	bne.n	8002594 <HAL_RCC_GetSysClockFreq+0x98>
      {
        /* HSE used as PLL clock source : PLLCLK = HSE/PREDIV * PLLMUL */
        pllclk = (uint32_t)((uint64_t) HSE_VALUE / (uint64_t) (prediv)) * ((uint64_t) pllmul);
 8002580:	6ab9      	ldr	r1, [r7, #40]	; 0x28
 8002582:	481c      	ldr	r0, [pc, #112]	; (80025f4 <HAL_RCC_GetSysClockFreq+0xf8>)
 8002584:	f7fd fdc0 	bl	8000108 <__udivsi3>
 8002588:	0003      	movs	r3, r0
 800258a:	001a      	movs	r2, r3
 800258c:	6a7b      	ldr	r3, [r7, #36]	; 0x24
 800258e:	4353      	muls	r3, r2
 8002590:	637b      	str	r3, [r7, #52]	; 0x34
 8002592:	e01a      	b.n	80025ca <HAL_RCC_GetSysClockFreq+0xce>
      }
#if defined(RCC_CFGR_PLLSRC_HSI48_PREDIV)
      else if ((tmpreg & RCC_CFGR_PLLSRC) == RCC_PLLSOURCE_HSI48)
 8002594:	6afa      	ldr	r2, [r7, #44]	; 0x2c
 8002596:	23c0      	movs	r3, #192	; 0xc0
 8002598:	025b      	lsls	r3, r3, #9
 800259a:	401a      	ands	r2, r3
 800259c:	23c0      	movs	r3, #192	; 0xc0
 800259e:	025b      	lsls	r3, r3, #9
 80025a0:	429a      	cmp	r2, r3
 80025a2:	d109      	bne.n	80025b8 <HAL_RCC_GetSysClockFreq+0xbc>
      {
        /* HSI48 used as PLL clock source : PLLCLK = HSI48/PREDIV * PLLMUL */
        pllclk = (uint32_t)((uint64_t) HSI48_VALUE / (uint64_t) (prediv)) * ((uint64_t) pllmul);
 80025a4:	6ab9      	ldr	r1, [r7, #40]	; 0x28
 80025a6:	4814      	ldr	r0, [pc, #80]	; (80025f8 <HAL_RCC_GetSysClockFreq+0xfc>)
 80025a8:	f7fd fdae 	bl	8000108 <__udivsi3>
 80025ac:	0003      	movs	r3, r0
 80025ae:	001a      	movs	r2, r3
 80025b0:	6a7b      	ldr	r3, [r7, #36]	; 0x24
 80025b2:	4353      	muls	r3, r2
 80025b4:	637b      	str	r3, [r7, #52]	; 0x34
 80025b6:	e008      	b.n	80025ca <HAL_RCC_GetSysClockFreq+0xce>
#endif /* RCC_CFGR_PLLSRC_HSI48_PREDIV */
      else
      {
#if  (defined(STM32F042x6) || defined(STM32F048xx) || defined(STM32F070x6) || defined(STM32F071xB) || defined(STM32F072xB) || defined(STM32F078xx) || defined(STM32F070xB) || defined(STM32F091xC) || defined(STM32F098xx) || defined(STM32F030xC))
        /* HSI used as PLL clock source : PLLCLK = HSI/PREDIV * PLLMUL */
        pllclk = (uint32_t)((uint64_t) HSI_VALUE / (uint64_t) (prediv)) * ((uint64_t) pllmul);
 80025b8:	6ab9      	ldr	r1, [r7, #40]	; 0x28
 80025ba:	480e      	ldr	r0, [pc, #56]	; (80025f4 <HAL_RCC_GetSysClockFreq+0xf8>)
 80025bc:	f7fd fda4 	bl	8000108 <__udivsi3>
 80025c0:	0003      	movs	r3, r0
 80025c2:	001a      	movs	r2, r3
 80025c4:	6a7b      	ldr	r3, [r7, #36]	; 0x24
 80025c6:	4353      	muls	r3, r2
 80025c8:	637b      	str	r3, [r7, #52]	; 0x34
#else
        /* HSI used as PLL clock source : PLLCLK = HSI/2 * PLLMUL */
        pllclk = (uint32_t)((uint64_t) (HSI_VALUE >> 1U) * ((uint64_t) pllmul));
#endif
      }
      sysclockfreq = pllclk;
 80025ca:	6b7b      	ldr	r3, [r7, #52]	; 0x34
 80025cc:	633b      	str	r3, [r7, #48]	; 0x30
      break;
 80025ce:	e005      	b.n	80025dc <HAL_RCC_GetSysClockFreq+0xe0>
    }
#if defined(RCC_CFGR_SWS_HSI48)
    case RCC_SYSCLKSOURCE_STATUS_HSI48:    /* HSI48 used as system clock source */
    {
      sysclockfreq = HSI48_VALUE;
 80025d0:	4b09      	ldr	r3, [pc, #36]	; (80025f8 <HAL_RCC_GetSysClockFreq+0xfc>)
 80025d2:	633b      	str	r3, [r7, #48]	; 0x30
      break;
 80025d4:	e002      	b.n	80025dc <HAL_RCC_GetSysClockFreq+0xe0>
    }
#endif /* RCC_CFGR_SWS_HSI48 */
    case RCC_SYSCLKSOURCE_STATUS_HSI:  /* HSI used as system clock source */
    default: /* HSI used as system clock */
    {
      sysclockfreq = HSI_VALUE;
 80025d6:	4b07      	ldr	r3, [pc, #28]	; (80025f4 <HAL_RCC_GetSysClockFreq+0xf8>)
 80025d8:	633b      	str	r3, [r7, #48]	; 0x30
      break;
 80025da:	46c0      	nop			; (mov r8, r8)
    }
  }
  return sysclockfreq;
 80025dc:	6b3b      	ldr	r3, [r7, #48]	; 0x30
}
 80025de:	0018      	movs	r0, r3
 80025e0:	46bd      	mov	sp, r7
 80025e2:	b00f      	add	sp, #60	; 0x3c
 80025e4:	bd90      	pop	{r4, r7, pc}
 80025e6:	46c0      	nop			; (mov r8, r8)
 80025e8:	08004410 	.word	0x08004410
 80025ec:	08004420 	.word	0x08004420
 80025f0:	40021000 	.word	0x40021000
 80025f4:	007a1200 	.word	0x007a1200
 80025f8:	02dc6c00 	.word	0x02dc6c00

080025fc <HAL_RCC_GetHCLKFreq>:
  * @note   The SystemCoreClock CMSIS variable is used to store System Clock Frequency 
  *         and updated within this function
  * @retval HCLK frequency
  */
uint32_t HAL_RCC_GetHCLKFreq(void)
{
 80025fc:	b580      	push	{r7, lr}
 80025fe:	af00      	add	r7, sp, #0
  return SystemCoreClock;
 8002600:	4b02      	ldr	r3, [pc, #8]	; (800260c <HAL_RCC_GetHCLKFreq+0x10>)
 8002602:	681b      	ldr	r3, [r3, #0]
}
 8002604:	0018      	movs	r0, r3
 8002606:	46bd      	mov	sp, r7
 8002608:	bd80      	pop	{r7, pc}
 800260a:	46c0      	nop			; (mov r8, r8)
 800260c:	20000000 	.word	0x20000000

08002610 <HAL_RCC_GetPCLK1Freq>:
  * @note   Each time PCLK1 changes, this function must be called to update the
  *         right PCLK1 value. Otherwise, any configuration based on this function will be incorrect.
  * @retval PCLK1 frequency
  */
uint32_t HAL_RCC_GetPCLK1Freq(void)
{
 8002610:	b580      	push	{r7, lr}
 8002612:	af00      	add	r7, sp, #0
  /* Get HCLK source and Compute PCLK1 frequency ---------------------------*/
  return (HAL_RCC_GetHCLKFreq() >> APBPrescTable[(RCC->CFGR & RCC_CFGR_PPRE) >> RCC_CFGR_PPRE_BITNUMBER]);
 8002614:	f7ff fff2 	bl	80025fc <HAL_RCC_GetHCLKFreq>
 8002618:	0001      	movs	r1, r0
 800261a:	4b06      	ldr	r3, [pc, #24]	; (8002634 <HAL_RCC_GetPCLK1Freq+0x24>)
 800261c:	685b      	ldr	r3, [r3, #4]
 800261e:	0a1b      	lsrs	r3, r3, #8
 8002620:	2207      	movs	r2, #7
 8002622:	4013      	ands	r3, r2
 8002624:	4a04      	ldr	r2, [pc, #16]	; (8002638 <HAL_RCC_GetPCLK1Freq+0x28>)
 8002626:	5cd3      	ldrb	r3, [r2, r3]
 8002628:	40d9      	lsrs	r1, r3
 800262a:	000b      	movs	r3, r1
}    
 800262c:	0018      	movs	r0, r3
 800262e:	46bd      	mov	sp, r7
 8002630:	bd80      	pop	{r7, pc}
 8002632:	46c0      	nop			; (mov r8, r8)
 8002634:	40021000 	.word	0x40021000
 8002638:	08004480 	.word	0x08004480

0800263c <HAL_RCCEx_PeriphCLKConfig>:
  *         the backup registers) and RCC_BDCR register are set to their reset values.
  *
  * @retval HAL status
  */
HAL_StatusTypeDef HAL_RCCEx_PeriphCLKConfig(RCC_PeriphCLKInitTypeDef  *PeriphClkInit)
{
 800263c:	b580      	push	{r7, lr}
 800263e:	b086      	sub	sp, #24
 8002640:	af00      	add	r7, sp, #0
 8002642:	6078      	str	r0, [r7, #4]
  uint32_t tickstart = 0U;
 8002644:	2300      	movs	r3, #0
 8002646:	613b      	str	r3, [r7, #16]
  uint32_t temp_reg = 0U;
 8002648:	2300      	movs	r3, #0
 800264a:	60fb      	str	r3, [r7, #12]

  /* Check the parameters */
  assert_param(IS_RCC_PERIPHCLOCK(PeriphClkInit->PeriphClockSelection));
  
  /*---------------------------- RTC configuration -------------------------------*/
  if(((PeriphClkInit->PeriphClockSelection) & RCC_PERIPHCLK_RTC) == (RCC_PERIPHCLK_RTC))
 800264c:	687b      	ldr	r3, [r7, #4]
 800264e:	681a      	ldr	r2, [r3, #0]
 8002650:	2380      	movs	r3, #128	; 0x80
 8002652:	025b      	lsls	r3, r3, #9
 8002654:	4013      	ands	r3, r2
 8002656:	d100      	bne.n	800265a <HAL_RCCEx_PeriphCLKConfig+0x1e>
 8002658:	e08e      	b.n	8002778 <HAL_RCCEx_PeriphCLKConfig+0x13c>
  {
    /* check for RTC Parameters used to output RTCCLK */
    assert_param(IS_RCC_RTCCLKSOURCE(PeriphClkInit->RTCClockSelection));
    
    FlagStatus       pwrclkchanged = RESET;
 800265a:	2017      	movs	r0, #23
 800265c:	183b      	adds	r3, r7, r0
 800265e:	2200      	movs	r2, #0
 8002660:	701a      	strb	r2, [r3, #0]

    /* As soon as function is called to change RTC clock source, activation of the 
       power domain is done. */
    /* Requires to enable write access to Backup Domain of necessary */
    if(__HAL_RCC_PWR_IS_CLK_DISABLED())
 8002662:	4b6e      	ldr	r3, [pc, #440]	; (800281c <HAL_RCCEx_PeriphCLKConfig+0x1e0>)
 8002664:	69da      	ldr	r2, [r3, #28]
 8002666:	2380      	movs	r3, #128	; 0x80
 8002668:	055b      	lsls	r3, r3, #21
 800266a:	4013      	ands	r3, r2
 800266c:	d110      	bne.n	8002690 <HAL_RCCEx_PeriphCLKConfig+0x54>
    {
    __HAL_RCC_PWR_CLK_ENABLE();
 800266e:	4b6b      	ldr	r3, [pc, #428]	; (800281c <HAL_RCCEx_PeriphCLKConfig+0x1e0>)
 8002670:	69da      	ldr	r2, [r3, #28]
 8002672:	4b6a      	ldr	r3, [pc, #424]	; (800281c <HAL_RCCEx_PeriphCLKConfig+0x1e0>)
 8002674:	2180      	movs	r1, #128	; 0x80
 8002676:	0549      	lsls	r1, r1, #21
 8002678:	430a      	orrs	r2, r1
 800267a:	61da      	str	r2, [r3, #28]
 800267c:	4b67      	ldr	r3, [pc, #412]	; (800281c <HAL_RCCEx_PeriphCLKConfig+0x1e0>)
 800267e:	69da      	ldr	r2, [r3, #28]
 8002680:	2380      	movs	r3, #128	; 0x80
 8002682:	055b      	lsls	r3, r3, #21
 8002684:	4013      	ands	r3, r2
 8002686:	60bb      	str	r3, [r7, #8]
 8002688:	68bb      	ldr	r3, [r7, #8]
      pwrclkchanged = SET;
 800268a:	183b      	adds	r3, r7, r0
 800268c:	2201      	movs	r2, #1
 800268e:	701a      	strb	r2, [r3, #0]
    }
    
    if(HAL_IS_BIT_CLR(PWR->CR, PWR_CR_DBP))
 8002690:	4b63      	ldr	r3, [pc, #396]	; (8002820 <HAL_RCCEx_PeriphCLKConfig+0x1e4>)
 8002692:	681a      	ldr	r2, [r3, #0]
 8002694:	2380      	movs	r3, #128	; 0x80
 8002696:	005b      	lsls	r3, r3, #1
 8002698:	4013      	ands	r3, r2
 800269a:	d11a      	bne.n	80026d2 <HAL_RCCEx_PeriphCLKConfig+0x96>
    {
      /* Enable write access to Backup domain */
      SET_BIT(PWR->CR, PWR_CR_DBP);
 800269c:	4b60      	ldr	r3, [pc, #384]	; (8002820 <HAL_RCCEx_PeriphCLKConfig+0x1e4>)
 800269e:	681a      	ldr	r2, [r3, #0]
 80026a0:	4b5f      	ldr	r3, [pc, #380]	; (8002820 <HAL_RCCEx_PeriphCLKConfig+0x1e4>)
 80026a2:	2180      	movs	r1, #128	; 0x80
 80026a4:	0049      	lsls	r1, r1, #1
 80026a6:	430a      	orrs	r2, r1
 80026a8:	601a      	str	r2, [r3, #0]
      
      /* Wait for Backup domain Write protection disable */
      tickstart = HAL_GetTick();
 80026aa:	f7ff f84f 	bl	800174c <HAL_GetTick>
 80026ae:	0003      	movs	r3, r0
 80026b0:	613b      	str	r3, [r7, #16]
      
      while(HAL_IS_BIT_CLR(PWR->CR, PWR_CR_DBP))
 80026b2:	e008      	b.n	80026c6 <HAL_RCCEx_PeriphCLKConfig+0x8a>
      {
        if((HAL_GetTick() - tickstart) > RCC_DBP_TIMEOUT_VALUE)
 80026b4:	f7ff f84a 	bl	800174c <HAL_GetTick>
 80026b8:	0002      	movs	r2, r0
 80026ba:	693b      	ldr	r3, [r7, #16]
 80026bc:	1ad3      	subs	r3, r2, r3
 80026be:	2b64      	cmp	r3, #100	; 0x64
 80026c0:	d901      	bls.n	80026c6 <HAL_RCCEx_PeriphCLKConfig+0x8a>
        {
          return HAL_TIMEOUT;
 80026c2:	2303      	movs	r3, #3
 80026c4:	e0a6      	b.n	8002814 <HAL_RCCEx_PeriphCLKConfig+0x1d8>
      while(HAL_IS_BIT_CLR(PWR->CR, PWR_CR_DBP))
 80026c6:	4b56      	ldr	r3, [pc, #344]	; (8002820 <HAL_RCCEx_PeriphCLKConfig+0x1e4>)
 80026c8:	681a      	ldr	r2, [r3, #0]
 80026ca:	2380      	movs	r3, #128	; 0x80
 80026cc:	005b      	lsls	r3, r3, #1
 80026ce:	4013      	ands	r3, r2
 80026d0:	d0f0      	beq.n	80026b4 <HAL_RCCEx_PeriphCLKConfig+0x78>
        }
      }
    }
    
    /* Reset the Backup domain only if the RTC Clock source selection is modified from reset value */ 
    temp_reg = (RCC->BDCR & RCC_BDCR_RTCSEL);
 80026d2:	4b52      	ldr	r3, [pc, #328]	; (800281c <HAL_RCCEx_PeriphCLKConfig+0x1e0>)
 80026d4:	6a1a      	ldr	r2, [r3, #32]
 80026d6:	23c0      	movs	r3, #192	; 0xc0
 80026d8:	009b      	lsls	r3, r3, #2
 80026da:	4013      	ands	r3, r2
 80026dc:	60fb      	str	r3, [r7, #12]
    if((temp_reg != 0x00000000U) && (temp_reg != (PeriphClkInit->RTCClockSelection & RCC_BDCR_RTCSEL)))
 80026de:	68fb      	ldr	r3, [r7, #12]
 80026e0:	2b00      	cmp	r3, #0
 80026e2:	d034      	beq.n	800274e <HAL_RCCEx_PeriphCLKConfig+0x112>
 80026e4:	687b      	ldr	r3, [r7, #4]
 80026e6:	685a      	ldr	r2, [r3, #4]
 80026e8:	23c0      	movs	r3, #192	; 0xc0
 80026ea:	009b      	lsls	r3, r3, #2
 80026ec:	4013      	ands	r3, r2
 80026ee:	68fa      	ldr	r2, [r7, #12]
 80026f0:	429a      	cmp	r2, r3
 80026f2:	d02c      	beq.n	800274e <HAL_RCCEx_PeriphCLKConfig+0x112>
    {
      /* Store the content of BDCR register before the reset of Backup Domain */
      temp_reg = (RCC->BDCR & ~(RCC_BDCR_RTCSEL));
 80026f4:	4b49      	ldr	r3, [pc, #292]	; (800281c <HAL_RCCEx_PeriphCLKConfig+0x1e0>)
 80026f6:	6a1b      	ldr	r3, [r3, #32]
 80026f8:	4a4a      	ldr	r2, [pc, #296]	; (8002824 <HAL_RCCEx_PeriphCLKConfig+0x1e8>)
 80026fa:	4013      	ands	r3, r2
 80026fc:	60fb      	str	r3, [r7, #12]
      /* RTC Clock selection can be changed only if the Backup Domain is reset */
      __HAL_RCC_BACKUPRESET_FORCE();
 80026fe:	4b47      	ldr	r3, [pc, #284]	; (800281c <HAL_RCCEx_PeriphCLKConfig+0x1e0>)
 8002700:	6a1a      	ldr	r2, [r3, #32]
 8002702:	4b46      	ldr	r3, [pc, #280]	; (800281c <HAL_RCCEx_PeriphCLKConfig+0x1e0>)
 8002704:	2180      	movs	r1, #128	; 0x80
 8002706:	0249      	lsls	r1, r1, #9
 8002708:	430a      	orrs	r2, r1
 800270a:	621a      	str	r2, [r3, #32]
      __HAL_RCC_BACKUPRESET_RELEASE();
 800270c:	4b43      	ldr	r3, [pc, #268]	; (800281c <HAL_RCCEx_PeriphCLKConfig+0x1e0>)
 800270e:	6a1a      	ldr	r2, [r3, #32]
 8002710:	4b42      	ldr	r3, [pc, #264]	; (800281c <HAL_RCCEx_PeriphCLKConfig+0x1e0>)
 8002712:	4945      	ldr	r1, [pc, #276]	; (8002828 <HAL_RCCEx_PeriphCLKConfig+0x1ec>)
 8002714:	400a      	ands	r2, r1
 8002716:	621a      	str	r2, [r3, #32]
      /* Restore the Content of BDCR register */
      RCC->BDCR = temp_reg;
 8002718:	4b40      	ldr	r3, [pc, #256]	; (800281c <HAL_RCCEx_PeriphCLKConfig+0x1e0>)
 800271a:	68fa      	ldr	r2, [r7, #12]
 800271c:	621a      	str	r2, [r3, #32]
      
      /* Wait for LSERDY if LSE was enabled */
      if (HAL_IS_BIT_SET(temp_reg, RCC_BDCR_LSEON))
 800271e:	68fb      	ldr	r3, [r7, #12]
 8002720:	2201      	movs	r2, #1
 8002722:	4013      	ands	r3, r2
 8002724:	d013      	beq.n	800274e <HAL_RCCEx_PeriphCLKConfig+0x112>
      {
        /* Get Start Tick */
        tickstart = HAL_GetTick();
 8002726:	f7ff f811 	bl	800174c <HAL_GetTick>
 800272a:	0003      	movs	r3, r0
 800272c:	613b      	str	r3, [r7, #16]
        
        /* Wait till LSE is ready */  
        while(__HAL_RCC_GET_FLAG(RCC_FLAG_LSERDY) == RESET)
 800272e:	e009      	b.n	8002744 <HAL_RCCEx_PeriphCLKConfig+0x108>
        {
          if((HAL_GetTick() - tickstart) > RCC_LSE_TIMEOUT_VALUE)
 8002730:	f7ff f80c 	bl	800174c <HAL_GetTick>
 8002734:	0002      	movs	r2, r0
 8002736:	693b      	ldr	r3, [r7, #16]
 8002738:	1ad3      	subs	r3, r2, r3
 800273a:	4a3c      	ldr	r2, [pc, #240]	; (800282c <HAL_RCCEx_PeriphCLKConfig+0x1f0>)
 800273c:	4293      	cmp	r3, r2
 800273e:	d901      	bls.n	8002744 <HAL_RCCEx_PeriphCLKConfig+0x108>
          {
            return HAL_TIMEOUT;
 8002740:	2303      	movs	r3, #3
 8002742:	e067      	b.n	8002814 <HAL_RCCEx_PeriphCLKConfig+0x1d8>
        while(__HAL_RCC_GET_FLAG(RCC_FLAG_LSERDY) == RESET)
 8002744:	4b35      	ldr	r3, [pc, #212]	; (800281c <HAL_RCCEx_PeriphCLKConfig+0x1e0>)
 8002746:	6a1b      	ldr	r3, [r3, #32]
 8002748:	2202      	movs	r2, #2
 800274a:	4013      	ands	r3, r2
 800274c:	d0f0      	beq.n	8002730 <HAL_RCCEx_PeriphCLKConfig+0xf4>
          }
        }
      }
    }
    __HAL_RCC_RTC_CONFIG(PeriphClkInit->RTCClockSelection);
 800274e:	4b33      	ldr	r3, [pc, #204]	; (800281c <HAL_RCCEx_PeriphCLKConfig+0x1e0>)
 8002750:	6a1b      	ldr	r3, [r3, #32]
 8002752:	4a34      	ldr	r2, [pc, #208]	; (8002824 <HAL_RCCEx_PeriphCLKConfig+0x1e8>)
 8002754:	4013      	ands	r3, r2
 8002756:	0019      	movs	r1, r3
 8002758:	687b      	ldr	r3, [r7, #4]
 800275a:	685a      	ldr	r2, [r3, #4]
 800275c:	4b2f      	ldr	r3, [pc, #188]	; (800281c <HAL_RCCEx_PeriphCLKConfig+0x1e0>)
 800275e:	430a      	orrs	r2, r1
 8002760:	621a      	str	r2, [r3, #32]

    /* Require to disable power clock if necessary */
    if(pwrclkchanged == SET)
 8002762:	2317      	movs	r3, #23
 8002764:	18fb      	adds	r3, r7, r3
 8002766:	781b      	ldrb	r3, [r3, #0]
 8002768:	2b01      	cmp	r3, #1
 800276a:	d105      	bne.n	8002778 <HAL_RCCEx_PeriphCLKConfig+0x13c>
    {
      __HAL_RCC_PWR_CLK_DISABLE();
 800276c:	4b2b      	ldr	r3, [pc, #172]	; (800281c <HAL_RCCEx_PeriphCLKConfig+0x1e0>)
 800276e:	69da      	ldr	r2, [r3, #28]
 8002770:	4b2a      	ldr	r3, [pc, #168]	; (800281c <HAL_RCCEx_PeriphCLKConfig+0x1e0>)
 8002772:	492f      	ldr	r1, [pc, #188]	; (8002830 <HAL_RCCEx_PeriphCLKConfig+0x1f4>)
 8002774:	400a      	ands	r2, r1
 8002776:	61da      	str	r2, [r3, #28]
    }
  }

  /*------------------------------- USART1 Configuration ------------------------*/ 
  if(((PeriphClkInit->PeriphClockSelection) & RCC_PERIPHCLK_USART1) == RCC_PERIPHCLK_USART1)
 8002778:	687b      	ldr	r3, [r7, #4]
 800277a:	681b      	ldr	r3, [r3, #0]
 800277c:	2201      	movs	r2, #1
 800277e:	4013      	ands	r3, r2
 8002780:	d009      	beq.n	8002796 <HAL_RCCEx_PeriphCLKConfig+0x15a>
  {
    /* Check the parameters */
    assert_param(IS_RCC_USART1CLKSOURCE(PeriphClkInit->Usart1ClockSelection));
    
    /* Configure the USART1 clock source */
    __HAL_RCC_USART1_CONFIG(PeriphClkInit->Usart1ClockSelection);
 8002782:	4b26      	ldr	r3, [pc, #152]	; (800281c <HAL_RCCEx_PeriphCLKConfig+0x1e0>)
 8002784:	6b1b      	ldr	r3, [r3, #48]	; 0x30
 8002786:	2203      	movs	r2, #3
 8002788:	4393      	bics	r3, r2
 800278a:	0019      	movs	r1, r3
 800278c:	687b      	ldr	r3, [r7, #4]
 800278e:	689a      	ldr	r2, [r3, #8]
 8002790:	4b22      	ldr	r3, [pc, #136]	; (800281c <HAL_RCCEx_PeriphCLKConfig+0x1e0>)
 8002792:	430a      	orrs	r2, r1
 8002794:	631a      	str	r2, [r3, #48]	; 0x30
  }
  
#if defined(STM32F071xB) || defined(STM32F072xB) || defined(STM32F078xx)\
 || defined(STM32F091xC) || defined(STM32F098xx)
  /*----------------------------- USART2 Configuration --------------------------*/ 
  if(((PeriphClkInit->PeriphClockSelection) & RCC_PERIPHCLK_USART2) == RCC_PERIPHCLK_USART2)
 8002796:	687b      	ldr	r3, [r7, #4]
 8002798:	681b      	ldr	r3, [r3, #0]
 800279a:	2202      	movs	r2, #2
 800279c:	4013      	ands	r3, r2
 800279e:	d009      	beq.n	80027b4 <HAL_RCCEx_PeriphCLKConfig+0x178>
  {
    /* Check the parameters */
    assert_param(IS_RCC_USART2CLKSOURCE(PeriphClkInit->Usart2ClockSelection));
    
    /* Configure the USART2 clock source */
    __HAL_RCC_USART2_CONFIG(PeriphClkInit->Usart2ClockSelection);
 80027a0:	4b1e      	ldr	r3, [pc, #120]	; (800281c <HAL_RCCEx_PeriphCLKConfig+0x1e0>)
 80027a2:	6b1b      	ldr	r3, [r3, #48]	; 0x30
 80027a4:	4a23      	ldr	r2, [pc, #140]	; (8002834 <HAL_RCCEx_PeriphCLKConfig+0x1f8>)
 80027a6:	4013      	ands	r3, r2
 80027a8:	0019      	movs	r1, r3
 80027aa:	687b      	ldr	r3, [r7, #4]
 80027ac:	68da      	ldr	r2, [r3, #12]
 80027ae:	4b1b      	ldr	r3, [pc, #108]	; (800281c <HAL_RCCEx_PeriphCLKConfig+0x1e0>)
 80027b0:	430a      	orrs	r2, r1
 80027b2:	631a      	str	r2, [r3, #48]	; 0x30
    __HAL_RCC_USART3_CONFIG(PeriphClkInit->Usart3ClockSelection);
  }
#endif /* STM32F091xC || STM32F098xx */  

  /*------------------------------ I2C1 Configuration ------------------------*/ 
  if(((PeriphClkInit->PeriphClockSelection) & RCC_PERIPHCLK_I2C1) == RCC_PERIPHCLK_I2C1)
 80027b4:	687b      	ldr	r3, [r7, #4]
 80027b6:	681b      	ldr	r3, [r3, #0]
 80027b8:	2220      	movs	r2, #32
 80027ba:	4013      	ands	r3, r2
 80027bc:	d009      	beq.n	80027d2 <HAL_RCCEx_PeriphCLKConfig+0x196>
  {
    /* Check the parameters */
    assert_param(IS_RCC_I2C1CLKSOURCE(PeriphClkInit->I2c1ClockSelection));
    
    /* Configure the I2C1 clock source */
    __HAL_RCC_I2C1_CONFIG(PeriphClkInit->I2c1ClockSelection);
 80027be:	4b17      	ldr	r3, [pc, #92]	; (800281c <HAL_RCCEx_PeriphCLKConfig+0x1e0>)
 80027c0:	6b1b      	ldr	r3, [r3, #48]	; 0x30
 80027c2:	2210      	movs	r2, #16
 80027c4:	4393      	bics	r3, r2
 80027c6:	0019      	movs	r1, r3
 80027c8:	687b      	ldr	r3, [r7, #4]
 80027ca:	691a      	ldr	r2, [r3, #16]
 80027cc:	4b13      	ldr	r3, [pc, #76]	; (800281c <HAL_RCCEx_PeriphCLKConfig+0x1e0>)
 80027ce:	430a      	orrs	r2, r1
 80027d0:	631a      	str	r2, [r3, #48]	; 0x30
  }

#if defined(STM32F042x6) || defined(STM32F048xx) || defined(STM32F072xB) || defined(STM32F078xx) || defined(STM32F070xB) || defined(STM32F070x6)
  /*------------------------------ USB Configuration ------------------------*/ 
  if(((PeriphClkInit->PeriphClockSelection) & RCC_PERIPHCLK_USB) == RCC_PERIPHCLK_USB)
 80027d2:	687b      	ldr	r3, [r7, #4]
 80027d4:	681a      	ldr	r2, [r3, #0]
 80027d6:	2380      	movs	r3, #128	; 0x80
 80027d8:	029b      	lsls	r3, r3, #10
 80027da:	4013      	ands	r3, r2
 80027dc:	d009      	beq.n	80027f2 <HAL_RCCEx_PeriphCLKConfig+0x1b6>
  {
    /* Check the parameters */
    assert_param(IS_RCC_USBCLKSOURCE(PeriphClkInit->UsbClockSelection));
    
    /* Configure the USB clock source */
    __HAL_RCC_USB_CONFIG(PeriphClkInit->UsbClockSelection);
 80027de:	4b0f      	ldr	r3, [pc, #60]	; (800281c <HAL_RCCEx_PeriphCLKConfig+0x1e0>)
 80027e0:	6b1b      	ldr	r3, [r3, #48]	; 0x30
 80027e2:	2280      	movs	r2, #128	; 0x80
 80027e4:	4393      	bics	r3, r2
 80027e6:	0019      	movs	r1, r3
 80027e8:	687b      	ldr	r3, [r7, #4]
 80027ea:	699a      	ldr	r2, [r3, #24]
 80027ec:	4b0b      	ldr	r3, [pc, #44]	; (800281c <HAL_RCCEx_PeriphCLKConfig+0x1e0>)
 80027ee:	430a      	orrs	r2, r1
 80027f0:	631a      	str	r2, [r3, #48]	; 0x30
#if defined(STM32F042x6) || defined(STM32F048xx)\
 || defined(STM32F051x8) || defined(STM32F058xx)\
 || defined(STM32F071xB) || defined(STM32F072xB) || defined(STM32F078xx)\
 || defined(STM32F091xC) || defined(STM32F098xx)
  /*------------------------------ CEC clock Configuration -------------------*/ 
  if(((PeriphClkInit->PeriphClockSelection) & RCC_PERIPHCLK_CEC) == RCC_PERIPHCLK_CEC)
 80027f2:	687b      	ldr	r3, [r7, #4]
 80027f4:	681a      	ldr	r2, [r3, #0]
 80027f6:	2380      	movs	r3, #128	; 0x80
 80027f8:	00db      	lsls	r3, r3, #3
 80027fa:	4013      	ands	r3, r2
 80027fc:	d009      	beq.n	8002812 <HAL_RCCEx_PeriphCLKConfig+0x1d6>
  {
    /* Check the parameters */
    assert_param(IS_RCC_CECCLKSOURCE(PeriphClkInit->CecClockSelection));
    
    /* Configure the CEC clock source */
    __HAL_RCC_CEC_CONFIG(PeriphClkInit->CecClockSelection);
 80027fe:	4b07      	ldr	r3, [pc, #28]	; (800281c <HAL_RCCEx_PeriphCLKConfig+0x1e0>)
 8002800:	6b1b      	ldr	r3, [r3, #48]	; 0x30
 8002802:	2240      	movs	r2, #64	; 0x40
 8002804:	4393      	bics	r3, r2
 8002806:	0019      	movs	r1, r3
 8002808:	687b      	ldr	r3, [r7, #4]
 800280a:	695a      	ldr	r2, [r3, #20]
 800280c:	4b03      	ldr	r3, [pc, #12]	; (800281c <HAL_RCCEx_PeriphCLKConfig+0x1e0>)
 800280e:	430a      	orrs	r2, r1
 8002810:	631a      	str	r2, [r3, #48]	; 0x30
#endif /* STM32F042x6 || STM32F048xx ||                */
       /* STM32F051x8 || STM32F058xx ||                */
       /* STM32F071xB || STM32F072xB || STM32F078xx || */
       /* STM32F091xC || STM32F098xx */
  
  return HAL_OK;
 8002812:	2300      	movs	r3, #0
}
 8002814:	0018      	movs	r0, r3
 8002816:	46bd      	mov	sp, r7
 8002818:	b006      	add	sp, #24
 800281a:	bd80      	pop	{r7, pc}
 800281c:	40021000 	.word	0x40021000
 8002820:	40007000 	.word	0x40007000
 8002824:	fffffcff 	.word	0xfffffcff
 8002828:	fffeffff 	.word	0xfffeffff
 800282c:	00001388 	.word	0x00001388
 8002830:	efffffff 	.word	0xefffffff
 8002834:	fffcffff 	.word	0xfffcffff

08002838 <HAL_SPI_Init>:
  * @param  hspi pointer to a SPI_HandleTypeDef structure that contains
  *               the configuration information for SPI module.
  * @retval HAL status
  */
HAL_StatusTypeDef HAL_SPI_Init(SPI_HandleTypeDef *hspi)
{
 8002838:	b580      	push	{r7, lr}
 800283a:	b084      	sub	sp, #16
 800283c:	af00      	add	r7, sp, #0
 800283e:	6078      	str	r0, [r7, #4]
  uint32_t frxth;

  /* Check the SPI handle allocation */
  if (hspi == NULL)
 8002840:	687b      	ldr	r3, [r7, #4]
 8002842:	2b00      	cmp	r3, #0
 8002844:	d101      	bne.n	800284a <HAL_SPI_Init+0x12>
  {
    return HAL_ERROR;
 8002846:	2301      	movs	r3, #1
 8002848:	e0a8      	b.n	800299c <HAL_SPI_Init+0x164>
  assert_param(IS_SPI_NSS(hspi->Init.NSS));
  assert_param(IS_SPI_NSSP(hspi->Init.NSSPMode));
  assert_param(IS_SPI_BAUDRATE_PRESCALER(hspi->Init.BaudRatePrescaler));
  assert_param(IS_SPI_FIRST_BIT(hspi->Init.FirstBit));
  assert_param(IS_SPI_TIMODE(hspi->Init.TIMode));
  if (hspi->Init.TIMode == SPI_TIMODE_DISABLE)
 800284a:	687b      	ldr	r3, [r7, #4]
 800284c:	6a5b      	ldr	r3, [r3, #36]	; 0x24
 800284e:	2b00      	cmp	r3, #0
 8002850:	d109      	bne.n	8002866 <HAL_SPI_Init+0x2e>
  {
    assert_param(IS_SPI_CPOL(hspi->Init.CLKPolarity));
    assert_param(IS_SPI_CPHA(hspi->Init.CLKPhase));

    if (hspi->Init.Mode == SPI_MODE_MASTER)
 8002852:	687b      	ldr	r3, [r7, #4]
 8002854:	685a      	ldr	r2, [r3, #4]
 8002856:	2382      	movs	r3, #130	; 0x82
 8002858:	005b      	lsls	r3, r3, #1
 800285a:	429a      	cmp	r2, r3
 800285c:	d009      	beq.n	8002872 <HAL_SPI_Init+0x3a>
      assert_param(IS_SPI_BAUDRATE_PRESCALER(hspi->Init.BaudRatePrescaler));
    }
    else
    {
      /* Baudrate prescaler not use in Motoraola Slave mode. force to default value */
      hspi->Init.BaudRatePrescaler = SPI_BAUDRATEPRESCALER_2;
 800285e:	687b      	ldr	r3, [r7, #4]
 8002860:	2200      	movs	r2, #0
 8002862:	61da      	str	r2, [r3, #28]
 8002864:	e005      	b.n	8002872 <HAL_SPI_Init+0x3a>
  else
  {
    assert_param(IS_SPI_BAUDRATE_PRESCALER(hspi->Init.BaudRatePrescaler));

    /* Force polarity and phase to TI protocaol requirements */
    hspi->Init.CLKPolarity = SPI_POLARITY_LOW;
 8002866:	687b      	ldr	r3, [r7, #4]
 8002868:	2200      	movs	r2, #0
 800286a:	611a      	str	r2, [r3, #16]
    hspi->Init.CLKPhase    = SPI_PHASE_1EDGE;
 800286c:	687b      	ldr	r3, [r7, #4]
 800286e:	2200      	movs	r2, #0
 8002870:	615a      	str	r2, [r3, #20]
  {
    assert_param(IS_SPI_CRC_POLYNOMIAL(hspi->Init.CRCPolynomial));
    assert_param(IS_SPI_CRC_LENGTH(hspi->Init.CRCLength));
  }
#else
  hspi->Init.CRCCalculation = SPI_CRCCALCULATION_DISABLE;
 8002872:	687b      	ldr	r3, [r7, #4]
 8002874:	2200      	movs	r2, #0
 8002876:	629a      	str	r2, [r3, #40]	; 0x28
#endif /* USE_SPI_CRC */

  if (hspi->State == HAL_SPI_STATE_RESET)
 8002878:	687b      	ldr	r3, [r7, #4]
 800287a:	225d      	movs	r2, #93	; 0x5d
 800287c:	5c9b      	ldrb	r3, [r3, r2]
 800287e:	b2db      	uxtb	r3, r3
 8002880:	2b00      	cmp	r3, #0
 8002882:	d107      	bne.n	8002894 <HAL_SPI_Init+0x5c>
  {
    /* Allocate lock resource and initialize it */
    hspi->Lock = HAL_UNLOCKED;
 8002884:	687b      	ldr	r3, [r7, #4]
 8002886:	225c      	movs	r2, #92	; 0x5c
 8002888:	2100      	movs	r1, #0
 800288a:	5499      	strb	r1, [r3, r2]

    /* Init the low level hardware : GPIO, CLOCK, NVIC... */
    hspi->MspInitCallback(hspi);
#else
    /* Init the low level hardware : GPIO, CLOCK, NVIC... */
    HAL_SPI_MspInit(hspi);
 800288c:	687b      	ldr	r3, [r7, #4]
 800288e:	0018      	movs	r0, r3
 8002890:	f7fe fc96 	bl	80011c0 <HAL_SPI_MspInit>
#endif /* USE_HAL_SPI_REGISTER_CALLBACKS */
  }

  hspi->State = HAL_SPI_STATE_BUSY;
 8002894:	687b      	ldr	r3, [r7, #4]
 8002896:	225d      	movs	r2, #93	; 0x5d
 8002898:	2102      	movs	r1, #2
 800289a:	5499      	strb	r1, [r3, r2]

  /* Disable the selected SPI peripheral */
  __HAL_SPI_DISABLE(hspi);
 800289c:	687b      	ldr	r3, [r7, #4]
 800289e:	681b      	ldr	r3, [r3, #0]
 80028a0:	681a      	ldr	r2, [r3, #0]
 80028a2:	687b      	ldr	r3, [r7, #4]
 80028a4:	681b      	ldr	r3, [r3, #0]
 80028a6:	2140      	movs	r1, #64	; 0x40
 80028a8:	438a      	bics	r2, r1
 80028aa:	601a      	str	r2, [r3, #0]

  /* Align by default the rs fifo threshold on the data size */
  if (hspi->Init.DataSize > SPI_DATASIZE_8BIT)
 80028ac:	687b      	ldr	r3, [r7, #4]
 80028ae:	68da      	ldr	r2, [r3, #12]
 80028b0:	23e0      	movs	r3, #224	; 0xe0
 80028b2:	00db      	lsls	r3, r3, #3
 80028b4:	429a      	cmp	r2, r3
 80028b6:	d902      	bls.n	80028be <HAL_SPI_Init+0x86>
  {
    frxth = SPI_RXFIFO_THRESHOLD_HF;
 80028b8:	2300      	movs	r3, #0
 80028ba:	60fb      	str	r3, [r7, #12]
 80028bc:	e002      	b.n	80028c4 <HAL_SPI_Init+0x8c>
  }
  else
  {
    frxth = SPI_RXFIFO_THRESHOLD_QF;
 80028be:	2380      	movs	r3, #128	; 0x80
 80028c0:	015b      	lsls	r3, r3, #5
 80028c2:	60fb      	str	r3, [r7, #12]
  }

  /* CRC calculation is valid only for 16Bit and 8 Bit */
  if ((hspi->Init.DataSize != SPI_DATASIZE_16BIT) && (hspi->Init.DataSize != SPI_DATASIZE_8BIT))
 80028c4:	687b      	ldr	r3, [r7, #4]
 80028c6:	68da      	ldr	r2, [r3, #12]
 80028c8:	23f0      	movs	r3, #240	; 0xf0
 80028ca:	011b      	lsls	r3, r3, #4
 80028cc:	429a      	cmp	r2, r3
 80028ce:	d008      	beq.n	80028e2 <HAL_SPI_Init+0xaa>
 80028d0:	687b      	ldr	r3, [r7, #4]
 80028d2:	68da      	ldr	r2, [r3, #12]
 80028d4:	23e0      	movs	r3, #224	; 0xe0
 80028d6:	00db      	lsls	r3, r3, #3
 80028d8:	429a      	cmp	r2, r3
 80028da:	d002      	beq.n	80028e2 <HAL_SPI_Init+0xaa>
  {
    /* CRC must be disabled */
    hspi->Init.CRCCalculation = SPI_CRCCALCULATION_DISABLE;
 80028dc:	687b      	ldr	r3, [r7, #4]
 80028de:	2200      	movs	r2, #0
 80028e0:	629a      	str	r2, [r3, #40]	; 0x28
  }

  /*----------------------- SPIx CR1 & CR2 Configuration ---------------------*/
  /* Configure : SPI Mode, Communication Mode, Clock polarity and phase, NSS management,
  Communication speed, First bit and CRC calculation state */
  WRITE_REG(hspi->Instance->CR1, ((hspi->Init.Mode & (SPI_CR1_MSTR | SPI_CR1_SSI)) |
 80028e2:	687b      	ldr	r3, [r7, #4]
 80028e4:	685a      	ldr	r2, [r3, #4]
 80028e6:	2382      	movs	r3, #130	; 0x82
 80028e8:	005b      	lsls	r3, r3, #1
 80028ea:	401a      	ands	r2, r3
 80028ec:	687b      	ldr	r3, [r7, #4]
 80028ee:	6899      	ldr	r1, [r3, #8]
 80028f0:	2384      	movs	r3, #132	; 0x84
 80028f2:	021b      	lsls	r3, r3, #8
 80028f4:	400b      	ands	r3, r1
 80028f6:	431a      	orrs	r2, r3
 80028f8:	687b      	ldr	r3, [r7, #4]
 80028fa:	691b      	ldr	r3, [r3, #16]
 80028fc:	2102      	movs	r1, #2
 80028fe:	400b      	ands	r3, r1
 8002900:	431a      	orrs	r2, r3
 8002902:	687b      	ldr	r3, [r7, #4]
 8002904:	695b      	ldr	r3, [r3, #20]
 8002906:	2101      	movs	r1, #1
 8002908:	400b      	ands	r3, r1
 800290a:	431a      	orrs	r2, r3
 800290c:	687b      	ldr	r3, [r7, #4]
 800290e:	6999      	ldr	r1, [r3, #24]
 8002910:	2380      	movs	r3, #128	; 0x80
 8002912:	009b      	lsls	r3, r3, #2
 8002914:	400b      	ands	r3, r1
 8002916:	431a      	orrs	r2, r3
 8002918:	687b      	ldr	r3, [r7, #4]
 800291a:	69db      	ldr	r3, [r3, #28]
 800291c:	2138      	movs	r1, #56	; 0x38
 800291e:	400b      	ands	r3, r1
 8002920:	431a      	orrs	r2, r3
 8002922:	687b      	ldr	r3, [r7, #4]
 8002924:	6a1b      	ldr	r3, [r3, #32]
 8002926:	2180      	movs	r1, #128	; 0x80
 8002928:	400b      	ands	r3, r1
 800292a:	431a      	orrs	r2, r3
 800292c:	0011      	movs	r1, r2
 800292e:	687b      	ldr	r3, [r7, #4]
 8002930:	6a9a      	ldr	r2, [r3, #40]	; 0x28
 8002932:	2380      	movs	r3, #128	; 0x80
 8002934:	019b      	lsls	r3, r3, #6
 8002936:	401a      	ands	r2, r3
 8002938:	687b      	ldr	r3, [r7, #4]
 800293a:	681b      	ldr	r3, [r3, #0]
 800293c:	430a      	orrs	r2, r1
 800293e:	601a      	str	r2, [r3, #0]
    }
  }
#endif /* USE_SPI_CRC */

  /* Configure : NSS management, TI Mode, NSS Pulse, Data size and Rx Fifo threshold */
  WRITE_REG(hspi->Instance->CR2, (((hspi->Init.NSS >> 16U) & SPI_CR2_SSOE) |
 8002940:	687b      	ldr	r3, [r7, #4]
 8002942:	699b      	ldr	r3, [r3, #24]
 8002944:	0c1b      	lsrs	r3, r3, #16
 8002946:	2204      	movs	r2, #4
 8002948:	401a      	ands	r2, r3
 800294a:	687b      	ldr	r3, [r7, #4]
 800294c:	6a5b      	ldr	r3, [r3, #36]	; 0x24
 800294e:	2110      	movs	r1, #16
 8002950:	400b      	ands	r3, r1
 8002952:	431a      	orrs	r2, r3
 8002954:	687b      	ldr	r3, [r7, #4]
 8002956:	6b5b      	ldr	r3, [r3, #52]	; 0x34
 8002958:	2108      	movs	r1, #8
 800295a:	400b      	ands	r3, r1
 800295c:	431a      	orrs	r2, r3
 800295e:	687b      	ldr	r3, [r7, #4]
 8002960:	68d9      	ldr	r1, [r3, #12]
 8002962:	23f0      	movs	r3, #240	; 0xf0
 8002964:	011b      	lsls	r3, r3, #4
 8002966:	400b      	ands	r3, r1
 8002968:	431a      	orrs	r2, r3
 800296a:	0011      	movs	r1, r2
 800296c:	68fa      	ldr	r2, [r7, #12]
 800296e:	2380      	movs	r3, #128	; 0x80
 8002970:	015b      	lsls	r3, r3, #5
 8002972:	401a      	ands	r2, r3
 8002974:	687b      	ldr	r3, [r7, #4]
 8002976:	681b      	ldr	r3, [r3, #0]
 8002978:	430a      	orrs	r2, r1
 800297a:	605a      	str	r2, [r3, #4]
  }
#endif /* USE_SPI_CRC */

#if defined(SPI_I2SCFGR_I2SMOD)
  /* Activate the SPI mode (Make sure that I2SMOD bit in I2SCFGR register is reset) */
  CLEAR_BIT(hspi->Instance->I2SCFGR, SPI_I2SCFGR_I2SMOD);
 800297c:	687b      	ldr	r3, [r7, #4]
 800297e:	681b      	ldr	r3, [r3, #0]
 8002980:	69da      	ldr	r2, [r3, #28]
 8002982:	687b      	ldr	r3, [r7, #4]
 8002984:	681b      	ldr	r3, [r3, #0]
 8002986:	4907      	ldr	r1, [pc, #28]	; (80029a4 <HAL_SPI_Init+0x16c>)
 8002988:	400a      	ands	r2, r1
 800298a:	61da      	str	r2, [r3, #28]
#endif /* SPI_I2SCFGR_I2SMOD */

  hspi->ErrorCode = HAL_SPI_ERROR_NONE;
 800298c:	687b      	ldr	r3, [r7, #4]
 800298e:	2200      	movs	r2, #0
 8002990:	661a      	str	r2, [r3, #96]	; 0x60
  hspi->State     = HAL_SPI_STATE_READY;
 8002992:	687b      	ldr	r3, [r7, #4]
 8002994:	225d      	movs	r2, #93	; 0x5d
 8002996:	2101      	movs	r1, #1
 8002998:	5499      	strb	r1, [r3, r2]

  return HAL_OK;
 800299a:	2300      	movs	r3, #0
}
 800299c:	0018      	movs	r0, r3
 800299e:	46bd      	mov	sp, r7
 80029a0:	b004      	add	sp, #16
 80029a2:	bd80      	pop	{r7, pc}
 80029a4:	fffff7ff 	.word	0xfffff7ff

080029a8 <HAL_SPI_TransmitReceive>:
  * @param  Timeout Timeout duration
  * @retval HAL status
  */
HAL_StatusTypeDef HAL_SPI_TransmitReceive(SPI_HandleTypeDef *hspi, uint8_t *pTxData, uint8_t *pRxData, uint16_t Size,
                                          uint32_t Timeout)
{
 80029a8:	b580      	push	{r7, lr}
 80029aa:	b08a      	sub	sp, #40	; 0x28
 80029ac:	af00      	add	r7, sp, #0
 80029ae:	60f8      	str	r0, [r7, #12]
 80029b0:	60b9      	str	r1, [r7, #8]
 80029b2:	607a      	str	r2, [r7, #4]
 80029b4:	001a      	movs	r2, r3
 80029b6:	1cbb      	adds	r3, r7, #2
 80029b8:	801a      	strh	r2, [r3, #0]
  __IO uint8_t  * ptmpreg8;
  __IO uint8_t  tmpreg8 = 0;
#endif /* USE_SPI_CRC */

  /* Variable used to alternate Rx and Tx during transfer */
  uint32_t             txallowed = 1U;
 80029ba:	2301      	movs	r3, #1
 80029bc:	627b      	str	r3, [r7, #36]	; 0x24
  HAL_StatusTypeDef    errorcode = HAL_OK;
 80029be:	2323      	movs	r3, #35	; 0x23
 80029c0:	18fb      	adds	r3, r7, r3
 80029c2:	2200      	movs	r2, #0
 80029c4:	701a      	strb	r2, [r3, #0]

  /* Check Direction parameter */
  assert_param(IS_SPI_DIRECTION_2LINES(hspi->Init.Direction));

  /* Process Locked */
  __HAL_LOCK(hspi);
 80029c6:	68fb      	ldr	r3, [r7, #12]
 80029c8:	225c      	movs	r2, #92	; 0x5c
 80029ca:	5c9b      	ldrb	r3, [r3, r2]
 80029cc:	2b01      	cmp	r3, #1
 80029ce:	d101      	bne.n	80029d4 <HAL_SPI_TransmitReceive+0x2c>
 80029d0:	2302      	movs	r3, #2
 80029d2:	e1b5      	b.n	8002d40 <HAL_SPI_TransmitReceive+0x398>
 80029d4:	68fb      	ldr	r3, [r7, #12]
 80029d6:	225c      	movs	r2, #92	; 0x5c
 80029d8:	2101      	movs	r1, #1
 80029da:	5499      	strb	r1, [r3, r2]

  /* Init tickstart for timeout management*/
  tickstart = HAL_GetTick();
 80029dc:	f7fe feb6 	bl	800174c <HAL_GetTick>
 80029e0:	0003      	movs	r3, r0
 80029e2:	61fb      	str	r3, [r7, #28]

  /* Init temporary variables */
  tmp_state           = hspi->State;
 80029e4:	201b      	movs	r0, #27
 80029e6:	183b      	adds	r3, r7, r0
 80029e8:	68fa      	ldr	r2, [r7, #12]
 80029ea:	215d      	movs	r1, #93	; 0x5d
 80029ec:	5c52      	ldrb	r2, [r2, r1]
 80029ee:	701a      	strb	r2, [r3, #0]
  tmp_mode            = hspi->Init.Mode;
 80029f0:	68fb      	ldr	r3, [r7, #12]
 80029f2:	685b      	ldr	r3, [r3, #4]
 80029f4:	617b      	str	r3, [r7, #20]
  initial_TxXferCount = Size;
 80029f6:	2312      	movs	r3, #18
 80029f8:	18fb      	adds	r3, r7, r3
 80029fa:	1cba      	adds	r2, r7, #2
 80029fc:	8812      	ldrh	r2, [r2, #0]
 80029fe:	801a      	strh	r2, [r3, #0]
#if (USE_SPI_CRC != 0U)
  spi_cr1             = READ_REG(hspi->Instance->CR1);
  spi_cr2             = READ_REG(hspi->Instance->CR2);
#endif /* USE_SPI_CRC */

  if (!((tmp_state == HAL_SPI_STATE_READY) || \
 8002a00:	183b      	adds	r3, r7, r0
 8002a02:	781b      	ldrb	r3, [r3, #0]
 8002a04:	2b01      	cmp	r3, #1
 8002a06:	d011      	beq.n	8002a2c <HAL_SPI_TransmitReceive+0x84>
 8002a08:	697a      	ldr	r2, [r7, #20]
 8002a0a:	2382      	movs	r3, #130	; 0x82
 8002a0c:	005b      	lsls	r3, r3, #1
 8002a0e:	429a      	cmp	r2, r3
 8002a10:	d107      	bne.n	8002a22 <HAL_SPI_TransmitReceive+0x7a>
        ((tmp_mode == SPI_MODE_MASTER) && (hspi->Init.Direction == SPI_DIRECTION_2LINES) && (tmp_state == HAL_SPI_STATE_BUSY_RX))))
 8002a12:	68fb      	ldr	r3, [r7, #12]
 8002a14:	689b      	ldr	r3, [r3, #8]
 8002a16:	2b00      	cmp	r3, #0
 8002a18:	d103      	bne.n	8002a22 <HAL_SPI_TransmitReceive+0x7a>
 8002a1a:	183b      	adds	r3, r7, r0
 8002a1c:	781b      	ldrb	r3, [r3, #0]
 8002a1e:	2b04      	cmp	r3, #4
 8002a20:	d004      	beq.n	8002a2c <HAL_SPI_TransmitReceive+0x84>
  {
    errorcode = HAL_BUSY;
 8002a22:	2323      	movs	r3, #35	; 0x23
 8002a24:	18fb      	adds	r3, r7, r3
 8002a26:	2202      	movs	r2, #2
 8002a28:	701a      	strb	r2, [r3, #0]
    goto error;
 8002a2a:	e17e      	b.n	8002d2a <HAL_SPI_TransmitReceive+0x382>
  }

  if ((pTxData == NULL) || (pRxData == NULL) || (Size == 0U))
 8002a2c:	68bb      	ldr	r3, [r7, #8]
 8002a2e:	2b00      	cmp	r3, #0
 8002a30:	d006      	beq.n	8002a40 <HAL_SPI_TransmitReceive+0x98>
 8002a32:	687b      	ldr	r3, [r7, #4]
 8002a34:	2b00      	cmp	r3, #0
 8002a36:	d003      	beq.n	8002a40 <HAL_SPI_TransmitReceive+0x98>
 8002a38:	1cbb      	adds	r3, r7, #2
 8002a3a:	881b      	ldrh	r3, [r3, #0]
 8002a3c:	2b00      	cmp	r3, #0
 8002a3e:	d104      	bne.n	8002a4a <HAL_SPI_TransmitReceive+0xa2>
  {
    errorcode = HAL_ERROR;
 8002a40:	2323      	movs	r3, #35	; 0x23
 8002a42:	18fb      	adds	r3, r7, r3
 8002a44:	2201      	movs	r2, #1
 8002a46:	701a      	strb	r2, [r3, #0]
    goto error;
 8002a48:	e16f      	b.n	8002d2a <HAL_SPI_TransmitReceive+0x382>
  }

  /* Don't overwrite in case of HAL_SPI_STATE_BUSY_RX */
  if (hspi->State != HAL_SPI_STATE_BUSY_RX)
 8002a4a:	68fb      	ldr	r3, [r7, #12]
 8002a4c:	225d      	movs	r2, #93	; 0x5d
 8002a4e:	5c9b      	ldrb	r3, [r3, r2]
 8002a50:	b2db      	uxtb	r3, r3
 8002a52:	2b04      	cmp	r3, #4
 8002a54:	d003      	beq.n	8002a5e <HAL_SPI_TransmitReceive+0xb6>
  {
    hspi->State = HAL_SPI_STATE_BUSY_TX_RX;
 8002a56:	68fb      	ldr	r3, [r7, #12]
 8002a58:	225d      	movs	r2, #93	; 0x5d
 8002a5a:	2105      	movs	r1, #5
 8002a5c:	5499      	strb	r1, [r3, r2]
  }

  /* Set the transaction information */
  hspi->ErrorCode   = HAL_SPI_ERROR_NONE;
 8002a5e:	68fb      	ldr	r3, [r7, #12]
 8002a60:	2200      	movs	r2, #0
 8002a62:	661a      	str	r2, [r3, #96]	; 0x60
  hspi->pRxBuffPtr  = (uint8_t *)pRxData;
 8002a64:	68fb      	ldr	r3, [r7, #12]
 8002a66:	687a      	ldr	r2, [r7, #4]
 8002a68:	641a      	str	r2, [r3, #64]	; 0x40
  hspi->RxXferCount = Size;
 8002a6a:	68fb      	ldr	r3, [r7, #12]
 8002a6c:	1cba      	adds	r2, r7, #2
 8002a6e:	2146      	movs	r1, #70	; 0x46
 8002a70:	8812      	ldrh	r2, [r2, #0]
 8002a72:	525a      	strh	r2, [r3, r1]
  hspi->RxXferSize  = Size;
 8002a74:	68fb      	ldr	r3, [r7, #12]
 8002a76:	1cba      	adds	r2, r7, #2
 8002a78:	2144      	movs	r1, #68	; 0x44
 8002a7a:	8812      	ldrh	r2, [r2, #0]
 8002a7c:	525a      	strh	r2, [r3, r1]
  hspi->pTxBuffPtr  = (uint8_t *)pTxData;
 8002a7e:	68fb      	ldr	r3, [r7, #12]
 8002a80:	68ba      	ldr	r2, [r7, #8]
 8002a82:	639a      	str	r2, [r3, #56]	; 0x38
  hspi->TxXferCount = Size;
 8002a84:	68fb      	ldr	r3, [r7, #12]
 8002a86:	1cba      	adds	r2, r7, #2
 8002a88:	8812      	ldrh	r2, [r2, #0]
 8002a8a:	87da      	strh	r2, [r3, #62]	; 0x3e
  hspi->TxXferSize  = Size;
 8002a8c:	68fb      	ldr	r3, [r7, #12]
 8002a8e:	1cba      	adds	r2, r7, #2
 8002a90:	8812      	ldrh	r2, [r2, #0]
 8002a92:	879a      	strh	r2, [r3, #60]	; 0x3c

  /*Init field not used in handle to zero */
  hspi->RxISR       = NULL;
 8002a94:	68fb      	ldr	r3, [r7, #12]
 8002a96:	2200      	movs	r2, #0
 8002a98:	64da      	str	r2, [r3, #76]	; 0x4c
  hspi->TxISR       = NULL;
 8002a9a:	68fb      	ldr	r3, [r7, #12]
 8002a9c:	2200      	movs	r2, #0
 8002a9e:	651a      	str	r2, [r3, #80]	; 0x50
    SPI_RESET_CRC(hspi);
  }
#endif /* USE_SPI_CRC */

  /* Set the Rx Fifo threshold */
  if (hspi->Init.DataSize > SPI_DATASIZE_8BIT)
 8002aa0:	68fb      	ldr	r3, [r7, #12]
 8002aa2:	68da      	ldr	r2, [r3, #12]
 8002aa4:	23e0      	movs	r3, #224	; 0xe0
 8002aa6:	00db      	lsls	r3, r3, #3
 8002aa8:	429a      	cmp	r2, r3
 8002aaa:	d908      	bls.n	8002abe <HAL_SPI_TransmitReceive+0x116>
  {
    /* Set fiforxthreshold according the reception data length: 16bit */
    CLEAR_BIT(hspi->Instance->CR2, SPI_RXFIFO_THRESHOLD);
 8002aac:	68fb      	ldr	r3, [r7, #12]
 8002aae:	681b      	ldr	r3, [r3, #0]
 8002ab0:	685a      	ldr	r2, [r3, #4]
 8002ab2:	68fb      	ldr	r3, [r7, #12]
 8002ab4:	681b      	ldr	r3, [r3, #0]
 8002ab6:	49a4      	ldr	r1, [pc, #656]	; (8002d48 <HAL_SPI_TransmitReceive+0x3a0>)
 8002ab8:	400a      	ands	r2, r1
 8002aba:	605a      	str	r2, [r3, #4]
 8002abc:	e008      	b.n	8002ad0 <HAL_SPI_TransmitReceive+0x128>
  }
  else
  {
    /* Set fiforxthreshold according the reception data length: 8bit */
    SET_BIT(hspi->Instance->CR2, SPI_RXFIFO_THRESHOLD);
 8002abe:	68fb      	ldr	r3, [r7, #12]
 8002ac0:	681b      	ldr	r3, [r3, #0]
 8002ac2:	685a      	ldr	r2, [r3, #4]
 8002ac4:	68fb      	ldr	r3, [r7, #12]
 8002ac6:	681b      	ldr	r3, [r3, #0]
 8002ac8:	2180      	movs	r1, #128	; 0x80
 8002aca:	0149      	lsls	r1, r1, #5
 8002acc:	430a      	orrs	r2, r1
 8002ace:	605a      	str	r2, [r3, #4]
  }

  /* Check if the SPI is already enabled */
  if ((hspi->Instance->CR1 & SPI_CR1_SPE) != SPI_CR1_SPE)
 8002ad0:	68fb      	ldr	r3, [r7, #12]
 8002ad2:	681b      	ldr	r3, [r3, #0]
 8002ad4:	681b      	ldr	r3, [r3, #0]
 8002ad6:	2240      	movs	r2, #64	; 0x40
 8002ad8:	4013      	ands	r3, r2
 8002ada:	2b40      	cmp	r3, #64	; 0x40
 8002adc:	d007      	beq.n	8002aee <HAL_SPI_TransmitReceive+0x146>
  {
    /* Enable SPI peripheral */
    __HAL_SPI_ENABLE(hspi);
 8002ade:	68fb      	ldr	r3, [r7, #12]
 8002ae0:	681b      	ldr	r3, [r3, #0]
 8002ae2:	681a      	ldr	r2, [r3, #0]
 8002ae4:	68fb      	ldr	r3, [r7, #12]
 8002ae6:	681b      	ldr	r3, [r3, #0]
 8002ae8:	2140      	movs	r1, #64	; 0x40
 8002aea:	430a      	orrs	r2, r1
 8002aec:	601a      	str	r2, [r3, #0]
  }

  /* Transmit and Receive data in 16 Bit mode */
  if (hspi->Init.DataSize > SPI_DATASIZE_8BIT)
 8002aee:	68fb      	ldr	r3, [r7, #12]
 8002af0:	68da      	ldr	r2, [r3, #12]
 8002af2:	23e0      	movs	r3, #224	; 0xe0
 8002af4:	00db      	lsls	r3, r3, #3
 8002af6:	429a      	cmp	r2, r3
 8002af8:	d800      	bhi.n	8002afc <HAL_SPI_TransmitReceive+0x154>
 8002afa:	e07f      	b.n	8002bfc <HAL_SPI_TransmitReceive+0x254>
  {
    if ((hspi->Init.Mode == SPI_MODE_SLAVE) || (initial_TxXferCount == 0x01U))
 8002afc:	68fb      	ldr	r3, [r7, #12]
 8002afe:	685b      	ldr	r3, [r3, #4]
 8002b00:	2b00      	cmp	r3, #0
 8002b02:	d005      	beq.n	8002b10 <HAL_SPI_TransmitReceive+0x168>
 8002b04:	2312      	movs	r3, #18
 8002b06:	18fb      	adds	r3, r7, r3
 8002b08:	881b      	ldrh	r3, [r3, #0]
 8002b0a:	2b01      	cmp	r3, #1
 8002b0c:	d000      	beq.n	8002b10 <HAL_SPI_TransmitReceive+0x168>
 8002b0e:	e069      	b.n	8002be4 <HAL_SPI_TransmitReceive+0x23c>
    {
      hspi->Instance->DR = *((uint16_t *)hspi->pTxBuffPtr);
 8002b10:	68fb      	ldr	r3, [r7, #12]
 8002b12:	6b9b      	ldr	r3, [r3, #56]	; 0x38
 8002b14:	881a      	ldrh	r2, [r3, #0]
 8002b16:	68fb      	ldr	r3, [r7, #12]
 8002b18:	681b      	ldr	r3, [r3, #0]
 8002b1a:	60da      	str	r2, [r3, #12]
      hspi->pTxBuffPtr += sizeof(uint16_t);
 8002b1c:	68fb      	ldr	r3, [r7, #12]
 8002b1e:	6b9b      	ldr	r3, [r3, #56]	; 0x38
 8002b20:	1c9a      	adds	r2, r3, #2
 8002b22:	68fb      	ldr	r3, [r7, #12]
 8002b24:	639a      	str	r2, [r3, #56]	; 0x38
      hspi->TxXferCount--;
 8002b26:	68fb      	ldr	r3, [r7, #12]
 8002b28:	8fdb      	ldrh	r3, [r3, #62]	; 0x3e
 8002b2a:	b29b      	uxth	r3, r3
 8002b2c:	3b01      	subs	r3, #1
 8002b2e:	b29a      	uxth	r2, r3
 8002b30:	68fb      	ldr	r3, [r7, #12]
 8002b32:	87da      	strh	r2, [r3, #62]	; 0x3e
    }
    while ((hspi->TxXferCount > 0U) || (hspi->RxXferCount > 0U))
 8002b34:	e056      	b.n	8002be4 <HAL_SPI_TransmitReceive+0x23c>
    {
      /* Check TXE flag */
      if ((__HAL_SPI_GET_FLAG(hspi, SPI_FLAG_TXE)) && (hspi->TxXferCount > 0U) && (txallowed == 1U))
 8002b36:	68fb      	ldr	r3, [r7, #12]
 8002b38:	681b      	ldr	r3, [r3, #0]
 8002b3a:	689b      	ldr	r3, [r3, #8]
 8002b3c:	2202      	movs	r2, #2
 8002b3e:	4013      	ands	r3, r2
 8002b40:	2b02      	cmp	r3, #2
 8002b42:	d11b      	bne.n	8002b7c <HAL_SPI_TransmitReceive+0x1d4>
 8002b44:	68fb      	ldr	r3, [r7, #12]
 8002b46:	8fdb      	ldrh	r3, [r3, #62]	; 0x3e
 8002b48:	b29b      	uxth	r3, r3
 8002b4a:	2b00      	cmp	r3, #0
 8002b4c:	d016      	beq.n	8002b7c <HAL_SPI_TransmitReceive+0x1d4>
 8002b4e:	6a7b      	ldr	r3, [r7, #36]	; 0x24
 8002b50:	2b01      	cmp	r3, #1
 8002b52:	d113      	bne.n	8002b7c <HAL_SPI_TransmitReceive+0x1d4>
      {
        hspi->Instance->DR = *((uint16_t *)hspi->pTxBuffPtr);
 8002b54:	68fb      	ldr	r3, [r7, #12]
 8002b56:	6b9b      	ldr	r3, [r3, #56]	; 0x38
 8002b58:	881a      	ldrh	r2, [r3, #0]
 8002b5a:	68fb      	ldr	r3, [r7, #12]
 8002b5c:	681b      	ldr	r3, [r3, #0]
 8002b5e:	60da      	str	r2, [r3, #12]
        hspi->pTxBuffPtr += sizeof(uint16_t);
 8002b60:	68fb      	ldr	r3, [r7, #12]
 8002b62:	6b9b      	ldr	r3, [r3, #56]	; 0x38
 8002b64:	1c9a      	adds	r2, r3, #2
 8002b66:	68fb      	ldr	r3, [r7, #12]
 8002b68:	639a      	str	r2, [r3, #56]	; 0x38
        hspi->TxXferCount--;
 8002b6a:	68fb      	ldr	r3, [r7, #12]
 8002b6c:	8fdb      	ldrh	r3, [r3, #62]	; 0x3e
 8002b6e:	b29b      	uxth	r3, r3
 8002b70:	3b01      	subs	r3, #1
 8002b72:	b29a      	uxth	r2, r3
 8002b74:	68fb      	ldr	r3, [r7, #12]
 8002b76:	87da      	strh	r2, [r3, #62]	; 0x3e
        /* Next Data is a reception (Rx). Tx not allowed */
        txallowed = 0U;
 8002b78:	2300      	movs	r3, #0
 8002b7a:	627b      	str	r3, [r7, #36]	; 0x24
        }
#endif /* USE_SPI_CRC */
      }

      /* Check RXNE flag */
      if ((__HAL_SPI_GET_FLAG(hspi, SPI_FLAG_RXNE)) && (hspi->RxXferCount > 0U))
 8002b7c:	68fb      	ldr	r3, [r7, #12]
 8002b7e:	681b      	ldr	r3, [r3, #0]
 8002b80:	689b      	ldr	r3, [r3, #8]
 8002b82:	2201      	movs	r2, #1
 8002b84:	4013      	ands	r3, r2
 8002b86:	2b01      	cmp	r3, #1
 8002b88:	d11c      	bne.n	8002bc4 <HAL_SPI_TransmitReceive+0x21c>
 8002b8a:	68fb      	ldr	r3, [r7, #12]
 8002b8c:	2246      	movs	r2, #70	; 0x46
 8002b8e:	5a9b      	ldrh	r3, [r3, r2]
 8002b90:	b29b      	uxth	r3, r3
 8002b92:	2b00      	cmp	r3, #0
 8002b94:	d016      	beq.n	8002bc4 <HAL_SPI_TransmitReceive+0x21c>
      {
        *((uint16_t *)hspi->pRxBuffPtr) = (uint16_t)hspi->Instance->DR;
 8002b96:	68fb      	ldr	r3, [r7, #12]
 8002b98:	681b      	ldr	r3, [r3, #0]
 8002b9a:	68da      	ldr	r2, [r3, #12]
 8002b9c:	68fb      	ldr	r3, [r7, #12]
 8002b9e:	6c1b      	ldr	r3, [r3, #64]	; 0x40
 8002ba0:	b292      	uxth	r2, r2
 8002ba2:	801a      	strh	r2, [r3, #0]
        hspi->pRxBuffPtr += sizeof(uint16_t);
 8002ba4:	68fb      	ldr	r3, [r7, #12]
 8002ba6:	6c1b      	ldr	r3, [r3, #64]	; 0x40
 8002ba8:	1c9a      	adds	r2, r3, #2
 8002baa:	68fb      	ldr	r3, [r7, #12]
 8002bac:	641a      	str	r2, [r3, #64]	; 0x40
        hspi->RxXferCount--;
 8002bae:	68fb      	ldr	r3, [r7, #12]
 8002bb0:	2246      	movs	r2, #70	; 0x46
 8002bb2:	5a9b      	ldrh	r3, [r3, r2]
 8002bb4:	b29b      	uxth	r3, r3
 8002bb6:	3b01      	subs	r3, #1
 8002bb8:	b299      	uxth	r1, r3
 8002bba:	68fb      	ldr	r3, [r7, #12]
 8002bbc:	2246      	movs	r2, #70	; 0x46
 8002bbe:	5299      	strh	r1, [r3, r2]
        /* Next Data is a Transmission (Tx). Tx is allowed */
        txallowed = 1U;
 8002bc0:	2301      	movs	r3, #1
 8002bc2:	627b      	str	r3, [r7, #36]	; 0x24
      }
      if (((HAL_GetTick() - tickstart) >=  Timeout) && (Timeout != HAL_MAX_DELAY))
 8002bc4:	f7fe fdc2 	bl	800174c <HAL_GetTick>
 8002bc8:	0002      	movs	r2, r0
 8002bca:	69fb      	ldr	r3, [r7, #28]
 8002bcc:	1ad3      	subs	r3, r2, r3
 8002bce:	6b3a      	ldr	r2, [r7, #48]	; 0x30
 8002bd0:	429a      	cmp	r2, r3
 8002bd2:	d807      	bhi.n	8002be4 <HAL_SPI_TransmitReceive+0x23c>
 8002bd4:	6b3b      	ldr	r3, [r7, #48]	; 0x30
 8002bd6:	3301      	adds	r3, #1
 8002bd8:	d004      	beq.n	8002be4 <HAL_SPI_TransmitReceive+0x23c>
      {
        errorcode = HAL_TIMEOUT;
 8002bda:	2323      	movs	r3, #35	; 0x23
 8002bdc:	18fb      	adds	r3, r7, r3
 8002bde:	2203      	movs	r2, #3
 8002be0:	701a      	strb	r2, [r3, #0]
        goto error;
 8002be2:	e0a2      	b.n	8002d2a <HAL_SPI_TransmitReceive+0x382>
    while ((hspi->TxXferCount > 0U) || (hspi->RxXferCount > 0U))
 8002be4:	68fb      	ldr	r3, [r7, #12]
 8002be6:	8fdb      	ldrh	r3, [r3, #62]	; 0x3e
 8002be8:	b29b      	uxth	r3, r3
 8002bea:	2b00      	cmp	r3, #0
 8002bec:	d1a3      	bne.n	8002b36 <HAL_SPI_TransmitReceive+0x18e>
 8002bee:	68fb      	ldr	r3, [r7, #12]
 8002bf0:	2246      	movs	r2, #70	; 0x46
 8002bf2:	5a9b      	ldrh	r3, [r3, r2]
 8002bf4:	b29b      	uxth	r3, r3
 8002bf6:	2b00      	cmp	r3, #0
 8002bf8:	d19d      	bne.n	8002b36 <HAL_SPI_TransmitReceive+0x18e>
 8002bfa:	e085      	b.n	8002d08 <HAL_SPI_TransmitReceive+0x360>
    }
  }
  /* Transmit and Receive data in 8 Bit mode */
  else
  {
    if ((hspi->Init.Mode == SPI_MODE_SLAVE) || (initial_TxXferCount == 0x01U))
 8002bfc:	68fb      	ldr	r3, [r7, #12]
 8002bfe:	685b      	ldr	r3, [r3, #4]
 8002c00:	2b00      	cmp	r3, #0
 8002c02:	d005      	beq.n	8002c10 <HAL_SPI_TransmitReceive+0x268>
 8002c04:	2312      	movs	r3, #18
 8002c06:	18fb      	adds	r3, r7, r3
 8002c08:	881b      	ldrh	r3, [r3, #0]
 8002c0a:	2b01      	cmp	r3, #1
 8002c0c:	d000      	beq.n	8002c10 <HAL_SPI_TransmitReceive+0x268>
 8002c0e:	e070      	b.n	8002cf2 <HAL_SPI_TransmitReceive+0x34a>
    {
      *((__IO uint8_t *)&hspi->Instance->DR) = (*hspi->pTxBuffPtr);
 8002c10:	68fb      	ldr	r3, [r7, #12]
 8002c12:	6b9a      	ldr	r2, [r3, #56]	; 0x38
 8002c14:	68fb      	ldr	r3, [r7, #12]
 8002c16:	681b      	ldr	r3, [r3, #0]
 8002c18:	330c      	adds	r3, #12
 8002c1a:	7812      	ldrb	r2, [r2, #0]
 8002c1c:	701a      	strb	r2, [r3, #0]
      hspi->pTxBuffPtr += sizeof(uint8_t);
 8002c1e:	68fb      	ldr	r3, [r7, #12]
 8002c20:	6b9b      	ldr	r3, [r3, #56]	; 0x38
 8002c22:	1c5a      	adds	r2, r3, #1
 8002c24:	68fb      	ldr	r3, [r7, #12]
 8002c26:	639a      	str	r2, [r3, #56]	; 0x38
      hspi->TxXferCount--;
 8002c28:	68fb      	ldr	r3, [r7, #12]
 8002c2a:	8fdb      	ldrh	r3, [r3, #62]	; 0x3e
 8002c2c:	b29b      	uxth	r3, r3
 8002c2e:	3b01      	subs	r3, #1
 8002c30:	b29a      	uxth	r2, r3
 8002c32:	68fb      	ldr	r3, [r7, #12]
 8002c34:	87da      	strh	r2, [r3, #62]	; 0x3e
    }
    while ((hspi->TxXferCount > 0U) || (hspi->RxXferCount > 0U))
 8002c36:	e05c      	b.n	8002cf2 <HAL_SPI_TransmitReceive+0x34a>
    {
      /* Check TXE flag */
      if ((__HAL_SPI_GET_FLAG(hspi, SPI_FLAG_TXE)) && (hspi->TxXferCount > 0U) && (txallowed == 1U))
 8002c38:	68fb      	ldr	r3, [r7, #12]
 8002c3a:	681b      	ldr	r3, [r3, #0]
 8002c3c:	689b      	ldr	r3, [r3, #8]
 8002c3e:	2202      	movs	r2, #2
 8002c40:	4013      	ands	r3, r2
 8002c42:	2b02      	cmp	r3, #2
 8002c44:	d11c      	bne.n	8002c80 <HAL_SPI_TransmitReceive+0x2d8>
 8002c46:	68fb      	ldr	r3, [r7, #12]
 8002c48:	8fdb      	ldrh	r3, [r3, #62]	; 0x3e
 8002c4a:	b29b      	uxth	r3, r3
 8002c4c:	2b00      	cmp	r3, #0
 8002c4e:	d017      	beq.n	8002c80 <HAL_SPI_TransmitReceive+0x2d8>
 8002c50:	6a7b      	ldr	r3, [r7, #36]	; 0x24
 8002c52:	2b01      	cmp	r3, #1
 8002c54:	d114      	bne.n	8002c80 <HAL_SPI_TransmitReceive+0x2d8>
      {
        *(__IO uint8_t *)&hspi->Instance->DR = (*hspi->pTxBuffPtr);
 8002c56:	68fb      	ldr	r3, [r7, #12]
 8002c58:	6b9a      	ldr	r2, [r3, #56]	; 0x38
 8002c5a:	68fb      	ldr	r3, [r7, #12]
 8002c5c:	681b      	ldr	r3, [r3, #0]
 8002c5e:	330c      	adds	r3, #12
 8002c60:	7812      	ldrb	r2, [r2, #0]
 8002c62:	701a      	strb	r2, [r3, #0]
        hspi->pTxBuffPtr++;
 8002c64:	68fb      	ldr	r3, [r7, #12]
 8002c66:	6b9b      	ldr	r3, [r3, #56]	; 0x38
 8002c68:	1c5a      	adds	r2, r3, #1
 8002c6a:	68fb      	ldr	r3, [r7, #12]
 8002c6c:	639a      	str	r2, [r3, #56]	; 0x38
        hspi->TxXferCount--;
 8002c6e:	68fb      	ldr	r3, [r7, #12]
 8002c70:	8fdb      	ldrh	r3, [r3, #62]	; 0x3e
 8002c72:	b29b      	uxth	r3, r3
 8002c74:	3b01      	subs	r3, #1
 8002c76:	b29a      	uxth	r2, r3
 8002c78:	68fb      	ldr	r3, [r7, #12]
 8002c7a:	87da      	strh	r2, [r3, #62]	; 0x3e
        /* Next Data is a reception (Rx). Tx not allowed */
        txallowed = 0U;
 8002c7c:	2300      	movs	r3, #0
 8002c7e:	627b      	str	r3, [r7, #36]	; 0x24
        }
#endif /* USE_SPI_CRC */
      }

      /* Wait until RXNE flag is reset */
      if ((__HAL_SPI_GET_FLAG(hspi, SPI_FLAG_RXNE)) && (hspi->RxXferCount > 0U))
 8002c80:	68fb      	ldr	r3, [r7, #12]
 8002c82:	681b      	ldr	r3, [r3, #0]
 8002c84:	689b      	ldr	r3, [r3, #8]
 8002c86:	2201      	movs	r2, #1
 8002c88:	4013      	ands	r3, r2
 8002c8a:	2b01      	cmp	r3, #1
 8002c8c:	d11e      	bne.n	8002ccc <HAL_SPI_TransmitReceive+0x324>
 8002c8e:	68fb      	ldr	r3, [r7, #12]
 8002c90:	2246      	movs	r2, #70	; 0x46
 8002c92:	5a9b      	ldrh	r3, [r3, r2]
 8002c94:	b29b      	uxth	r3, r3
 8002c96:	2b00      	cmp	r3, #0
 8002c98:	d018      	beq.n	8002ccc <HAL_SPI_TransmitReceive+0x324>
      {
        (*(uint8_t *)hspi->pRxBuffPtr) = *(__IO uint8_t *)&hspi->Instance->DR;
 8002c9a:	68fb      	ldr	r3, [r7, #12]
 8002c9c:	681b      	ldr	r3, [r3, #0]
 8002c9e:	330c      	adds	r3, #12
 8002ca0:	001a      	movs	r2, r3
 8002ca2:	68fb      	ldr	r3, [r7, #12]
 8002ca4:	6c1b      	ldr	r3, [r3, #64]	; 0x40
 8002ca6:	7812      	ldrb	r2, [r2, #0]
 8002ca8:	b2d2      	uxtb	r2, r2
 8002caa:	701a      	strb	r2, [r3, #0]
        hspi->pRxBuffPtr++;
 8002cac:	68fb      	ldr	r3, [r7, #12]
 8002cae:	6c1b      	ldr	r3, [r3, #64]	; 0x40
 8002cb0:	1c5a      	adds	r2, r3, #1
 8002cb2:	68fb      	ldr	r3, [r7, #12]
 8002cb4:	641a      	str	r2, [r3, #64]	; 0x40
        hspi->RxXferCount--;
 8002cb6:	68fb      	ldr	r3, [r7, #12]
 8002cb8:	2246      	movs	r2, #70	; 0x46
 8002cba:	5a9b      	ldrh	r3, [r3, r2]
 8002cbc:	b29b      	uxth	r3, r3
 8002cbe:	3b01      	subs	r3, #1
 8002cc0:	b299      	uxth	r1, r3
 8002cc2:	68fb      	ldr	r3, [r7, #12]
 8002cc4:	2246      	movs	r2, #70	; 0x46
 8002cc6:	5299      	strh	r1, [r3, r2]
        /* Next Data is a Transmission (Tx). Tx is allowed */
        txallowed = 1U;
 8002cc8:	2301      	movs	r3, #1
 8002cca:	627b      	str	r3, [r7, #36]	; 0x24
      }
      if ((((HAL_GetTick() - tickstart) >=  Timeout) && ((Timeout != HAL_MAX_DELAY))) || (Timeout == 0U))
 8002ccc:	f7fe fd3e 	bl	800174c <HAL_GetTick>
 8002cd0:	0002      	movs	r2, r0
 8002cd2:	69fb      	ldr	r3, [r7, #28]
 8002cd4:	1ad3      	subs	r3, r2, r3
 8002cd6:	6b3a      	ldr	r2, [r7, #48]	; 0x30
 8002cd8:	429a      	cmp	r2, r3
 8002cda:	d802      	bhi.n	8002ce2 <HAL_SPI_TransmitReceive+0x33a>
 8002cdc:	6b3b      	ldr	r3, [r7, #48]	; 0x30
 8002cde:	3301      	adds	r3, #1
 8002ce0:	d102      	bne.n	8002ce8 <HAL_SPI_TransmitReceive+0x340>
 8002ce2:	6b3b      	ldr	r3, [r7, #48]	; 0x30
 8002ce4:	2b00      	cmp	r3, #0
 8002ce6:	d104      	bne.n	8002cf2 <HAL_SPI_TransmitReceive+0x34a>
      {
        errorcode = HAL_TIMEOUT;
 8002ce8:	2323      	movs	r3, #35	; 0x23
 8002cea:	18fb      	adds	r3, r7, r3
 8002cec:	2203      	movs	r2, #3
 8002cee:	701a      	strb	r2, [r3, #0]
        goto error;
 8002cf0:	e01b      	b.n	8002d2a <HAL_SPI_TransmitReceive+0x382>
    while ((hspi->TxXferCount > 0U) || (hspi->RxXferCount > 0U))
 8002cf2:	68fb      	ldr	r3, [r7, #12]
 8002cf4:	8fdb      	ldrh	r3, [r3, #62]	; 0x3e
 8002cf6:	b29b      	uxth	r3, r3
 8002cf8:	2b00      	cmp	r3, #0
 8002cfa:	d19d      	bne.n	8002c38 <HAL_SPI_TransmitReceive+0x290>
 8002cfc:	68fb      	ldr	r3, [r7, #12]
 8002cfe:	2246      	movs	r2, #70	; 0x46
 8002d00:	5a9b      	ldrh	r3, [r3, r2]
 8002d02:	b29b      	uxth	r3, r3
 8002d04:	2b00      	cmp	r3, #0
 8002d06:	d197      	bne.n	8002c38 <HAL_SPI_TransmitReceive+0x290>
    errorcode = HAL_ERROR;
  }
#endif /* USE_SPI_CRC */

  /* Check the end of the transaction */
  if (SPI_EndRxTxTransaction(hspi, Timeout, tickstart) != HAL_OK)
 8002d08:	69fa      	ldr	r2, [r7, #28]
 8002d0a:	6b39      	ldr	r1, [r7, #48]	; 0x30
 8002d0c:	68fb      	ldr	r3, [r7, #12]
 8002d0e:	0018      	movs	r0, r3
 8002d10:	f000 f94c 	bl	8002fac <SPI_EndRxTxTransaction>
 8002d14:	1e03      	subs	r3, r0, #0
 8002d16:	d007      	beq.n	8002d28 <HAL_SPI_TransmitReceive+0x380>
  {
    errorcode = HAL_ERROR;
 8002d18:	2323      	movs	r3, #35	; 0x23
 8002d1a:	18fb      	adds	r3, r7, r3
 8002d1c:	2201      	movs	r2, #1
 8002d1e:	701a      	strb	r2, [r3, #0]
    hspi->ErrorCode = HAL_SPI_ERROR_FLAG;
 8002d20:	68fb      	ldr	r3, [r7, #12]
 8002d22:	2220      	movs	r2, #32
 8002d24:	661a      	str	r2, [r3, #96]	; 0x60
 8002d26:	e000      	b.n	8002d2a <HAL_SPI_TransmitReceive+0x382>
  }

error :
 8002d28:	46c0      	nop			; (mov r8, r8)
  hspi->State = HAL_SPI_STATE_READY;
 8002d2a:	68fb      	ldr	r3, [r7, #12]
 8002d2c:	225d      	movs	r2, #93	; 0x5d
 8002d2e:	2101      	movs	r1, #1
 8002d30:	5499      	strb	r1, [r3, r2]
  __HAL_UNLOCK(hspi);
 8002d32:	68fb      	ldr	r3, [r7, #12]
 8002d34:	225c      	movs	r2, #92	; 0x5c
 8002d36:	2100      	movs	r1, #0
 8002d38:	5499      	strb	r1, [r3, r2]
  return errorcode;
 8002d3a:	2323      	movs	r3, #35	; 0x23
 8002d3c:	18fb      	adds	r3, r7, r3
 8002d3e:	781b      	ldrb	r3, [r3, #0]
}
 8002d40:	0018      	movs	r0, r3
 8002d42:	46bd      	mov	sp, r7
 8002d44:	b00a      	add	sp, #40	; 0x28
 8002d46:	bd80      	pop	{r7, pc}
 8002d48:	ffffefff 	.word	0xffffefff

08002d4c <SPI_WaitFlagStateUntilTimeout>:
  * @param  Tickstart tick start value
  * @retval HAL status
  */
static HAL_StatusTypeDef SPI_WaitFlagStateUntilTimeout(SPI_HandleTypeDef *hspi, uint32_t Flag, FlagStatus State,
                                                       uint32_t Timeout, uint32_t Tickstart)
{
 8002d4c:	b580      	push	{r7, lr}
 8002d4e:	b088      	sub	sp, #32
 8002d50:	af00      	add	r7, sp, #0
 8002d52:	60f8      	str	r0, [r7, #12]
 8002d54:	60b9      	str	r1, [r7, #8]
 8002d56:	603b      	str	r3, [r7, #0]
 8002d58:	1dfb      	adds	r3, r7, #7
 8002d5a:	701a      	strb	r2, [r3, #0]
  __IO uint32_t count;
  uint32_t tmp_timeout;
  uint32_t tmp_tickstart;

  /* Adjust Timeout value  in case of end of transfer */
  tmp_timeout   = Timeout - (HAL_GetTick() - Tickstart);
 8002d5c:	f7fe fcf6 	bl	800174c <HAL_GetTick>
 8002d60:	0002      	movs	r2, r0
 8002d62:	6abb      	ldr	r3, [r7, #40]	; 0x28
 8002d64:	1a9b      	subs	r3, r3, r2
 8002d66:	683a      	ldr	r2, [r7, #0]
 8002d68:	18d3      	adds	r3, r2, r3
 8002d6a:	61fb      	str	r3, [r7, #28]
  tmp_tickstart = HAL_GetTick();
 8002d6c:	f7fe fcee 	bl	800174c <HAL_GetTick>
 8002d70:	0003      	movs	r3, r0
 8002d72:	61bb      	str	r3, [r7, #24]

  /* Calculate Timeout based on a software loop to avoid blocking issue if Systick is disabled */
  count = tmp_timeout * ((SystemCoreClock * 32U) >> 20U);
 8002d74:	4b3a      	ldr	r3, [pc, #232]	; (8002e60 <SPI_WaitFlagStateUntilTimeout+0x114>)
 8002d76:	681b      	ldr	r3, [r3, #0]
 8002d78:	015b      	lsls	r3, r3, #5
 8002d7a:	0d1b      	lsrs	r3, r3, #20
 8002d7c:	69fa      	ldr	r2, [r7, #28]
 8002d7e:	4353      	muls	r3, r2
 8002d80:	617b      	str	r3, [r7, #20]

  while ((__HAL_SPI_GET_FLAG(hspi, Flag) ? SET : RESET) != State)
 8002d82:	e058      	b.n	8002e36 <SPI_WaitFlagStateUntilTimeout+0xea>
  {
    if (Timeout != HAL_MAX_DELAY)
 8002d84:	683b      	ldr	r3, [r7, #0]
 8002d86:	3301      	adds	r3, #1
 8002d88:	d055      	beq.n	8002e36 <SPI_WaitFlagStateUntilTimeout+0xea>
    {
      if (((HAL_GetTick() - tmp_tickstart) >= tmp_timeout) || (tmp_timeout == 0U))
 8002d8a:	f7fe fcdf 	bl	800174c <HAL_GetTick>
 8002d8e:	0002      	movs	r2, r0
 8002d90:	69bb      	ldr	r3, [r7, #24]
 8002d92:	1ad3      	subs	r3, r2, r3
 8002d94:	69fa      	ldr	r2, [r7, #28]
 8002d96:	429a      	cmp	r2, r3
 8002d98:	d902      	bls.n	8002da0 <SPI_WaitFlagStateUntilTimeout+0x54>
 8002d9a:	69fb      	ldr	r3, [r7, #28]
 8002d9c:	2b00      	cmp	r3, #0
 8002d9e:	d142      	bne.n	8002e26 <SPI_WaitFlagStateUntilTimeout+0xda>
        /* Disable the SPI and reset the CRC: the CRC value should be cleared
           on both master and slave sides in order to resynchronize the master
           and slave for their respective CRC calculation */

        /* Disable TXE, RXNE and ERR interrupts for the interrupt process */
        __HAL_SPI_DISABLE_IT(hspi, (SPI_IT_TXE | SPI_IT_RXNE | SPI_IT_ERR));
 8002da0:	68fb      	ldr	r3, [r7, #12]
 8002da2:	681b      	ldr	r3, [r3, #0]
 8002da4:	685a      	ldr	r2, [r3, #4]
 8002da6:	68fb      	ldr	r3, [r7, #12]
 8002da8:	681b      	ldr	r3, [r3, #0]
 8002daa:	21e0      	movs	r1, #224	; 0xe0
 8002dac:	438a      	bics	r2, r1
 8002dae:	605a      	str	r2, [r3, #4]

        if ((hspi->Init.Mode == SPI_MODE_MASTER) && ((hspi->Init.Direction == SPI_DIRECTION_1LINE)
 8002db0:	68fb      	ldr	r3, [r7, #12]
 8002db2:	685a      	ldr	r2, [r3, #4]
 8002db4:	2382      	movs	r3, #130	; 0x82
 8002db6:	005b      	lsls	r3, r3, #1
 8002db8:	429a      	cmp	r2, r3
 8002dba:	d113      	bne.n	8002de4 <SPI_WaitFlagStateUntilTimeout+0x98>
 8002dbc:	68fb      	ldr	r3, [r7, #12]
 8002dbe:	689a      	ldr	r2, [r3, #8]
 8002dc0:	2380      	movs	r3, #128	; 0x80
 8002dc2:	021b      	lsls	r3, r3, #8
 8002dc4:	429a      	cmp	r2, r3
 8002dc6:	d005      	beq.n	8002dd4 <SPI_WaitFlagStateUntilTimeout+0x88>
                                                     || (hspi->Init.Direction == SPI_DIRECTION_2LINES_RXONLY)))
 8002dc8:	68fb      	ldr	r3, [r7, #12]
 8002dca:	689a      	ldr	r2, [r3, #8]
 8002dcc:	2380      	movs	r3, #128	; 0x80
 8002dce:	00db      	lsls	r3, r3, #3
 8002dd0:	429a      	cmp	r2, r3
 8002dd2:	d107      	bne.n	8002de4 <SPI_WaitFlagStateUntilTimeout+0x98>
        {
          /* Disable SPI peripheral */
          __HAL_SPI_DISABLE(hspi);
 8002dd4:	68fb      	ldr	r3, [r7, #12]
 8002dd6:	681b      	ldr	r3, [r3, #0]
 8002dd8:	681a      	ldr	r2, [r3, #0]
 8002dda:	68fb      	ldr	r3, [r7, #12]
 8002ddc:	681b      	ldr	r3, [r3, #0]
 8002dde:	2140      	movs	r1, #64	; 0x40
 8002de0:	438a      	bics	r2, r1
 8002de2:	601a      	str	r2, [r3, #0]
        }

        /* Reset CRC Calculation */
        if (hspi->Init.CRCCalculation == SPI_CRCCALCULATION_ENABLE)
 8002de4:	68fb      	ldr	r3, [r7, #12]
 8002de6:	6a9a      	ldr	r2, [r3, #40]	; 0x28
 8002de8:	2380      	movs	r3, #128	; 0x80
 8002dea:	019b      	lsls	r3, r3, #6
 8002dec:	429a      	cmp	r2, r3
 8002dee:	d110      	bne.n	8002e12 <SPI_WaitFlagStateUntilTimeout+0xc6>
        {
          SPI_RESET_CRC(hspi);
 8002df0:	68fb      	ldr	r3, [r7, #12]
 8002df2:	681b      	ldr	r3, [r3, #0]
 8002df4:	681a      	ldr	r2, [r3, #0]
 8002df6:	68fb      	ldr	r3, [r7, #12]
 8002df8:	681b      	ldr	r3, [r3, #0]
 8002dfa:	491a      	ldr	r1, [pc, #104]	; (8002e64 <SPI_WaitFlagStateUntilTimeout+0x118>)
 8002dfc:	400a      	ands	r2, r1
 8002dfe:	601a      	str	r2, [r3, #0]
 8002e00:	68fb      	ldr	r3, [r7, #12]
 8002e02:	681b      	ldr	r3, [r3, #0]
 8002e04:	681a      	ldr	r2, [r3, #0]
 8002e06:	68fb      	ldr	r3, [r7, #12]
 8002e08:	681b      	ldr	r3, [r3, #0]
 8002e0a:	2180      	movs	r1, #128	; 0x80
 8002e0c:	0189      	lsls	r1, r1, #6
 8002e0e:	430a      	orrs	r2, r1
 8002e10:	601a      	str	r2, [r3, #0]
        }

        hspi->State = HAL_SPI_STATE_READY;
 8002e12:	68fb      	ldr	r3, [r7, #12]
 8002e14:	225d      	movs	r2, #93	; 0x5d
 8002e16:	2101      	movs	r1, #1
 8002e18:	5499      	strb	r1, [r3, r2]

        /* Process Unlocked */
        __HAL_UNLOCK(hspi);
 8002e1a:	68fb      	ldr	r3, [r7, #12]
 8002e1c:	225c      	movs	r2, #92	; 0x5c
 8002e1e:	2100      	movs	r1, #0
 8002e20:	5499      	strb	r1, [r3, r2]

        return HAL_TIMEOUT;
 8002e22:	2303      	movs	r3, #3
 8002e24:	e017      	b.n	8002e56 <SPI_WaitFlagStateUntilTimeout+0x10a>
      }
      /* If Systick is disabled or not incremented, deactivate timeout to go in disable loop procedure */
      if(count == 0U)
 8002e26:	697b      	ldr	r3, [r7, #20]
 8002e28:	2b00      	cmp	r3, #0
 8002e2a:	d101      	bne.n	8002e30 <SPI_WaitFlagStateUntilTimeout+0xe4>
      {
        tmp_timeout = 0U;
 8002e2c:	2300      	movs	r3, #0
 8002e2e:	61fb      	str	r3, [r7, #28]
      }
      count--;
 8002e30:	697b      	ldr	r3, [r7, #20]
 8002e32:	3b01      	subs	r3, #1
 8002e34:	617b      	str	r3, [r7, #20]
  while ((__HAL_SPI_GET_FLAG(hspi, Flag) ? SET : RESET) != State)
 8002e36:	68fb      	ldr	r3, [r7, #12]
 8002e38:	681b      	ldr	r3, [r3, #0]
 8002e3a:	689b      	ldr	r3, [r3, #8]
 8002e3c:	68ba      	ldr	r2, [r7, #8]
 8002e3e:	4013      	ands	r3, r2
 8002e40:	68ba      	ldr	r2, [r7, #8]
 8002e42:	1ad3      	subs	r3, r2, r3
 8002e44:	425a      	negs	r2, r3
 8002e46:	4153      	adcs	r3, r2
 8002e48:	b2db      	uxtb	r3, r3
 8002e4a:	001a      	movs	r2, r3
 8002e4c:	1dfb      	adds	r3, r7, #7
 8002e4e:	781b      	ldrb	r3, [r3, #0]
 8002e50:	429a      	cmp	r2, r3
 8002e52:	d197      	bne.n	8002d84 <SPI_WaitFlagStateUntilTimeout+0x38>
    }
  }

  return HAL_OK;
 8002e54:	2300      	movs	r3, #0
}
 8002e56:	0018      	movs	r0, r3
 8002e58:	46bd      	mov	sp, r7
 8002e5a:	b008      	add	sp, #32
 8002e5c:	bd80      	pop	{r7, pc}
 8002e5e:	46c0      	nop			; (mov r8, r8)
 8002e60:	20000000 	.word	0x20000000
 8002e64:	ffffdfff 	.word	0xffffdfff

08002e68 <SPI_WaitFifoStateUntilTimeout>:
  * @param  Tickstart tick start value
  * @retval HAL status
  */
static HAL_StatusTypeDef SPI_WaitFifoStateUntilTimeout(SPI_HandleTypeDef *hspi, uint32_t Fifo, uint32_t State,
                                                       uint32_t Timeout, uint32_t Tickstart)
{
 8002e68:	b580      	push	{r7, lr}
 8002e6a:	b08a      	sub	sp, #40	; 0x28
 8002e6c:	af00      	add	r7, sp, #0
 8002e6e:	60f8      	str	r0, [r7, #12]
 8002e70:	60b9      	str	r1, [r7, #8]
 8002e72:	607a      	str	r2, [r7, #4]
 8002e74:	603b      	str	r3, [r7, #0]
  __IO uint32_t count;
  uint32_t tmp_timeout;
  uint32_t tmp_tickstart;
  __IO uint8_t  * ptmpreg8;
  __IO uint8_t  tmpreg8 = 0;
 8002e76:	2317      	movs	r3, #23
 8002e78:	18fb      	adds	r3, r7, r3
 8002e7a:	2200      	movs	r2, #0
 8002e7c:	701a      	strb	r2, [r3, #0]

  /* Adjust Timeout value  in case of end of transfer */
  tmp_timeout = Timeout - (HAL_GetTick() - Tickstart);
 8002e7e:	f7fe fc65 	bl	800174c <HAL_GetTick>
 8002e82:	0002      	movs	r2, r0
 8002e84:	6b3b      	ldr	r3, [r7, #48]	; 0x30
 8002e86:	1a9b      	subs	r3, r3, r2
 8002e88:	683a      	ldr	r2, [r7, #0]
 8002e8a:	18d3      	adds	r3, r2, r3
 8002e8c:	627b      	str	r3, [r7, #36]	; 0x24
  tmp_tickstart = HAL_GetTick();
 8002e8e:	f7fe fc5d 	bl	800174c <HAL_GetTick>
 8002e92:	0003      	movs	r3, r0
 8002e94:	623b      	str	r3, [r7, #32]

  /* Initialize the 8bit temporary pointer */
  ptmpreg8 = (__IO uint8_t *)&hspi->Instance->DR;
 8002e96:	68fb      	ldr	r3, [r7, #12]
 8002e98:	681b      	ldr	r3, [r3, #0]
 8002e9a:	330c      	adds	r3, #12
 8002e9c:	61fb      	str	r3, [r7, #28]

  /* Calculate Timeout based on a software loop to avoid blocking issue if Systick is disabled */
  count = tmp_timeout * ((SystemCoreClock * 35U) >> 20U);
 8002e9e:	4b41      	ldr	r3, [pc, #260]	; (8002fa4 <SPI_WaitFifoStateUntilTimeout+0x13c>)
 8002ea0:	681a      	ldr	r2, [r3, #0]
 8002ea2:	0013      	movs	r3, r2
 8002ea4:	009b      	lsls	r3, r3, #2
 8002ea6:	189b      	adds	r3, r3, r2
 8002ea8:	00da      	lsls	r2, r3, #3
 8002eaa:	1ad3      	subs	r3, r2, r3
 8002eac:	0d1b      	lsrs	r3, r3, #20
 8002eae:	6a7a      	ldr	r2, [r7, #36]	; 0x24
 8002eb0:	4353      	muls	r3, r2
 8002eb2:	61bb      	str	r3, [r7, #24]

  while ((hspi->Instance->SR & Fifo) != State)
 8002eb4:	e068      	b.n	8002f88 <SPI_WaitFifoStateUntilTimeout+0x120>
  {
    if ((Fifo == SPI_SR_FRLVL) && (State == SPI_FRLVL_EMPTY))
 8002eb6:	68ba      	ldr	r2, [r7, #8]
 8002eb8:	23c0      	movs	r3, #192	; 0xc0
 8002eba:	00db      	lsls	r3, r3, #3
 8002ebc:	429a      	cmp	r2, r3
 8002ebe:	d10a      	bne.n	8002ed6 <SPI_WaitFifoStateUntilTimeout+0x6e>
 8002ec0:	687b      	ldr	r3, [r7, #4]
 8002ec2:	2b00      	cmp	r3, #0
 8002ec4:	d107      	bne.n	8002ed6 <SPI_WaitFifoStateUntilTimeout+0x6e>
    {
      /* Flush Data Register by a blank read */
      tmpreg8 = *ptmpreg8;
 8002ec6:	69fb      	ldr	r3, [r7, #28]
 8002ec8:	781b      	ldrb	r3, [r3, #0]
 8002eca:	b2da      	uxtb	r2, r3
 8002ecc:	2117      	movs	r1, #23
 8002ece:	187b      	adds	r3, r7, r1
 8002ed0:	701a      	strb	r2, [r3, #0]
      /* To avoid GCC warning */
      UNUSED(tmpreg8);
 8002ed2:	187b      	adds	r3, r7, r1
 8002ed4:	781b      	ldrb	r3, [r3, #0]
    }

    if (Timeout != HAL_MAX_DELAY)
 8002ed6:	683b      	ldr	r3, [r7, #0]
 8002ed8:	3301      	adds	r3, #1
 8002eda:	d055      	beq.n	8002f88 <SPI_WaitFifoStateUntilTimeout+0x120>
    {
      if (((HAL_GetTick() - tmp_tickstart) >= tmp_timeout) || (tmp_timeout == 0U))
 8002edc:	f7fe fc36 	bl	800174c <HAL_GetTick>
 8002ee0:	0002      	movs	r2, r0
 8002ee2:	6a3b      	ldr	r3, [r7, #32]
 8002ee4:	1ad3      	subs	r3, r2, r3
 8002ee6:	6a7a      	ldr	r2, [r7, #36]	; 0x24
 8002ee8:	429a      	cmp	r2, r3
 8002eea:	d902      	bls.n	8002ef2 <SPI_WaitFifoStateUntilTimeout+0x8a>
 8002eec:	6a7b      	ldr	r3, [r7, #36]	; 0x24
 8002eee:	2b00      	cmp	r3, #0
 8002ef0:	d142      	bne.n	8002f78 <SPI_WaitFifoStateUntilTimeout+0x110>
        /* Disable the SPI and reset the CRC: the CRC value should be cleared
           on both master and slave sides in order to resynchronize the master
           and slave for their respective CRC calculation */

        /* Disable TXE, RXNE and ERR interrupts for the interrupt process */
        __HAL_SPI_DISABLE_IT(hspi, (SPI_IT_TXE | SPI_IT_RXNE | SPI_IT_ERR));
 8002ef2:	68fb      	ldr	r3, [r7, #12]
 8002ef4:	681b      	ldr	r3, [r3, #0]
 8002ef6:	685a      	ldr	r2, [r3, #4]
 8002ef8:	68fb      	ldr	r3, [r7, #12]
 8002efa:	681b      	ldr	r3, [r3, #0]
 8002efc:	21e0      	movs	r1, #224	; 0xe0
 8002efe:	438a      	bics	r2, r1
 8002f00:	605a      	str	r2, [r3, #4]

        if ((hspi->Init.Mode == SPI_MODE_MASTER) && ((hspi->Init.Direction == SPI_DIRECTION_1LINE)
 8002f02:	68fb      	ldr	r3, [r7, #12]
 8002f04:	685a      	ldr	r2, [r3, #4]
 8002f06:	2382      	movs	r3, #130	; 0x82
 8002f08:	005b      	lsls	r3, r3, #1
 8002f0a:	429a      	cmp	r2, r3
 8002f0c:	d113      	bne.n	8002f36 <SPI_WaitFifoStateUntilTimeout+0xce>
 8002f0e:	68fb      	ldr	r3, [r7, #12]
 8002f10:	689a      	ldr	r2, [r3, #8]
 8002f12:	2380      	movs	r3, #128	; 0x80
 8002f14:	021b      	lsls	r3, r3, #8
 8002f16:	429a      	cmp	r2, r3
 8002f18:	d005      	beq.n	8002f26 <SPI_WaitFifoStateUntilTimeout+0xbe>
                                                     || (hspi->Init.Direction == SPI_DIRECTION_2LINES_RXONLY)))
 8002f1a:	68fb      	ldr	r3, [r7, #12]
 8002f1c:	689a      	ldr	r2, [r3, #8]
 8002f1e:	2380      	movs	r3, #128	; 0x80
 8002f20:	00db      	lsls	r3, r3, #3
 8002f22:	429a      	cmp	r2, r3
 8002f24:	d107      	bne.n	8002f36 <SPI_WaitFifoStateUntilTimeout+0xce>
        {
          /* Disable SPI peripheral */
          __HAL_SPI_DISABLE(hspi);
 8002f26:	68fb      	ldr	r3, [r7, #12]
 8002f28:	681b      	ldr	r3, [r3, #0]
 8002f2a:	681a      	ldr	r2, [r3, #0]
 8002f2c:	68fb      	ldr	r3, [r7, #12]
 8002f2e:	681b      	ldr	r3, [r3, #0]
 8002f30:	2140      	movs	r1, #64	; 0x40
 8002f32:	438a      	bics	r2, r1
 8002f34:	601a      	str	r2, [r3, #0]
        }

        /* Reset CRC Calculation */
        if (hspi->Init.CRCCalculation == SPI_CRCCALCULATION_ENABLE)
 8002f36:	68fb      	ldr	r3, [r7, #12]
 8002f38:	6a9a      	ldr	r2, [r3, #40]	; 0x28
 8002f3a:	2380      	movs	r3, #128	; 0x80
 8002f3c:	019b      	lsls	r3, r3, #6
 8002f3e:	429a      	cmp	r2, r3
 8002f40:	d110      	bne.n	8002f64 <SPI_WaitFifoStateUntilTimeout+0xfc>
        {
          SPI_RESET_CRC(hspi);
 8002f42:	68fb      	ldr	r3, [r7, #12]
 8002f44:	681b      	ldr	r3, [r3, #0]
 8002f46:	681a      	ldr	r2, [r3, #0]
 8002f48:	68fb      	ldr	r3, [r7, #12]
 8002f4a:	681b      	ldr	r3, [r3, #0]
 8002f4c:	4916      	ldr	r1, [pc, #88]	; (8002fa8 <SPI_WaitFifoStateUntilTimeout+0x140>)
 8002f4e:	400a      	ands	r2, r1
 8002f50:	601a      	str	r2, [r3, #0]
 8002f52:	68fb      	ldr	r3, [r7, #12]
 8002f54:	681b      	ldr	r3, [r3, #0]
 8002f56:	681a      	ldr	r2, [r3, #0]
 8002f58:	68fb      	ldr	r3, [r7, #12]
 8002f5a:	681b      	ldr	r3, [r3, #0]
 8002f5c:	2180      	movs	r1, #128	; 0x80
 8002f5e:	0189      	lsls	r1, r1, #6
 8002f60:	430a      	orrs	r2, r1
 8002f62:	601a      	str	r2, [r3, #0]
        }

        hspi->State = HAL_SPI_STATE_READY;
 8002f64:	68fb      	ldr	r3, [r7, #12]
 8002f66:	225d      	movs	r2, #93	; 0x5d
 8002f68:	2101      	movs	r1, #1
 8002f6a:	5499      	strb	r1, [r3, r2]

        /* Process Unlocked */
        __HAL_UNLOCK(hspi);
 8002f6c:	68fb      	ldr	r3, [r7, #12]
 8002f6e:	225c      	movs	r2, #92	; 0x5c
 8002f70:	2100      	movs	r1, #0
 8002f72:	5499      	strb	r1, [r3, r2]

        return HAL_TIMEOUT;
 8002f74:	2303      	movs	r3, #3
 8002f76:	e010      	b.n	8002f9a <SPI_WaitFifoStateUntilTimeout+0x132>
      }
      /* If Systick is disabled or not incremented, deactivate timeout to go in disable loop procedure */
      if(count == 0U)
 8002f78:	69bb      	ldr	r3, [r7, #24]
 8002f7a:	2b00      	cmp	r3, #0
 8002f7c:	d101      	bne.n	8002f82 <SPI_WaitFifoStateUntilTimeout+0x11a>
      {
        tmp_timeout = 0U;
 8002f7e:	2300      	movs	r3, #0
 8002f80:	627b      	str	r3, [r7, #36]	; 0x24
      }      
      count--;
 8002f82:	69bb      	ldr	r3, [r7, #24]
 8002f84:	3b01      	subs	r3, #1
 8002f86:	61bb      	str	r3, [r7, #24]
  while ((hspi->Instance->SR & Fifo) != State)
 8002f88:	68fb      	ldr	r3, [r7, #12]
 8002f8a:	681b      	ldr	r3, [r3, #0]
 8002f8c:	689b      	ldr	r3, [r3, #8]
 8002f8e:	68ba      	ldr	r2, [r7, #8]
 8002f90:	4013      	ands	r3, r2
 8002f92:	687a      	ldr	r2, [r7, #4]
 8002f94:	429a      	cmp	r2, r3
 8002f96:	d18e      	bne.n	8002eb6 <SPI_WaitFifoStateUntilTimeout+0x4e>
    }
  }

  return HAL_OK;
 8002f98:	2300      	movs	r3, #0
}
 8002f9a:	0018      	movs	r0, r3
 8002f9c:	46bd      	mov	sp, r7
 8002f9e:	b00a      	add	sp, #40	; 0x28
 8002fa0:	bd80      	pop	{r7, pc}
 8002fa2:	46c0      	nop			; (mov r8, r8)
 8002fa4:	20000000 	.word	0x20000000
 8002fa8:	ffffdfff 	.word	0xffffdfff

08002fac <SPI_EndRxTxTransaction>:
  * @param  Timeout Timeout duration
  * @param  Tickstart tick start value
  * @retval HAL status
  */
static HAL_StatusTypeDef SPI_EndRxTxTransaction(SPI_HandleTypeDef *hspi, uint32_t Timeout, uint32_t Tickstart)
{
 8002fac:	b580      	push	{r7, lr}
 8002fae:	b086      	sub	sp, #24
 8002fb0:	af02      	add	r7, sp, #8
 8002fb2:	60f8      	str	r0, [r7, #12]
 8002fb4:	60b9      	str	r1, [r7, #8]
 8002fb6:	607a      	str	r2, [r7, #4]
  /* Control if the TX fifo is empty */
  if (SPI_WaitFifoStateUntilTimeout(hspi, SPI_FLAG_FTLVL, SPI_FTLVL_EMPTY, Timeout, Tickstart) != HAL_OK)
 8002fb8:	68ba      	ldr	r2, [r7, #8]
 8002fba:	23c0      	movs	r3, #192	; 0xc0
 8002fbc:	0159      	lsls	r1, r3, #5
 8002fbe:	68f8      	ldr	r0, [r7, #12]
 8002fc0:	687b      	ldr	r3, [r7, #4]
 8002fc2:	9300      	str	r3, [sp, #0]
 8002fc4:	0013      	movs	r3, r2
 8002fc6:	2200      	movs	r2, #0
 8002fc8:	f7ff ff4e 	bl	8002e68 <SPI_WaitFifoStateUntilTimeout>
 8002fcc:	1e03      	subs	r3, r0, #0
 8002fce:	d007      	beq.n	8002fe0 <SPI_EndRxTxTransaction+0x34>
  {
    SET_BIT(hspi->ErrorCode, HAL_SPI_ERROR_FLAG);
 8002fd0:	68fb      	ldr	r3, [r7, #12]
 8002fd2:	6e1b      	ldr	r3, [r3, #96]	; 0x60
 8002fd4:	2220      	movs	r2, #32
 8002fd6:	431a      	orrs	r2, r3
 8002fd8:	68fb      	ldr	r3, [r7, #12]
 8002fda:	661a      	str	r2, [r3, #96]	; 0x60
    return HAL_TIMEOUT;
 8002fdc:	2303      	movs	r3, #3
 8002fde:	e027      	b.n	8003030 <SPI_EndRxTxTransaction+0x84>
  }

  /* Control the BSY flag */
  if (SPI_WaitFlagStateUntilTimeout(hspi, SPI_FLAG_BSY, RESET, Timeout, Tickstart) != HAL_OK)
 8002fe0:	68ba      	ldr	r2, [r7, #8]
 8002fe2:	68f8      	ldr	r0, [r7, #12]
 8002fe4:	687b      	ldr	r3, [r7, #4]
 8002fe6:	9300      	str	r3, [sp, #0]
 8002fe8:	0013      	movs	r3, r2
 8002fea:	2200      	movs	r2, #0
 8002fec:	2180      	movs	r1, #128	; 0x80
 8002fee:	f7ff fead 	bl	8002d4c <SPI_WaitFlagStateUntilTimeout>
 8002ff2:	1e03      	subs	r3, r0, #0
 8002ff4:	d007      	beq.n	8003006 <SPI_EndRxTxTransaction+0x5a>
  {
    SET_BIT(hspi->ErrorCode, HAL_SPI_ERROR_FLAG);
 8002ff6:	68fb      	ldr	r3, [r7, #12]
 8002ff8:	6e1b      	ldr	r3, [r3, #96]	; 0x60
 8002ffa:	2220      	movs	r2, #32
 8002ffc:	431a      	orrs	r2, r3
 8002ffe:	68fb      	ldr	r3, [r7, #12]
 8003000:	661a      	str	r2, [r3, #96]	; 0x60
    return HAL_TIMEOUT;
 8003002:	2303      	movs	r3, #3
 8003004:	e014      	b.n	8003030 <SPI_EndRxTxTransaction+0x84>
  }

  /* Control if the RX fifo is empty */
  if (SPI_WaitFifoStateUntilTimeout(hspi, SPI_FLAG_FRLVL, SPI_FRLVL_EMPTY, Timeout, Tickstart) != HAL_OK)
 8003006:	68ba      	ldr	r2, [r7, #8]
 8003008:	23c0      	movs	r3, #192	; 0xc0
 800300a:	00d9      	lsls	r1, r3, #3
 800300c:	68f8      	ldr	r0, [r7, #12]
 800300e:	687b      	ldr	r3, [r7, #4]
 8003010:	9300      	str	r3, [sp, #0]
 8003012:	0013      	movs	r3, r2
 8003014:	2200      	movs	r2, #0
 8003016:	f7ff ff27 	bl	8002e68 <SPI_WaitFifoStateUntilTimeout>
 800301a:	1e03      	subs	r3, r0, #0
 800301c:	d007      	beq.n	800302e <SPI_EndRxTxTransaction+0x82>
  {
    SET_BIT(hspi->ErrorCode, HAL_SPI_ERROR_FLAG);
 800301e:	68fb      	ldr	r3, [r7, #12]
 8003020:	6e1b      	ldr	r3, [r3, #96]	; 0x60
 8003022:	2220      	movs	r2, #32
 8003024:	431a      	orrs	r2, r3
 8003026:	68fb      	ldr	r3, [r7, #12]
 8003028:	661a      	str	r2, [r3, #96]	; 0x60
    return HAL_TIMEOUT;
 800302a:	2303      	movs	r3, #3
 800302c:	e000      	b.n	8003030 <SPI_EndRxTxTransaction+0x84>
  }

  return HAL_OK;
 800302e:	2300      	movs	r3, #0
}
 8003030:	0018      	movs	r0, r3
 8003032:	46bd      	mov	sp, r7
 8003034:	b004      	add	sp, #16
 8003036:	bd80      	pop	{r7, pc}

08003038 <HAL_TIM_Base_Init>:
  *         Ex: call @ref HAL_TIM_Base_DeInit() before HAL_TIM_Base_Init()
  * @param  htim TIM Base handle
  * @retval HAL status
  */
HAL_StatusTypeDef HAL_TIM_Base_Init(TIM_HandleTypeDef *htim)
{
 8003038:	b580      	push	{r7, lr}
 800303a:	b082      	sub	sp, #8
 800303c:	af00      	add	r7, sp, #0
 800303e:	6078      	str	r0, [r7, #4]
  /* Check the TIM handle allocation */
  if (htim == NULL)
 8003040:	687b      	ldr	r3, [r7, #4]
 8003042:	2b00      	cmp	r3, #0
 8003044:	d101      	bne.n	800304a <HAL_TIM_Base_Init+0x12>
  {
    return HAL_ERROR;
 8003046:	2301      	movs	r3, #1
 8003048:	e042      	b.n	80030d0 <HAL_TIM_Base_Init+0x98>
  assert_param(IS_TIM_INSTANCE(htim->Instance));
  assert_param(IS_TIM_COUNTER_MODE(htim->Init.CounterMode));
  assert_param(IS_TIM_CLOCKDIVISION_DIV(htim->Init.ClockDivision));
  assert_param(IS_TIM_AUTORELOAD_PRELOAD(htim->Init.AutoReloadPreload));

  if (htim->State == HAL_TIM_STATE_RESET)
 800304a:	687b      	ldr	r3, [r7, #4]
 800304c:	223d      	movs	r2, #61	; 0x3d
 800304e:	5c9b      	ldrb	r3, [r3, r2]
 8003050:	b2db      	uxtb	r3, r3
 8003052:	2b00      	cmp	r3, #0
 8003054:	d107      	bne.n	8003066 <HAL_TIM_Base_Init+0x2e>
  {
    /* Allocate lock resource and initialize it */
    htim->Lock = HAL_UNLOCKED;
 8003056:	687b      	ldr	r3, [r7, #4]
 8003058:	223c      	movs	r2, #60	; 0x3c
 800305a:	2100      	movs	r1, #0
 800305c:	5499      	strb	r1, [r3, r2]
    }
    /* Init the low level hardware : GPIO, CLOCK, NVIC */
    htim->Base_MspInitCallback(htim);
#else
    /* Init the low level hardware : GPIO, CLOCK, NVIC */
    HAL_TIM_Base_MspInit(htim);
 800305e:	687b      	ldr	r3, [r7, #4]
 8003060:	0018      	movs	r0, r3
 8003062:	f7fe fa13 	bl	800148c <HAL_TIM_Base_MspInit>
#endif /* USE_HAL_TIM_REGISTER_CALLBACKS */
  }

  /* Set the TIM state */
  htim->State = HAL_TIM_STATE_BUSY;
 8003066:	687b      	ldr	r3, [r7, #4]
 8003068:	223d      	movs	r2, #61	; 0x3d
 800306a:	2102      	movs	r1, #2
 800306c:	5499      	strb	r1, [r3, r2]

  /* Set the Time Base configuration */
  TIM_Base_SetConfig(htim->Instance, &htim->Init);
 800306e:	687b      	ldr	r3, [r7, #4]
 8003070:	681a      	ldr	r2, [r3, #0]
 8003072:	687b      	ldr	r3, [r7, #4]
 8003074:	3304      	adds	r3, #4
 8003076:	0019      	movs	r1, r3
 8003078:	0010      	movs	r0, r2
 800307a:	f000 fa1f 	bl	80034bc <TIM_Base_SetConfig>

  /* Initialize the DMA burst operation state */
  htim->DMABurstState = HAL_DMA_BURST_STATE_READY;
 800307e:	687b      	ldr	r3, [r7, #4]
 8003080:	2246      	movs	r2, #70	; 0x46
 8003082:	2101      	movs	r1, #1
 8003084:	5499      	strb	r1, [r3, r2]

  /* Initialize the TIM channels state */
  TIM_CHANNEL_STATE_SET_ALL(htim, HAL_TIM_CHANNEL_STATE_READY);
 8003086:	687b      	ldr	r3, [r7, #4]
 8003088:	223e      	movs	r2, #62	; 0x3e
 800308a:	2101      	movs	r1, #1
 800308c:	5499      	strb	r1, [r3, r2]
 800308e:	687b      	ldr	r3, [r7, #4]
 8003090:	223f      	movs	r2, #63	; 0x3f
 8003092:	2101      	movs	r1, #1
 8003094:	5499      	strb	r1, [r3, r2]
 8003096:	687b      	ldr	r3, [r7, #4]
 8003098:	2240      	movs	r2, #64	; 0x40
 800309a:	2101      	movs	r1, #1
 800309c:	5499      	strb	r1, [r3, r2]
 800309e:	687b      	ldr	r3, [r7, #4]
 80030a0:	2241      	movs	r2, #65	; 0x41
 80030a2:	2101      	movs	r1, #1
 80030a4:	5499      	strb	r1, [r3, r2]
  TIM_CHANNEL_N_STATE_SET_ALL(htim, HAL_TIM_CHANNEL_STATE_READY);
 80030a6:	687b      	ldr	r3, [r7, #4]
 80030a8:	2242      	movs	r2, #66	; 0x42
 80030aa:	2101      	movs	r1, #1
 80030ac:	5499      	strb	r1, [r3, r2]
 80030ae:	687b      	ldr	r3, [r7, #4]
 80030b0:	2243      	movs	r2, #67	; 0x43
 80030b2:	2101      	movs	r1, #1
 80030b4:	5499      	strb	r1, [r3, r2]
 80030b6:	687b      	ldr	r3, [r7, #4]
 80030b8:	2244      	movs	r2, #68	; 0x44
 80030ba:	2101      	movs	r1, #1
 80030bc:	5499      	strb	r1, [r3, r2]
 80030be:	687b      	ldr	r3, [r7, #4]
 80030c0:	2245      	movs	r2, #69	; 0x45
 80030c2:	2101      	movs	r1, #1
 80030c4:	5499      	strb	r1, [r3, r2]

  /* Initialize the TIM state*/
  htim->State = HAL_TIM_STATE_READY;
 80030c6:	687b      	ldr	r3, [r7, #4]
 80030c8:	223d      	movs	r2, #61	; 0x3d
 80030ca:	2101      	movs	r1, #1
 80030cc:	5499      	strb	r1, [r3, r2]

  return HAL_OK;
 80030ce:	2300      	movs	r3, #0
}
 80030d0:	0018      	movs	r0, r3
 80030d2:	46bd      	mov	sp, r7
 80030d4:	b002      	add	sp, #8
 80030d6:	bd80      	pop	{r7, pc}

080030d8 <HAL_TIM_PWM_Init>:
  *         Ex: call @ref HAL_TIM_PWM_DeInit() before HAL_TIM_PWM_Init()
  * @param  htim TIM PWM handle
  * @retval HAL status
  */
HAL_StatusTypeDef HAL_TIM_PWM_Init(TIM_HandleTypeDef *htim)
{
 80030d8:	b580      	push	{r7, lr}
 80030da:	b082      	sub	sp, #8
 80030dc:	af00      	add	r7, sp, #0
 80030de:	6078      	str	r0, [r7, #4]
  /* Check the TIM handle allocation */
  if (htim == NULL)
 80030e0:	687b      	ldr	r3, [r7, #4]
 80030e2:	2b00      	cmp	r3, #0
 80030e4:	d101      	bne.n	80030ea <HAL_TIM_PWM_Init+0x12>
  {
    return HAL_ERROR;
 80030e6:	2301      	movs	r3, #1
 80030e8:	e042      	b.n	8003170 <HAL_TIM_PWM_Init+0x98>
  assert_param(IS_TIM_INSTANCE(htim->Instance));
  assert_param(IS_TIM_COUNTER_MODE(htim->Init.CounterMode));
  assert_param(IS_TIM_CLOCKDIVISION_DIV(htim->Init.ClockDivision));
  assert_param(IS_TIM_AUTORELOAD_PRELOAD(htim->Init.AutoReloadPreload));

  if (htim->State == HAL_TIM_STATE_RESET)
 80030ea:	687b      	ldr	r3, [r7, #4]
 80030ec:	223d      	movs	r2, #61	; 0x3d
 80030ee:	5c9b      	ldrb	r3, [r3, r2]
 80030f0:	b2db      	uxtb	r3, r3
 80030f2:	2b00      	cmp	r3, #0
 80030f4:	d107      	bne.n	8003106 <HAL_TIM_PWM_Init+0x2e>
  {
    /* Allocate lock resource and initialize it */
    htim->Lock = HAL_UNLOCKED;
 80030f6:	687b      	ldr	r3, [r7, #4]
 80030f8:	223c      	movs	r2, #60	; 0x3c
 80030fa:	2100      	movs	r1, #0
 80030fc:	5499      	strb	r1, [r3, r2]
    }
    /* Init the low level hardware : GPIO, CLOCK, NVIC */
    htim->PWM_MspInitCallback(htim);
#else
    /* Init the low level hardware : GPIO, CLOCK, NVIC and DMA */
    HAL_TIM_PWM_MspInit(htim);
 80030fe:	687b      	ldr	r3, [r7, #4]
 8003100:	0018      	movs	r0, r3
 8003102:	f000 f839 	bl	8003178 <HAL_TIM_PWM_MspInit>
#endif /* USE_HAL_TIM_REGISTER_CALLBACKS */
  }

  /* Set the TIM state */
  htim->State = HAL_TIM_STATE_BUSY;
 8003106:	687b      	ldr	r3, [r7, #4]
 8003108:	223d      	movs	r2, #61	; 0x3d
 800310a:	2102      	movs	r1, #2
 800310c:	5499      	strb	r1, [r3, r2]

  /* Init the base time for the PWM */
  TIM_Base_SetConfig(htim->Instance, &htim->Init);
 800310e:	687b      	ldr	r3, [r7, #4]
 8003110:	681a      	ldr	r2, [r3, #0]
 8003112:	687b      	ldr	r3, [r7, #4]
 8003114:	3304      	adds	r3, #4
 8003116:	0019      	movs	r1, r3
 8003118:	0010      	movs	r0, r2
 800311a:	f000 f9cf 	bl	80034bc <TIM_Base_SetConfig>

  /* Initialize the DMA burst operation state */
  htim->DMABurstState = HAL_DMA_BURST_STATE_READY;
 800311e:	687b      	ldr	r3, [r7, #4]
 8003120:	2246      	movs	r2, #70	; 0x46
 8003122:	2101      	movs	r1, #1
 8003124:	5499      	strb	r1, [r3, r2]

  /* Initialize the TIM channels state */
  TIM_CHANNEL_STATE_SET_ALL(htim, HAL_TIM_CHANNEL_STATE_READY);
 8003126:	687b      	ldr	r3, [r7, #4]
 8003128:	223e      	movs	r2, #62	; 0x3e
 800312a:	2101      	movs	r1, #1
 800312c:	5499      	strb	r1, [r3, r2]
 800312e:	687b      	ldr	r3, [r7, #4]
 8003130:	223f      	movs	r2, #63	; 0x3f
 8003132:	2101      	movs	r1, #1
 8003134:	5499      	strb	r1, [r3, r2]
 8003136:	687b      	ldr	r3, [r7, #4]
 8003138:	2240      	movs	r2, #64	; 0x40
 800313a:	2101      	movs	r1, #1
 800313c:	5499      	strb	r1, [r3, r2]
 800313e:	687b      	ldr	r3, [r7, #4]
 8003140:	2241      	movs	r2, #65	; 0x41
 8003142:	2101      	movs	r1, #1
 8003144:	5499      	strb	r1, [r3, r2]
  TIM_CHANNEL_N_STATE_SET_ALL(htim, HAL_TIM_CHANNEL_STATE_READY);
 8003146:	687b      	ldr	r3, [r7, #4]
 8003148:	2242      	movs	r2, #66	; 0x42
 800314a:	2101      	movs	r1, #1
 800314c:	5499      	strb	r1, [r3, r2]
 800314e:	687b      	ldr	r3, [r7, #4]
 8003150:	2243      	movs	r2, #67	; 0x43
 8003152:	2101      	movs	r1, #1
 8003154:	5499      	strb	r1, [r3, r2]
 8003156:	687b      	ldr	r3, [r7, #4]
 8003158:	2244      	movs	r2, #68	; 0x44
 800315a:	2101      	movs	r1, #1
 800315c:	5499      	strb	r1, [r3, r2]
 800315e:	687b      	ldr	r3, [r7, #4]
 8003160:	2245      	movs	r2, #69	; 0x45
 8003162:	2101      	movs	r1, #1
 8003164:	5499      	strb	r1, [r3, r2]

  /* Initialize the TIM state*/
  htim->State = HAL_TIM_STATE_READY;
 8003166:	687b      	ldr	r3, [r7, #4]
 8003168:	223d      	movs	r2, #61	; 0x3d
 800316a:	2101      	movs	r1, #1
 800316c:	5499      	strb	r1, [r3, r2]

  return HAL_OK;
 800316e:	2300      	movs	r3, #0
}
 8003170:	0018      	movs	r0, r3
 8003172:	46bd      	mov	sp, r7
 8003174:	b002      	add	sp, #8
 8003176:	bd80      	pop	{r7, pc}

08003178 <HAL_TIM_PWM_MspInit>:
  * @brief  Initializes the TIM PWM MSP.
  * @param  htim TIM PWM handle
  * @retval None
  */
__weak void HAL_TIM_PWM_MspInit(TIM_HandleTypeDef *htim)
{
 8003178:	b580      	push	{r7, lr}
 800317a:	b082      	sub	sp, #8
 800317c:	af00      	add	r7, sp, #0
 800317e:	6078      	str	r0, [r7, #4]
  UNUSED(htim);

  /* NOTE : This function should not be modified, when the callback is needed,
            the HAL_TIM_PWM_MspInit could be implemented in the user file
   */
}
 8003180:	46c0      	nop			; (mov r8, r8)
 8003182:	46bd      	mov	sp, r7
 8003184:	b002      	add	sp, #8
 8003186:	bd80      	pop	{r7, pc}

08003188 <HAL_TIM_PWM_ConfigChannel>:
  * @retval HAL status
  */
HAL_StatusTypeDef HAL_TIM_PWM_ConfigChannel(TIM_HandleTypeDef *htim,
                                            TIM_OC_InitTypeDef *sConfig,
                                            uint32_t Channel)
{
 8003188:	b580      	push	{r7, lr}
 800318a:	b086      	sub	sp, #24
 800318c:	af00      	add	r7, sp, #0
 800318e:	60f8      	str	r0, [r7, #12]
 8003190:	60b9      	str	r1, [r7, #8]
 8003192:	607a      	str	r2, [r7, #4]
  HAL_StatusTypeDef status = HAL_OK;
 8003194:	2317      	movs	r3, #23
 8003196:	18fb      	adds	r3, r7, r3
 8003198:	2200      	movs	r2, #0
 800319a:	701a      	strb	r2, [r3, #0]
  assert_param(IS_TIM_PWM_MODE(sConfig->OCMode));
  assert_param(IS_TIM_OC_POLARITY(sConfig->OCPolarity));
  assert_param(IS_TIM_FAST_STATE(sConfig->OCFastMode));

  /* Process Locked */
  __HAL_LOCK(htim);
 800319c:	68fb      	ldr	r3, [r7, #12]
 800319e:	223c      	movs	r2, #60	; 0x3c
 80031a0:	5c9b      	ldrb	r3, [r3, r2]
 80031a2:	2b01      	cmp	r3, #1
 80031a4:	d101      	bne.n	80031aa <HAL_TIM_PWM_ConfigChannel+0x22>
 80031a6:	2302      	movs	r3, #2
 80031a8:	e0ad      	b.n	8003306 <HAL_TIM_PWM_ConfigChannel+0x17e>
 80031aa:	68fb      	ldr	r3, [r7, #12]
 80031ac:	223c      	movs	r2, #60	; 0x3c
 80031ae:	2101      	movs	r1, #1
 80031b0:	5499      	strb	r1, [r3, r2]

  switch (Channel)
 80031b2:	687b      	ldr	r3, [r7, #4]
 80031b4:	2b0c      	cmp	r3, #12
 80031b6:	d100      	bne.n	80031ba <HAL_TIM_PWM_ConfigChannel+0x32>
 80031b8:	e076      	b.n	80032a8 <HAL_TIM_PWM_ConfigChannel+0x120>
 80031ba:	687b      	ldr	r3, [r7, #4]
 80031bc:	2b0c      	cmp	r3, #12
 80031be:	d900      	bls.n	80031c2 <HAL_TIM_PWM_ConfigChannel+0x3a>
 80031c0:	e095      	b.n	80032ee <HAL_TIM_PWM_ConfigChannel+0x166>
 80031c2:	687b      	ldr	r3, [r7, #4]
 80031c4:	2b08      	cmp	r3, #8
 80031c6:	d04e      	beq.n	8003266 <HAL_TIM_PWM_ConfigChannel+0xde>
 80031c8:	687b      	ldr	r3, [r7, #4]
 80031ca:	2b08      	cmp	r3, #8
 80031cc:	d900      	bls.n	80031d0 <HAL_TIM_PWM_ConfigChannel+0x48>
 80031ce:	e08e      	b.n	80032ee <HAL_TIM_PWM_ConfigChannel+0x166>
 80031d0:	687b      	ldr	r3, [r7, #4]
 80031d2:	2b00      	cmp	r3, #0
 80031d4:	d003      	beq.n	80031de <HAL_TIM_PWM_ConfigChannel+0x56>
 80031d6:	687b      	ldr	r3, [r7, #4]
 80031d8:	2b04      	cmp	r3, #4
 80031da:	d021      	beq.n	8003220 <HAL_TIM_PWM_ConfigChannel+0x98>
 80031dc:	e087      	b.n	80032ee <HAL_TIM_PWM_ConfigChannel+0x166>
    {
      /* Check the parameters */
      assert_param(IS_TIM_CC1_INSTANCE(htim->Instance));

      /* Configure the Channel 1 in PWM mode */
      TIM_OC1_SetConfig(htim->Instance, sConfig);
 80031de:	68fb      	ldr	r3, [r7, #12]
 80031e0:	681b      	ldr	r3, [r3, #0]
 80031e2:	68ba      	ldr	r2, [r7, #8]
 80031e4:	0011      	movs	r1, r2
 80031e6:	0018      	movs	r0, r3
 80031e8:	f000 f9e8 	bl	80035bc <TIM_OC1_SetConfig>

      /* Set the Preload enable bit for channel1 */
      htim->Instance->CCMR1 |= TIM_CCMR1_OC1PE;
 80031ec:	68fb      	ldr	r3, [r7, #12]
 80031ee:	681b      	ldr	r3, [r3, #0]
 80031f0:	699a      	ldr	r2, [r3, #24]
 80031f2:	68fb      	ldr	r3, [r7, #12]
 80031f4:	681b      	ldr	r3, [r3, #0]
 80031f6:	2108      	movs	r1, #8
 80031f8:	430a      	orrs	r2, r1
 80031fa:	619a      	str	r2, [r3, #24]

      /* Configure the Output Fast mode */
      htim->Instance->CCMR1 &= ~TIM_CCMR1_OC1FE;
 80031fc:	68fb      	ldr	r3, [r7, #12]
 80031fe:	681b      	ldr	r3, [r3, #0]
 8003200:	699a      	ldr	r2, [r3, #24]
 8003202:	68fb      	ldr	r3, [r7, #12]
 8003204:	681b      	ldr	r3, [r3, #0]
 8003206:	2104      	movs	r1, #4
 8003208:	438a      	bics	r2, r1
 800320a:	619a      	str	r2, [r3, #24]
      htim->Instance->CCMR1 |= sConfig->OCFastMode;
 800320c:	68fb      	ldr	r3, [r7, #12]
 800320e:	681b      	ldr	r3, [r3, #0]
 8003210:	6999      	ldr	r1, [r3, #24]
 8003212:	68bb      	ldr	r3, [r7, #8]
 8003214:	691a      	ldr	r2, [r3, #16]
 8003216:	68fb      	ldr	r3, [r7, #12]
 8003218:	681b      	ldr	r3, [r3, #0]
 800321a:	430a      	orrs	r2, r1
 800321c:	619a      	str	r2, [r3, #24]
      break;
 800321e:	e06b      	b.n	80032f8 <HAL_TIM_PWM_ConfigChannel+0x170>
    {
      /* Check the parameters */
      assert_param(IS_TIM_CC2_INSTANCE(htim->Instance));

      /* Configure the Channel 2 in PWM mode */
      TIM_OC2_SetConfig(htim->Instance, sConfig);
 8003220:	68fb      	ldr	r3, [r7, #12]
 8003222:	681b      	ldr	r3, [r3, #0]
 8003224:	68ba      	ldr	r2, [r7, #8]
 8003226:	0011      	movs	r1, r2
 8003228:	0018      	movs	r0, r3
 800322a:	f000 fa4f 	bl	80036cc <TIM_OC2_SetConfig>

      /* Set the Preload enable bit for channel2 */
      htim->Instance->CCMR1 |= TIM_CCMR1_OC2PE;
 800322e:	68fb      	ldr	r3, [r7, #12]
 8003230:	681b      	ldr	r3, [r3, #0]
 8003232:	699a      	ldr	r2, [r3, #24]
 8003234:	68fb      	ldr	r3, [r7, #12]
 8003236:	681b      	ldr	r3, [r3, #0]
 8003238:	2180      	movs	r1, #128	; 0x80
 800323a:	0109      	lsls	r1, r1, #4
 800323c:	430a      	orrs	r2, r1
 800323e:	619a      	str	r2, [r3, #24]

      /* Configure the Output Fast mode */
      htim->Instance->CCMR1 &= ~TIM_CCMR1_OC2FE;
 8003240:	68fb      	ldr	r3, [r7, #12]
 8003242:	681b      	ldr	r3, [r3, #0]
 8003244:	699a      	ldr	r2, [r3, #24]
 8003246:	68fb      	ldr	r3, [r7, #12]
 8003248:	681b      	ldr	r3, [r3, #0]
 800324a:	4931      	ldr	r1, [pc, #196]	; (8003310 <HAL_TIM_PWM_ConfigChannel+0x188>)
 800324c:	400a      	ands	r2, r1
 800324e:	619a      	str	r2, [r3, #24]
      htim->Instance->CCMR1 |= sConfig->OCFastMode << 8U;
 8003250:	68fb      	ldr	r3, [r7, #12]
 8003252:	681b      	ldr	r3, [r3, #0]
 8003254:	6999      	ldr	r1, [r3, #24]
 8003256:	68bb      	ldr	r3, [r7, #8]
 8003258:	691b      	ldr	r3, [r3, #16]
 800325a:	021a      	lsls	r2, r3, #8
 800325c:	68fb      	ldr	r3, [r7, #12]
 800325e:	681b      	ldr	r3, [r3, #0]
 8003260:	430a      	orrs	r2, r1
 8003262:	619a      	str	r2, [r3, #24]
      break;
 8003264:	e048      	b.n	80032f8 <HAL_TIM_PWM_ConfigChannel+0x170>
    {
      /* Check the parameters */
      assert_param(IS_TIM_CC3_INSTANCE(htim->Instance));

      /* Configure the Channel 3 in PWM mode */
      TIM_OC3_SetConfig(htim->Instance, sConfig);
 8003266:	68fb      	ldr	r3, [r7, #12]
 8003268:	681b      	ldr	r3, [r3, #0]
 800326a:	68ba      	ldr	r2, [r7, #8]
 800326c:	0011      	movs	r1, r2
 800326e:	0018      	movs	r0, r3
 8003270:	f000 fab0 	bl	80037d4 <TIM_OC3_SetConfig>

      /* Set the Preload enable bit for channel3 */
      htim->Instance->CCMR2 |= TIM_CCMR2_OC3PE;
 8003274:	68fb      	ldr	r3, [r7, #12]
 8003276:	681b      	ldr	r3, [r3, #0]
 8003278:	69da      	ldr	r2, [r3, #28]
 800327a:	68fb      	ldr	r3, [r7, #12]
 800327c:	681b      	ldr	r3, [r3, #0]
 800327e:	2108      	movs	r1, #8
 8003280:	430a      	orrs	r2, r1
 8003282:	61da      	str	r2, [r3, #28]

      /* Configure the Output Fast mode */
      htim->Instance->CCMR2 &= ~TIM_CCMR2_OC3FE;
 8003284:	68fb      	ldr	r3, [r7, #12]
 8003286:	681b      	ldr	r3, [r3, #0]
 8003288:	69da      	ldr	r2, [r3, #28]
 800328a:	68fb      	ldr	r3, [r7, #12]
 800328c:	681b      	ldr	r3, [r3, #0]
 800328e:	2104      	movs	r1, #4
 8003290:	438a      	bics	r2, r1
 8003292:	61da      	str	r2, [r3, #28]
      htim->Instance->CCMR2 |= sConfig->OCFastMode;
 8003294:	68fb      	ldr	r3, [r7, #12]
 8003296:	681b      	ldr	r3, [r3, #0]
 8003298:	69d9      	ldr	r1, [r3, #28]
 800329a:	68bb      	ldr	r3, [r7, #8]
 800329c:	691a      	ldr	r2, [r3, #16]
 800329e:	68fb      	ldr	r3, [r7, #12]
 80032a0:	681b      	ldr	r3, [r3, #0]
 80032a2:	430a      	orrs	r2, r1
 80032a4:	61da      	str	r2, [r3, #28]
      break;
 80032a6:	e027      	b.n	80032f8 <HAL_TIM_PWM_ConfigChannel+0x170>
    {
      /* Check the parameters */
      assert_param(IS_TIM_CC4_INSTANCE(htim->Instance));

      /* Configure the Channel 4 in PWM mode */
      TIM_OC4_SetConfig(htim->Instance, sConfig);
 80032a8:	68fb      	ldr	r3, [r7, #12]
 80032aa:	681b      	ldr	r3, [r3, #0]
 80032ac:	68ba      	ldr	r2, [r7, #8]
 80032ae:	0011      	movs	r1, r2
 80032b0:	0018      	movs	r0, r3
 80032b2:	f000 fb15 	bl	80038e0 <TIM_OC4_SetConfig>

      /* Set the Preload enable bit for channel4 */
      htim->Instance->CCMR2 |= TIM_CCMR2_OC4PE;
 80032b6:	68fb      	ldr	r3, [r7, #12]
 80032b8:	681b      	ldr	r3, [r3, #0]
 80032ba:	69da      	ldr	r2, [r3, #28]
 80032bc:	68fb      	ldr	r3, [r7, #12]
 80032be:	681b      	ldr	r3, [r3, #0]
 80032c0:	2180      	movs	r1, #128	; 0x80
 80032c2:	0109      	lsls	r1, r1, #4
 80032c4:	430a      	orrs	r2, r1
 80032c6:	61da      	str	r2, [r3, #28]

      /* Configure the Output Fast mode */
      htim->Instance->CCMR2 &= ~TIM_CCMR2_OC4FE;
 80032c8:	68fb      	ldr	r3, [r7, #12]
 80032ca:	681b      	ldr	r3, [r3, #0]
 80032cc:	69da      	ldr	r2, [r3, #28]
 80032ce:	68fb      	ldr	r3, [r7, #12]
 80032d0:	681b      	ldr	r3, [r3, #0]
 80032d2:	490f      	ldr	r1, [pc, #60]	; (8003310 <HAL_TIM_PWM_ConfigChannel+0x188>)
 80032d4:	400a      	ands	r2, r1
 80032d6:	61da      	str	r2, [r3, #28]
      htim->Instance->CCMR2 |= sConfig->OCFastMode << 8U;
 80032d8:	68fb      	ldr	r3, [r7, #12]
 80032da:	681b      	ldr	r3, [r3, #0]
 80032dc:	69d9      	ldr	r1, [r3, #28]
 80032de:	68bb      	ldr	r3, [r7, #8]
 80032e0:	691b      	ldr	r3, [r3, #16]
 80032e2:	021a      	lsls	r2, r3, #8
 80032e4:	68fb      	ldr	r3, [r7, #12]
 80032e6:	681b      	ldr	r3, [r3, #0]
 80032e8:	430a      	orrs	r2, r1
 80032ea:	61da      	str	r2, [r3, #28]
      break;
 80032ec:	e004      	b.n	80032f8 <HAL_TIM_PWM_ConfigChannel+0x170>
    }

    default:
      status = HAL_ERROR;
 80032ee:	2317      	movs	r3, #23
 80032f0:	18fb      	adds	r3, r7, r3
 80032f2:	2201      	movs	r2, #1
 80032f4:	701a      	strb	r2, [r3, #0]
      break;
 80032f6:	46c0      	nop			; (mov r8, r8)
  }

  __HAL_UNLOCK(htim);
 80032f8:	68fb      	ldr	r3, [r7, #12]
 80032fa:	223c      	movs	r2, #60	; 0x3c
 80032fc:	2100      	movs	r1, #0
 80032fe:	5499      	strb	r1, [r3, r2]

  return status;
 8003300:	2317      	movs	r3, #23
 8003302:	18fb      	adds	r3, r7, r3
 8003304:	781b      	ldrb	r3, [r3, #0]
}
 8003306:	0018      	movs	r0, r3
 8003308:	46bd      	mov	sp, r7
 800330a:	b006      	add	sp, #24
 800330c:	bd80      	pop	{r7, pc}
 800330e:	46c0      	nop			; (mov r8, r8)
 8003310:	fffffbff 	.word	0xfffffbff

08003314 <HAL_TIM_ConfigClockSource>:
  * @param  sClockSourceConfig pointer to a TIM_ClockConfigTypeDef structure that
  *         contains the clock source information for the TIM peripheral.
  * @retval HAL status
  */
HAL_StatusTypeDef HAL_TIM_ConfigClockSource(TIM_HandleTypeDef *htim, TIM_ClockConfigTypeDef *sClockSourceConfig)
{
 8003314:	b580      	push	{r7, lr}
 8003316:	b084      	sub	sp, #16
 8003318:	af00      	add	r7, sp, #0
 800331a:	6078      	str	r0, [r7, #4]
 800331c:	6039      	str	r1, [r7, #0]
  HAL_StatusTypeDef status = HAL_OK;
 800331e:	230f      	movs	r3, #15
 8003320:	18fb      	adds	r3, r7, r3
 8003322:	2200      	movs	r2, #0
 8003324:	701a      	strb	r2, [r3, #0]
  uint32_t tmpsmcr;

  /* Process Locked */
  __HAL_LOCK(htim);
 8003326:	687b      	ldr	r3, [r7, #4]
 8003328:	223c      	movs	r2, #60	; 0x3c
 800332a:	5c9b      	ldrb	r3, [r3, r2]
 800332c:	2b01      	cmp	r3, #1
 800332e:	d101      	bne.n	8003334 <HAL_TIM_ConfigClockSource+0x20>
 8003330:	2302      	movs	r3, #2
 8003332:	e0bc      	b.n	80034ae <HAL_TIM_ConfigClockSource+0x19a>
 8003334:	687b      	ldr	r3, [r7, #4]
 8003336:	223c      	movs	r2, #60	; 0x3c
 8003338:	2101      	movs	r1, #1
 800333a:	5499      	strb	r1, [r3, r2]

  htim->State = HAL_TIM_STATE_BUSY;
 800333c:	687b      	ldr	r3, [r7, #4]
 800333e:	223d      	movs	r2, #61	; 0x3d
 8003340:	2102      	movs	r1, #2
 8003342:	5499      	strb	r1, [r3, r2]

  /* Check the parameters */
  assert_param(IS_TIM_CLOCKSOURCE(sClockSourceConfig->ClockSource));

  /* Reset the SMS, TS, ECE, ETPS and ETRF bits */
  tmpsmcr = htim->Instance->SMCR;
 8003344:	687b      	ldr	r3, [r7, #4]
 8003346:	681b      	ldr	r3, [r3, #0]
 8003348:	689b      	ldr	r3, [r3, #8]
 800334a:	60bb      	str	r3, [r7, #8]
  tmpsmcr &= ~(TIM_SMCR_SMS | TIM_SMCR_TS);
 800334c:	68bb      	ldr	r3, [r7, #8]
 800334e:	2277      	movs	r2, #119	; 0x77
 8003350:	4393      	bics	r3, r2
 8003352:	60bb      	str	r3, [r7, #8]
  tmpsmcr &= ~(TIM_SMCR_ETF | TIM_SMCR_ETPS | TIM_SMCR_ECE | TIM_SMCR_ETP);
 8003354:	68bb      	ldr	r3, [r7, #8]
 8003356:	4a58      	ldr	r2, [pc, #352]	; (80034b8 <HAL_TIM_ConfigClockSource+0x1a4>)
 8003358:	4013      	ands	r3, r2
 800335a:	60bb      	str	r3, [r7, #8]
  htim->Instance->SMCR = tmpsmcr;
 800335c:	687b      	ldr	r3, [r7, #4]
 800335e:	681b      	ldr	r3, [r3, #0]
 8003360:	68ba      	ldr	r2, [r7, #8]
 8003362:	609a      	str	r2, [r3, #8]

  switch (sClockSourceConfig->ClockSource)
 8003364:	683b      	ldr	r3, [r7, #0]
 8003366:	681b      	ldr	r3, [r3, #0]
 8003368:	2280      	movs	r2, #128	; 0x80
 800336a:	0192      	lsls	r2, r2, #6
 800336c:	4293      	cmp	r3, r2
 800336e:	d040      	beq.n	80033f2 <HAL_TIM_ConfigClockSource+0xde>
 8003370:	2280      	movs	r2, #128	; 0x80
 8003372:	0192      	lsls	r2, r2, #6
 8003374:	4293      	cmp	r3, r2
 8003376:	d900      	bls.n	800337a <HAL_TIM_ConfigClockSource+0x66>
 8003378:	e088      	b.n	800348c <HAL_TIM_ConfigClockSource+0x178>
 800337a:	2280      	movs	r2, #128	; 0x80
 800337c:	0152      	lsls	r2, r2, #5
 800337e:	4293      	cmp	r3, r2
 8003380:	d100      	bne.n	8003384 <HAL_TIM_ConfigClockSource+0x70>
 8003382:	e088      	b.n	8003496 <HAL_TIM_ConfigClockSource+0x182>
 8003384:	2280      	movs	r2, #128	; 0x80
 8003386:	0152      	lsls	r2, r2, #5
 8003388:	4293      	cmp	r3, r2
 800338a:	d900      	bls.n	800338e <HAL_TIM_ConfigClockSource+0x7a>
 800338c:	e07e      	b.n	800348c <HAL_TIM_ConfigClockSource+0x178>
 800338e:	2b70      	cmp	r3, #112	; 0x70
 8003390:	d018      	beq.n	80033c4 <HAL_TIM_ConfigClockSource+0xb0>
 8003392:	d900      	bls.n	8003396 <HAL_TIM_ConfigClockSource+0x82>
 8003394:	e07a      	b.n	800348c <HAL_TIM_ConfigClockSource+0x178>
 8003396:	2b60      	cmp	r3, #96	; 0x60
 8003398:	d04f      	beq.n	800343a <HAL_TIM_ConfigClockSource+0x126>
 800339a:	d900      	bls.n	800339e <HAL_TIM_ConfigClockSource+0x8a>
 800339c:	e076      	b.n	800348c <HAL_TIM_ConfigClockSource+0x178>
 800339e:	2b50      	cmp	r3, #80	; 0x50
 80033a0:	d03b      	beq.n	800341a <HAL_TIM_ConfigClockSource+0x106>
 80033a2:	d900      	bls.n	80033a6 <HAL_TIM_ConfigClockSource+0x92>
 80033a4:	e072      	b.n	800348c <HAL_TIM_ConfigClockSource+0x178>
 80033a6:	2b40      	cmp	r3, #64	; 0x40
 80033a8:	d057      	beq.n	800345a <HAL_TIM_ConfigClockSource+0x146>
 80033aa:	d900      	bls.n	80033ae <HAL_TIM_ConfigClockSource+0x9a>
 80033ac:	e06e      	b.n	800348c <HAL_TIM_ConfigClockSource+0x178>
 80033ae:	2b30      	cmp	r3, #48	; 0x30
 80033b0:	d063      	beq.n	800347a <HAL_TIM_ConfigClockSource+0x166>
 80033b2:	d86b      	bhi.n	800348c <HAL_TIM_ConfigClockSource+0x178>
 80033b4:	2b20      	cmp	r3, #32
 80033b6:	d060      	beq.n	800347a <HAL_TIM_ConfigClockSource+0x166>
 80033b8:	d868      	bhi.n	800348c <HAL_TIM_ConfigClockSource+0x178>
 80033ba:	2b00      	cmp	r3, #0
 80033bc:	d05d      	beq.n	800347a <HAL_TIM_ConfigClockSource+0x166>
 80033be:	2b10      	cmp	r3, #16
 80033c0:	d05b      	beq.n	800347a <HAL_TIM_ConfigClockSource+0x166>
 80033c2:	e063      	b.n	800348c <HAL_TIM_ConfigClockSource+0x178>
      assert_param(IS_TIM_CLOCKPRESCALER(sClockSourceConfig->ClockPrescaler));
      assert_param(IS_TIM_CLOCKPOLARITY(sClockSourceConfig->ClockPolarity));
      assert_param(IS_TIM_CLOCKFILTER(sClockSourceConfig->ClockFilter));

      /* Configure the ETR Clock source */
      TIM_ETR_SetConfig(htim->Instance,
 80033c4:	687b      	ldr	r3, [r7, #4]
 80033c6:	6818      	ldr	r0, [r3, #0]
 80033c8:	683b      	ldr	r3, [r7, #0]
 80033ca:	6899      	ldr	r1, [r3, #8]
 80033cc:	683b      	ldr	r3, [r7, #0]
 80033ce:	685a      	ldr	r2, [r3, #4]
 80033d0:	683b      	ldr	r3, [r7, #0]
 80033d2:	68db      	ldr	r3, [r3, #12]
 80033d4:	f000 fb68 	bl	8003aa8 <TIM_ETR_SetConfig>
                        sClockSourceConfig->ClockPrescaler,
                        sClockSourceConfig->ClockPolarity,
                        sClockSourceConfig->ClockFilter);

      /* Select the External clock mode1 and the ETRF trigger */
      tmpsmcr = htim->Instance->SMCR;
 80033d8:	687b      	ldr	r3, [r7, #4]
 80033da:	681b      	ldr	r3, [r3, #0]
 80033dc:	689b      	ldr	r3, [r3, #8]
 80033de:	60bb      	str	r3, [r7, #8]
      tmpsmcr |= (TIM_SLAVEMODE_EXTERNAL1 | TIM_CLOCKSOURCE_ETRMODE1);
 80033e0:	68bb      	ldr	r3, [r7, #8]
 80033e2:	2277      	movs	r2, #119	; 0x77
 80033e4:	4313      	orrs	r3, r2
 80033e6:	60bb      	str	r3, [r7, #8]
      /* Write to TIMx SMCR */
      htim->Instance->SMCR = tmpsmcr;
 80033e8:	687b      	ldr	r3, [r7, #4]
 80033ea:	681b      	ldr	r3, [r3, #0]
 80033ec:	68ba      	ldr	r2, [r7, #8]
 80033ee:	609a      	str	r2, [r3, #8]
      break;
 80033f0:	e052      	b.n	8003498 <HAL_TIM_ConfigClockSource+0x184>
      assert_param(IS_TIM_CLOCKPRESCALER(sClockSourceConfig->ClockPrescaler));
      assert_param(IS_TIM_CLOCKPOLARITY(sClockSourceConfig->ClockPolarity));
      assert_param(IS_TIM_CLOCKFILTER(sClockSourceConfig->ClockFilter));

      /* Configure the ETR Clock source */
      TIM_ETR_SetConfig(htim->Instance,
 80033f2:	687b      	ldr	r3, [r7, #4]
 80033f4:	6818      	ldr	r0, [r3, #0]
 80033f6:	683b      	ldr	r3, [r7, #0]
 80033f8:	6899      	ldr	r1, [r3, #8]
 80033fa:	683b      	ldr	r3, [r7, #0]
 80033fc:	685a      	ldr	r2, [r3, #4]
 80033fe:	683b      	ldr	r3, [r7, #0]
 8003400:	68db      	ldr	r3, [r3, #12]
 8003402:	f000 fb51 	bl	8003aa8 <TIM_ETR_SetConfig>
                        sClockSourceConfig->ClockPrescaler,
                        sClockSourceConfig->ClockPolarity,
                        sClockSourceConfig->ClockFilter);
      /* Enable the External clock mode2 */
      htim->Instance->SMCR |= TIM_SMCR_ECE;
 8003406:	687b      	ldr	r3, [r7, #4]
 8003408:	681b      	ldr	r3, [r3, #0]
 800340a:	689a      	ldr	r2, [r3, #8]
 800340c:	687b      	ldr	r3, [r7, #4]
 800340e:	681b      	ldr	r3, [r3, #0]
 8003410:	2180      	movs	r1, #128	; 0x80
 8003412:	01c9      	lsls	r1, r1, #7
 8003414:	430a      	orrs	r2, r1
 8003416:	609a      	str	r2, [r3, #8]
      break;
 8003418:	e03e      	b.n	8003498 <HAL_TIM_ConfigClockSource+0x184>

      /* Check TI1 input conditioning related parameters */
      assert_param(IS_TIM_CLOCKPOLARITY(sClockSourceConfig->ClockPolarity));
      assert_param(IS_TIM_CLOCKFILTER(sClockSourceConfig->ClockFilter));

      TIM_TI1_ConfigInputStage(htim->Instance,
 800341a:	687b      	ldr	r3, [r7, #4]
 800341c:	6818      	ldr	r0, [r3, #0]
 800341e:	683b      	ldr	r3, [r7, #0]
 8003420:	6859      	ldr	r1, [r3, #4]
 8003422:	683b      	ldr	r3, [r7, #0]
 8003424:	68db      	ldr	r3, [r3, #12]
 8003426:	001a      	movs	r2, r3
 8003428:	f000 fac4 	bl	80039b4 <TIM_TI1_ConfigInputStage>
                               sClockSourceConfig->ClockPolarity,
                               sClockSourceConfig->ClockFilter);
      TIM_ITRx_SetConfig(htim->Instance, TIM_CLOCKSOURCE_TI1);
 800342c:	687b      	ldr	r3, [r7, #4]
 800342e:	681b      	ldr	r3, [r3, #0]
 8003430:	2150      	movs	r1, #80	; 0x50
 8003432:	0018      	movs	r0, r3
 8003434:	f000 fb1e 	bl	8003a74 <TIM_ITRx_SetConfig>
      break;
 8003438:	e02e      	b.n	8003498 <HAL_TIM_ConfigClockSource+0x184>

      /* Check TI2 input conditioning related parameters */
      assert_param(IS_TIM_CLOCKPOLARITY(sClockSourceConfig->ClockPolarity));
      assert_param(IS_TIM_CLOCKFILTER(sClockSourceConfig->ClockFilter));

      TIM_TI2_ConfigInputStage(htim->Instance,
 800343a:	687b      	ldr	r3, [r7, #4]
 800343c:	6818      	ldr	r0, [r3, #0]
 800343e:	683b      	ldr	r3, [r7, #0]
 8003440:	6859      	ldr	r1, [r3, #4]
 8003442:	683b      	ldr	r3, [r7, #0]
 8003444:	68db      	ldr	r3, [r3, #12]
 8003446:	001a      	movs	r2, r3
 8003448:	f000 fae2 	bl	8003a10 <TIM_TI2_ConfigInputStage>
                               sClockSourceConfig->ClockPolarity,
                               sClockSourceConfig->ClockFilter);
      TIM_ITRx_SetConfig(htim->Instance, TIM_CLOCKSOURCE_TI2);
 800344c:	687b      	ldr	r3, [r7, #4]
 800344e:	681b      	ldr	r3, [r3, #0]
 8003450:	2160      	movs	r1, #96	; 0x60
 8003452:	0018      	movs	r0, r3
 8003454:	f000 fb0e 	bl	8003a74 <TIM_ITRx_SetConfig>
      break;
 8003458:	e01e      	b.n	8003498 <HAL_TIM_ConfigClockSource+0x184>

      /* Check TI1 input conditioning related parameters */
      assert_param(IS_TIM_CLOCKPOLARITY(sClockSourceConfig->ClockPolarity));
      assert_param(IS_TIM_CLOCKFILTER(sClockSourceConfig->ClockFilter));

      TIM_TI1_ConfigInputStage(htim->Instance,
 800345a:	687b      	ldr	r3, [r7, #4]
 800345c:	6818      	ldr	r0, [r3, #0]
 800345e:	683b      	ldr	r3, [r7, #0]
 8003460:	6859      	ldr	r1, [r3, #4]
 8003462:	683b      	ldr	r3, [r7, #0]
 8003464:	68db      	ldr	r3, [r3, #12]
 8003466:	001a      	movs	r2, r3
 8003468:	f000 faa4 	bl	80039b4 <TIM_TI1_ConfigInputStage>
                               sClockSourceConfig->ClockPolarity,
                               sClockSourceConfig->ClockFilter);
      TIM_ITRx_SetConfig(htim->Instance, TIM_CLOCKSOURCE_TI1ED);
 800346c:	687b      	ldr	r3, [r7, #4]
 800346e:	681b      	ldr	r3, [r3, #0]
 8003470:	2140      	movs	r1, #64	; 0x40
 8003472:	0018      	movs	r0, r3
 8003474:	f000 fafe 	bl	8003a74 <TIM_ITRx_SetConfig>
      break;
 8003478:	e00e      	b.n	8003498 <HAL_TIM_ConfigClockSource+0x184>
    case TIM_CLOCKSOURCE_ITR3:
    {
      /* Check whether or not the timer instance supports internal trigger input */
      assert_param(IS_TIM_CLOCKSOURCE_ITRX_INSTANCE(htim->Instance));

      TIM_ITRx_SetConfig(htim->Instance, sClockSourceConfig->ClockSource);
 800347a:	687b      	ldr	r3, [r7, #4]
 800347c:	681a      	ldr	r2, [r3, #0]
 800347e:	683b      	ldr	r3, [r7, #0]
 8003480:	681b      	ldr	r3, [r3, #0]
 8003482:	0019      	movs	r1, r3
 8003484:	0010      	movs	r0, r2
 8003486:	f000 faf5 	bl	8003a74 <TIM_ITRx_SetConfig>
      break;
 800348a:	e005      	b.n	8003498 <HAL_TIM_ConfigClockSource+0x184>
    }

    default:
      status = HAL_ERROR;
 800348c:	230f      	movs	r3, #15
 800348e:	18fb      	adds	r3, r7, r3
 8003490:	2201      	movs	r2, #1
 8003492:	701a      	strb	r2, [r3, #0]
      break;
 8003494:	e000      	b.n	8003498 <HAL_TIM_ConfigClockSource+0x184>
      break;
 8003496:	46c0      	nop			; (mov r8, r8)
  }
  htim->State = HAL_TIM_STATE_READY;
 8003498:	687b      	ldr	r3, [r7, #4]
 800349a:	223d      	movs	r2, #61	; 0x3d
 800349c:	2101      	movs	r1, #1
 800349e:	5499      	strb	r1, [r3, r2]

  __HAL_UNLOCK(htim);
 80034a0:	687b      	ldr	r3, [r7, #4]
 80034a2:	223c      	movs	r2, #60	; 0x3c
 80034a4:	2100      	movs	r1, #0
 80034a6:	5499      	strb	r1, [r3, r2]

  return status;
 80034a8:	230f      	movs	r3, #15
 80034aa:	18fb      	adds	r3, r7, r3
 80034ac:	781b      	ldrb	r3, [r3, #0]
}
 80034ae:	0018      	movs	r0, r3
 80034b0:	46bd      	mov	sp, r7
 80034b2:	b004      	add	sp, #16
 80034b4:	bd80      	pop	{r7, pc}
 80034b6:	46c0      	nop			; (mov r8, r8)
 80034b8:	ffff00ff 	.word	0xffff00ff

080034bc <TIM_Base_SetConfig>:
  * @param  TIMx TIM peripheral
  * @param  Structure TIM Base configuration structure
  * @retval None
  */
void TIM_Base_SetConfig(TIM_TypeDef *TIMx, TIM_Base_InitTypeDef *Structure)
{
 80034bc:	b580      	push	{r7, lr}
 80034be:	b084      	sub	sp, #16
 80034c0:	af00      	add	r7, sp, #0
 80034c2:	6078      	str	r0, [r7, #4]
 80034c4:	6039      	str	r1, [r7, #0]
  uint32_t tmpcr1;
  tmpcr1 = TIMx->CR1;
 80034c6:	687b      	ldr	r3, [r7, #4]
 80034c8:	681b      	ldr	r3, [r3, #0]
 80034ca:	60fb      	str	r3, [r7, #12]

  /* Set TIM Time Base Unit parameters ---------------------------------------*/
  if (IS_TIM_COUNTER_MODE_SELECT_INSTANCE(TIMx))
 80034cc:	687b      	ldr	r3, [r7, #4]
 80034ce:	4a34      	ldr	r2, [pc, #208]	; (80035a0 <TIM_Base_SetConfig+0xe4>)
 80034d0:	4293      	cmp	r3, r2
 80034d2:	d008      	beq.n	80034e6 <TIM_Base_SetConfig+0x2a>
 80034d4:	687a      	ldr	r2, [r7, #4]
 80034d6:	2380      	movs	r3, #128	; 0x80
 80034d8:	05db      	lsls	r3, r3, #23
 80034da:	429a      	cmp	r2, r3
 80034dc:	d003      	beq.n	80034e6 <TIM_Base_SetConfig+0x2a>
 80034de:	687b      	ldr	r3, [r7, #4]
 80034e0:	4a30      	ldr	r2, [pc, #192]	; (80035a4 <TIM_Base_SetConfig+0xe8>)
 80034e2:	4293      	cmp	r3, r2
 80034e4:	d108      	bne.n	80034f8 <TIM_Base_SetConfig+0x3c>
  {
    /* Select the Counter Mode */
    tmpcr1 &= ~(TIM_CR1_DIR | TIM_CR1_CMS);
 80034e6:	68fb      	ldr	r3, [r7, #12]
 80034e8:	2270      	movs	r2, #112	; 0x70
 80034ea:	4393      	bics	r3, r2
 80034ec:	60fb      	str	r3, [r7, #12]
    tmpcr1 |= Structure->CounterMode;
 80034ee:	683b      	ldr	r3, [r7, #0]
 80034f0:	685b      	ldr	r3, [r3, #4]
 80034f2:	68fa      	ldr	r2, [r7, #12]
 80034f4:	4313      	orrs	r3, r2
 80034f6:	60fb      	str	r3, [r7, #12]
  }

  if (IS_TIM_CLOCK_DIVISION_INSTANCE(TIMx))
 80034f8:	687b      	ldr	r3, [r7, #4]
 80034fa:	4a29      	ldr	r2, [pc, #164]	; (80035a0 <TIM_Base_SetConfig+0xe4>)
 80034fc:	4293      	cmp	r3, r2
 80034fe:	d018      	beq.n	8003532 <TIM_Base_SetConfig+0x76>
 8003500:	687a      	ldr	r2, [r7, #4]
 8003502:	2380      	movs	r3, #128	; 0x80
 8003504:	05db      	lsls	r3, r3, #23
 8003506:	429a      	cmp	r2, r3
 8003508:	d013      	beq.n	8003532 <TIM_Base_SetConfig+0x76>
 800350a:	687b      	ldr	r3, [r7, #4]
 800350c:	4a25      	ldr	r2, [pc, #148]	; (80035a4 <TIM_Base_SetConfig+0xe8>)
 800350e:	4293      	cmp	r3, r2
 8003510:	d00f      	beq.n	8003532 <TIM_Base_SetConfig+0x76>
 8003512:	687b      	ldr	r3, [r7, #4]
 8003514:	4a24      	ldr	r2, [pc, #144]	; (80035a8 <TIM_Base_SetConfig+0xec>)
 8003516:	4293      	cmp	r3, r2
 8003518:	d00b      	beq.n	8003532 <TIM_Base_SetConfig+0x76>
 800351a:	687b      	ldr	r3, [r7, #4]
 800351c:	4a23      	ldr	r2, [pc, #140]	; (80035ac <TIM_Base_SetConfig+0xf0>)
 800351e:	4293      	cmp	r3, r2
 8003520:	d007      	beq.n	8003532 <TIM_Base_SetConfig+0x76>
 8003522:	687b      	ldr	r3, [r7, #4]
 8003524:	4a22      	ldr	r2, [pc, #136]	; (80035b0 <TIM_Base_SetConfig+0xf4>)
 8003526:	4293      	cmp	r3, r2
 8003528:	d003      	beq.n	8003532 <TIM_Base_SetConfig+0x76>
 800352a:	687b      	ldr	r3, [r7, #4]
 800352c:	4a21      	ldr	r2, [pc, #132]	; (80035b4 <TIM_Base_SetConfig+0xf8>)
 800352e:	4293      	cmp	r3, r2
 8003530:	d108      	bne.n	8003544 <TIM_Base_SetConfig+0x88>
  {
    /* Set the clock division */
    tmpcr1 &= ~TIM_CR1_CKD;
 8003532:	68fb      	ldr	r3, [r7, #12]
 8003534:	4a20      	ldr	r2, [pc, #128]	; (80035b8 <TIM_Base_SetConfig+0xfc>)
 8003536:	4013      	ands	r3, r2
 8003538:	60fb      	str	r3, [r7, #12]
    tmpcr1 |= (uint32_t)Structure->ClockDivision;
 800353a:	683b      	ldr	r3, [r7, #0]
 800353c:	68db      	ldr	r3, [r3, #12]
 800353e:	68fa      	ldr	r2, [r7, #12]
 8003540:	4313      	orrs	r3, r2
 8003542:	60fb      	str	r3, [r7, #12]
  }

  /* Set the auto-reload preload */
  MODIFY_REG(tmpcr1, TIM_CR1_ARPE, Structure->AutoReloadPreload);
 8003544:	68fb      	ldr	r3, [r7, #12]
 8003546:	2280      	movs	r2, #128	; 0x80
 8003548:	4393      	bics	r3, r2
 800354a:	001a      	movs	r2, r3
 800354c:	683b      	ldr	r3, [r7, #0]
 800354e:	695b      	ldr	r3, [r3, #20]
 8003550:	4313      	orrs	r3, r2
 8003552:	60fb      	str	r3, [r7, #12]

  TIMx->CR1 = tmpcr1;
 8003554:	687b      	ldr	r3, [r7, #4]
 8003556:	68fa      	ldr	r2, [r7, #12]
 8003558:	601a      	str	r2, [r3, #0]

  /* Set the Autoreload value */
  TIMx->ARR = (uint32_t)Structure->Period ;
 800355a:	683b      	ldr	r3, [r7, #0]
 800355c:	689a      	ldr	r2, [r3, #8]
 800355e:	687b      	ldr	r3, [r7, #4]
 8003560:	62da      	str	r2, [r3, #44]	; 0x2c

  /* Set the Prescaler value */
  TIMx->PSC = Structure->Prescaler;
 8003562:	683b      	ldr	r3, [r7, #0]
 8003564:	681a      	ldr	r2, [r3, #0]
 8003566:	687b      	ldr	r3, [r7, #4]
 8003568:	629a      	str	r2, [r3, #40]	; 0x28

  if (IS_TIM_REPETITION_COUNTER_INSTANCE(TIMx))
 800356a:	687b      	ldr	r3, [r7, #4]
 800356c:	4a0c      	ldr	r2, [pc, #48]	; (80035a0 <TIM_Base_SetConfig+0xe4>)
 800356e:	4293      	cmp	r3, r2
 8003570:	d00b      	beq.n	800358a <TIM_Base_SetConfig+0xce>
 8003572:	687b      	ldr	r3, [r7, #4]
 8003574:	4a0d      	ldr	r2, [pc, #52]	; (80035ac <TIM_Base_SetConfig+0xf0>)
 8003576:	4293      	cmp	r3, r2
 8003578:	d007      	beq.n	800358a <TIM_Base_SetConfig+0xce>
 800357a:	687b      	ldr	r3, [r7, #4]
 800357c:	4a0c      	ldr	r2, [pc, #48]	; (80035b0 <TIM_Base_SetConfig+0xf4>)
 800357e:	4293      	cmp	r3, r2
 8003580:	d003      	beq.n	800358a <TIM_Base_SetConfig+0xce>
 8003582:	687b      	ldr	r3, [r7, #4]
 8003584:	4a0b      	ldr	r2, [pc, #44]	; (80035b4 <TIM_Base_SetConfig+0xf8>)
 8003586:	4293      	cmp	r3, r2
 8003588:	d103      	bne.n	8003592 <TIM_Base_SetConfig+0xd6>
  {
    /* Set the Repetition Counter value */
    TIMx->RCR = Structure->RepetitionCounter;
 800358a:	683b      	ldr	r3, [r7, #0]
 800358c:	691a      	ldr	r2, [r3, #16]
 800358e:	687b      	ldr	r3, [r7, #4]
 8003590:	631a      	str	r2, [r3, #48]	; 0x30
  }

  /* Generate an update event to reload the Prescaler
     and the repetition counter (only for advanced timer) value immediately */
  TIMx->EGR = TIM_EGR_UG;
 8003592:	687b      	ldr	r3, [r7, #4]
 8003594:	2201      	movs	r2, #1
 8003596:	615a      	str	r2, [r3, #20]
}
 8003598:	46c0      	nop			; (mov r8, r8)
 800359a:	46bd      	mov	sp, r7
 800359c:	b004      	add	sp, #16
 800359e:	bd80      	pop	{r7, pc}
 80035a0:	40012c00 	.word	0x40012c00
 80035a4:	40000400 	.word	0x40000400
 80035a8:	40002000 	.word	0x40002000
 80035ac:	40014000 	.word	0x40014000
 80035b0:	40014400 	.word	0x40014400
 80035b4:	40014800 	.word	0x40014800
 80035b8:	fffffcff 	.word	0xfffffcff

080035bc <TIM_OC1_SetConfig>:
  * @param  TIMx to select the TIM peripheral
  * @param  OC_Config The output configuration structure
  * @retval None
  */
static void TIM_OC1_SetConfig(TIM_TypeDef *TIMx, TIM_OC_InitTypeDef *OC_Config)
{
 80035bc:	b580      	push	{r7, lr}
 80035be:	b086      	sub	sp, #24
 80035c0:	af00      	add	r7, sp, #0
 80035c2:	6078      	str	r0, [r7, #4]
 80035c4:	6039      	str	r1, [r7, #0]
  uint32_t tmpccmrx;
  uint32_t tmpccer;
  uint32_t tmpcr2;

  /* Disable the Channel 1: Reset the CC1E Bit */
  TIMx->CCER &= ~TIM_CCER_CC1E;
 80035c6:	687b      	ldr	r3, [r7, #4]
 80035c8:	6a1b      	ldr	r3, [r3, #32]
 80035ca:	2201      	movs	r2, #1
 80035cc:	4393      	bics	r3, r2
 80035ce:	001a      	movs	r2, r3
 80035d0:	687b      	ldr	r3, [r7, #4]
 80035d2:	621a      	str	r2, [r3, #32]

  /* Get the TIMx CCER register value */
  tmpccer = TIMx->CCER;
 80035d4:	687b      	ldr	r3, [r7, #4]
 80035d6:	6a1b      	ldr	r3, [r3, #32]
 80035d8:	617b      	str	r3, [r7, #20]
  /* Get the TIMx CR2 register value */
  tmpcr2 =  TIMx->CR2;
 80035da:	687b      	ldr	r3, [r7, #4]
 80035dc:	685b      	ldr	r3, [r3, #4]
 80035de:	613b      	str	r3, [r7, #16]

  /* Get the TIMx CCMR1 register value */
  tmpccmrx = TIMx->CCMR1;
 80035e0:	687b      	ldr	r3, [r7, #4]
 80035e2:	699b      	ldr	r3, [r3, #24]
 80035e4:	60fb      	str	r3, [r7, #12]

  /* Reset the Output Compare Mode Bits */
  tmpccmrx &= ~TIM_CCMR1_OC1M;
 80035e6:	68fb      	ldr	r3, [r7, #12]
 80035e8:	2270      	movs	r2, #112	; 0x70
 80035ea:	4393      	bics	r3, r2
 80035ec:	60fb      	str	r3, [r7, #12]
  tmpccmrx &= ~TIM_CCMR1_CC1S;
 80035ee:	68fb      	ldr	r3, [r7, #12]
 80035f0:	2203      	movs	r2, #3
 80035f2:	4393      	bics	r3, r2
 80035f4:	60fb      	str	r3, [r7, #12]
  /* Select the Output Compare Mode */
  tmpccmrx |= OC_Config->OCMode;
 80035f6:	683b      	ldr	r3, [r7, #0]
 80035f8:	681b      	ldr	r3, [r3, #0]
 80035fa:	68fa      	ldr	r2, [r7, #12]
 80035fc:	4313      	orrs	r3, r2
 80035fe:	60fb      	str	r3, [r7, #12]

  /* Reset the Output Polarity level */
  tmpccer &= ~TIM_CCER_CC1P;
 8003600:	697b      	ldr	r3, [r7, #20]
 8003602:	2202      	movs	r2, #2
 8003604:	4393      	bics	r3, r2
 8003606:	617b      	str	r3, [r7, #20]
  /* Set the Output Compare Polarity */
  tmpccer |= OC_Config->OCPolarity;
 8003608:	683b      	ldr	r3, [r7, #0]
 800360a:	689b      	ldr	r3, [r3, #8]
 800360c:	697a      	ldr	r2, [r7, #20]
 800360e:	4313      	orrs	r3, r2
 8003610:	617b      	str	r3, [r7, #20]

  if (IS_TIM_CCXN_INSTANCE(TIMx, TIM_CHANNEL_1))
 8003612:	687b      	ldr	r3, [r7, #4]
 8003614:	4a27      	ldr	r2, [pc, #156]	; (80036b4 <TIM_OC1_SetConfig+0xf8>)
 8003616:	4293      	cmp	r3, r2
 8003618:	d00b      	beq.n	8003632 <TIM_OC1_SetConfig+0x76>
 800361a:	687b      	ldr	r3, [r7, #4]
 800361c:	4a26      	ldr	r2, [pc, #152]	; (80036b8 <TIM_OC1_SetConfig+0xfc>)
 800361e:	4293      	cmp	r3, r2
 8003620:	d007      	beq.n	8003632 <TIM_OC1_SetConfig+0x76>
 8003622:	687b      	ldr	r3, [r7, #4]
 8003624:	4a25      	ldr	r2, [pc, #148]	; (80036bc <TIM_OC1_SetConfig+0x100>)
 8003626:	4293      	cmp	r3, r2
 8003628:	d003      	beq.n	8003632 <TIM_OC1_SetConfig+0x76>
 800362a:	687b      	ldr	r3, [r7, #4]
 800362c:	4a24      	ldr	r2, [pc, #144]	; (80036c0 <TIM_OC1_SetConfig+0x104>)
 800362e:	4293      	cmp	r3, r2
 8003630:	d10c      	bne.n	800364c <TIM_OC1_SetConfig+0x90>
  {
    /* Check parameters */
    assert_param(IS_TIM_OCN_POLARITY(OC_Config->OCNPolarity));

    /* Reset the Output N Polarity level */
    tmpccer &= ~TIM_CCER_CC1NP;
 8003632:	697b      	ldr	r3, [r7, #20]
 8003634:	2208      	movs	r2, #8
 8003636:	4393      	bics	r3, r2
 8003638:	617b      	str	r3, [r7, #20]
    /* Set the Output N Polarity */
    tmpccer |= OC_Config->OCNPolarity;
 800363a:	683b      	ldr	r3, [r7, #0]
 800363c:	68db      	ldr	r3, [r3, #12]
 800363e:	697a      	ldr	r2, [r7, #20]
 8003640:	4313      	orrs	r3, r2
 8003642:	617b      	str	r3, [r7, #20]
    /* Reset the Output N State */
    tmpccer &= ~TIM_CCER_CC1NE;
 8003644:	697b      	ldr	r3, [r7, #20]
 8003646:	2204      	movs	r2, #4
 8003648:	4393      	bics	r3, r2
 800364a:	617b      	str	r3, [r7, #20]
  }

  if (IS_TIM_BREAK_INSTANCE(TIMx))
 800364c:	687b      	ldr	r3, [r7, #4]
 800364e:	4a19      	ldr	r2, [pc, #100]	; (80036b4 <TIM_OC1_SetConfig+0xf8>)
 8003650:	4293      	cmp	r3, r2
 8003652:	d00b      	beq.n	800366c <TIM_OC1_SetConfig+0xb0>
 8003654:	687b      	ldr	r3, [r7, #4]
 8003656:	4a18      	ldr	r2, [pc, #96]	; (80036b8 <TIM_OC1_SetConfig+0xfc>)
 8003658:	4293      	cmp	r3, r2
 800365a:	d007      	beq.n	800366c <TIM_OC1_SetConfig+0xb0>
 800365c:	687b      	ldr	r3, [r7, #4]
 800365e:	4a17      	ldr	r2, [pc, #92]	; (80036bc <TIM_OC1_SetConfig+0x100>)
 8003660:	4293      	cmp	r3, r2
 8003662:	d003      	beq.n	800366c <TIM_OC1_SetConfig+0xb0>
 8003664:	687b      	ldr	r3, [r7, #4]
 8003666:	4a16      	ldr	r2, [pc, #88]	; (80036c0 <TIM_OC1_SetConfig+0x104>)
 8003668:	4293      	cmp	r3, r2
 800366a:	d111      	bne.n	8003690 <TIM_OC1_SetConfig+0xd4>
    /* Check parameters */
    assert_param(IS_TIM_OCNIDLE_STATE(OC_Config->OCNIdleState));
    assert_param(IS_TIM_OCIDLE_STATE(OC_Config->OCIdleState));

    /* Reset the Output Compare and Output Compare N IDLE State */
    tmpcr2 &= ~TIM_CR2_OIS1;
 800366c:	693b      	ldr	r3, [r7, #16]
 800366e:	4a15      	ldr	r2, [pc, #84]	; (80036c4 <TIM_OC1_SetConfig+0x108>)
 8003670:	4013      	ands	r3, r2
 8003672:	613b      	str	r3, [r7, #16]
    tmpcr2 &= ~TIM_CR2_OIS1N;
 8003674:	693b      	ldr	r3, [r7, #16]
 8003676:	4a14      	ldr	r2, [pc, #80]	; (80036c8 <TIM_OC1_SetConfig+0x10c>)
 8003678:	4013      	ands	r3, r2
 800367a:	613b      	str	r3, [r7, #16]
    /* Set the Output Idle state */
    tmpcr2 |= OC_Config->OCIdleState;
 800367c:	683b      	ldr	r3, [r7, #0]
 800367e:	695b      	ldr	r3, [r3, #20]
 8003680:	693a      	ldr	r2, [r7, #16]
 8003682:	4313      	orrs	r3, r2
 8003684:	613b      	str	r3, [r7, #16]
    /* Set the Output N Idle state */
    tmpcr2 |= OC_Config->OCNIdleState;
 8003686:	683b      	ldr	r3, [r7, #0]
 8003688:	699b      	ldr	r3, [r3, #24]
 800368a:	693a      	ldr	r2, [r7, #16]
 800368c:	4313      	orrs	r3, r2
 800368e:	613b      	str	r3, [r7, #16]
  }

  /* Write to TIMx CR2 */
  TIMx->CR2 = tmpcr2;
 8003690:	687b      	ldr	r3, [r7, #4]
 8003692:	693a      	ldr	r2, [r7, #16]
 8003694:	605a      	str	r2, [r3, #4]

  /* Write to TIMx CCMR1 */
  TIMx->CCMR1 = tmpccmrx;
 8003696:	687b      	ldr	r3, [r7, #4]
 8003698:	68fa      	ldr	r2, [r7, #12]
 800369a:	619a      	str	r2, [r3, #24]

  /* Set the Capture Compare Register value */
  TIMx->CCR1 = OC_Config->Pulse;
 800369c:	683b      	ldr	r3, [r7, #0]
 800369e:	685a      	ldr	r2, [r3, #4]
 80036a0:	687b      	ldr	r3, [r7, #4]
 80036a2:	635a      	str	r2, [r3, #52]	; 0x34

  /* Write to TIMx CCER */
  TIMx->CCER = tmpccer;
 80036a4:	687b      	ldr	r3, [r7, #4]
 80036a6:	697a      	ldr	r2, [r7, #20]
 80036a8:	621a      	str	r2, [r3, #32]
}
 80036aa:	46c0      	nop			; (mov r8, r8)
 80036ac:	46bd      	mov	sp, r7
 80036ae:	b006      	add	sp, #24
 80036b0:	bd80      	pop	{r7, pc}
 80036b2:	46c0      	nop			; (mov r8, r8)
 80036b4:	40012c00 	.word	0x40012c00
 80036b8:	40014000 	.word	0x40014000
 80036bc:	40014400 	.word	0x40014400
 80036c0:	40014800 	.word	0x40014800
 80036c4:	fffffeff 	.word	0xfffffeff
 80036c8:	fffffdff 	.word	0xfffffdff

080036cc <TIM_OC2_SetConfig>:
  * @param  TIMx to select the TIM peripheral
  * @param  OC_Config The output configuration structure
  * @retval None
  */
void TIM_OC2_SetConfig(TIM_TypeDef *TIMx, TIM_OC_InitTypeDef *OC_Config)
{
 80036cc:	b580      	push	{r7, lr}
 80036ce:	b086      	sub	sp, #24
 80036d0:	af00      	add	r7, sp, #0
 80036d2:	6078      	str	r0, [r7, #4]
 80036d4:	6039      	str	r1, [r7, #0]
  uint32_t tmpccmrx;
  uint32_t tmpccer;
  uint32_t tmpcr2;

  /* Disable the Channel 2: Reset the CC2E Bit */
  TIMx->CCER &= ~TIM_CCER_CC2E;
 80036d6:	687b      	ldr	r3, [r7, #4]
 80036d8:	6a1b      	ldr	r3, [r3, #32]
 80036da:	2210      	movs	r2, #16
 80036dc:	4393      	bics	r3, r2
 80036de:	001a      	movs	r2, r3
 80036e0:	687b      	ldr	r3, [r7, #4]
 80036e2:	621a      	str	r2, [r3, #32]

  /* Get the TIMx CCER register value */
  tmpccer = TIMx->CCER;
 80036e4:	687b      	ldr	r3, [r7, #4]
 80036e6:	6a1b      	ldr	r3, [r3, #32]
 80036e8:	617b      	str	r3, [r7, #20]
  /* Get the TIMx CR2 register value */
  tmpcr2 =  TIMx->CR2;
 80036ea:	687b      	ldr	r3, [r7, #4]
 80036ec:	685b      	ldr	r3, [r3, #4]
 80036ee:	613b      	str	r3, [r7, #16]

  /* Get the TIMx CCMR1 register value */
  tmpccmrx = TIMx->CCMR1;
 80036f0:	687b      	ldr	r3, [r7, #4]
 80036f2:	699b      	ldr	r3, [r3, #24]
 80036f4:	60fb      	str	r3, [r7, #12]

  /* Reset the Output Compare mode and Capture/Compare selection Bits */
  tmpccmrx &= ~TIM_CCMR1_OC2M;
 80036f6:	68fb      	ldr	r3, [r7, #12]
 80036f8:	4a2e      	ldr	r2, [pc, #184]	; (80037b4 <TIM_OC2_SetConfig+0xe8>)
 80036fa:	4013      	ands	r3, r2
 80036fc:	60fb      	str	r3, [r7, #12]
  tmpccmrx &= ~TIM_CCMR1_CC2S;
 80036fe:	68fb      	ldr	r3, [r7, #12]
 8003700:	4a2d      	ldr	r2, [pc, #180]	; (80037b8 <TIM_OC2_SetConfig+0xec>)
 8003702:	4013      	ands	r3, r2
 8003704:	60fb      	str	r3, [r7, #12]

  /* Select the Output Compare Mode */
  tmpccmrx |= (OC_Config->OCMode << 8U);
 8003706:	683b      	ldr	r3, [r7, #0]
 8003708:	681b      	ldr	r3, [r3, #0]
 800370a:	021b      	lsls	r3, r3, #8
 800370c:	68fa      	ldr	r2, [r7, #12]
 800370e:	4313      	orrs	r3, r2
 8003710:	60fb      	str	r3, [r7, #12]

  /* Reset the Output Polarity level */
  tmpccer &= ~TIM_CCER_CC2P;
 8003712:	697b      	ldr	r3, [r7, #20]
 8003714:	2220      	movs	r2, #32
 8003716:	4393      	bics	r3, r2
 8003718:	617b      	str	r3, [r7, #20]
  /* Set the Output Compare Polarity */
  tmpccer |= (OC_Config->OCPolarity << 4U);
 800371a:	683b      	ldr	r3, [r7, #0]
 800371c:	689b      	ldr	r3, [r3, #8]
 800371e:	011b      	lsls	r3, r3, #4
 8003720:	697a      	ldr	r2, [r7, #20]
 8003722:	4313      	orrs	r3, r2
 8003724:	617b      	str	r3, [r7, #20]

  if (IS_TIM_CCXN_INSTANCE(TIMx, TIM_CHANNEL_2))
 8003726:	687b      	ldr	r3, [r7, #4]
 8003728:	4a24      	ldr	r2, [pc, #144]	; (80037bc <TIM_OC2_SetConfig+0xf0>)
 800372a:	4293      	cmp	r3, r2
 800372c:	d10d      	bne.n	800374a <TIM_OC2_SetConfig+0x7e>
  {
    assert_param(IS_TIM_OCN_POLARITY(OC_Config->OCNPolarity));

    /* Reset the Output N Polarity level */
    tmpccer &= ~TIM_CCER_CC2NP;
 800372e:	697b      	ldr	r3, [r7, #20]
 8003730:	2280      	movs	r2, #128	; 0x80
 8003732:	4393      	bics	r3, r2
 8003734:	617b      	str	r3, [r7, #20]
    /* Set the Output N Polarity */
    tmpccer |= (OC_Config->OCNPolarity << 4U);
 8003736:	683b      	ldr	r3, [r7, #0]
 8003738:	68db      	ldr	r3, [r3, #12]
 800373a:	011b      	lsls	r3, r3, #4
 800373c:	697a      	ldr	r2, [r7, #20]
 800373e:	4313      	orrs	r3, r2
 8003740:	617b      	str	r3, [r7, #20]
    /* Reset the Output N State */
    tmpccer &= ~TIM_CCER_CC2NE;
 8003742:	697b      	ldr	r3, [r7, #20]
 8003744:	2240      	movs	r2, #64	; 0x40
 8003746:	4393      	bics	r3, r2
 8003748:	617b      	str	r3, [r7, #20]

  }

  if (IS_TIM_BREAK_INSTANCE(TIMx))
 800374a:	687b      	ldr	r3, [r7, #4]
 800374c:	4a1b      	ldr	r2, [pc, #108]	; (80037bc <TIM_OC2_SetConfig+0xf0>)
 800374e:	4293      	cmp	r3, r2
 8003750:	d00b      	beq.n	800376a <TIM_OC2_SetConfig+0x9e>
 8003752:	687b      	ldr	r3, [r7, #4]
 8003754:	4a1a      	ldr	r2, [pc, #104]	; (80037c0 <TIM_OC2_SetConfig+0xf4>)
 8003756:	4293      	cmp	r3, r2
 8003758:	d007      	beq.n	800376a <TIM_OC2_SetConfig+0x9e>
 800375a:	687b      	ldr	r3, [r7, #4]
 800375c:	4a19      	ldr	r2, [pc, #100]	; (80037c4 <TIM_OC2_SetConfig+0xf8>)
 800375e:	4293      	cmp	r3, r2
 8003760:	d003      	beq.n	800376a <TIM_OC2_SetConfig+0x9e>
 8003762:	687b      	ldr	r3, [r7, #4]
 8003764:	4a18      	ldr	r2, [pc, #96]	; (80037c8 <TIM_OC2_SetConfig+0xfc>)
 8003766:	4293      	cmp	r3, r2
 8003768:	d113      	bne.n	8003792 <TIM_OC2_SetConfig+0xc6>
    /* Check parameters */
    assert_param(IS_TIM_OCNIDLE_STATE(OC_Config->OCNIdleState));
    assert_param(IS_TIM_OCIDLE_STATE(OC_Config->OCIdleState));

    /* Reset the Output Compare and Output Compare N IDLE State */
    tmpcr2 &= ~TIM_CR2_OIS2;
 800376a:	693b      	ldr	r3, [r7, #16]
 800376c:	4a17      	ldr	r2, [pc, #92]	; (80037cc <TIM_OC2_SetConfig+0x100>)
 800376e:	4013      	ands	r3, r2
 8003770:	613b      	str	r3, [r7, #16]
    tmpcr2 &= ~TIM_CR2_OIS2N;
 8003772:	693b      	ldr	r3, [r7, #16]
 8003774:	4a16      	ldr	r2, [pc, #88]	; (80037d0 <TIM_OC2_SetConfig+0x104>)
 8003776:	4013      	ands	r3, r2
 8003778:	613b      	str	r3, [r7, #16]
    /* Set the Output Idle state */
    tmpcr2 |= (OC_Config->OCIdleState << 2U);
 800377a:	683b      	ldr	r3, [r7, #0]
 800377c:	695b      	ldr	r3, [r3, #20]
 800377e:	009b      	lsls	r3, r3, #2
 8003780:	693a      	ldr	r2, [r7, #16]
 8003782:	4313      	orrs	r3, r2
 8003784:	613b      	str	r3, [r7, #16]
    /* Set the Output N Idle state */
    tmpcr2 |= (OC_Config->OCNIdleState << 2U);
 8003786:	683b      	ldr	r3, [r7, #0]
 8003788:	699b      	ldr	r3, [r3, #24]
 800378a:	009b      	lsls	r3, r3, #2
 800378c:	693a      	ldr	r2, [r7, #16]
 800378e:	4313      	orrs	r3, r2
 8003790:	613b      	str	r3, [r7, #16]
  }

  /* Write to TIMx CR2 */
  TIMx->CR2 = tmpcr2;
 8003792:	687b      	ldr	r3, [r7, #4]
 8003794:	693a      	ldr	r2, [r7, #16]
 8003796:	605a      	str	r2, [r3, #4]

  /* Write to TIMx CCMR1 */
  TIMx->CCMR1 = tmpccmrx;
 8003798:	687b      	ldr	r3, [r7, #4]
 800379a:	68fa      	ldr	r2, [r7, #12]
 800379c:	619a      	str	r2, [r3, #24]

  /* Set the Capture Compare Register value */
  TIMx->CCR2 = OC_Config->Pulse;
 800379e:	683b      	ldr	r3, [r7, #0]
 80037a0:	685a      	ldr	r2, [r3, #4]
 80037a2:	687b      	ldr	r3, [r7, #4]
 80037a4:	639a      	str	r2, [r3, #56]	; 0x38

  /* Write to TIMx CCER */
  TIMx->CCER = tmpccer;
 80037a6:	687b      	ldr	r3, [r7, #4]
 80037a8:	697a      	ldr	r2, [r7, #20]
 80037aa:	621a      	str	r2, [r3, #32]
}
 80037ac:	46c0      	nop			; (mov r8, r8)
 80037ae:	46bd      	mov	sp, r7
 80037b0:	b006      	add	sp, #24
 80037b2:	bd80      	pop	{r7, pc}
 80037b4:	ffff8fff 	.word	0xffff8fff
 80037b8:	fffffcff 	.word	0xfffffcff
 80037bc:	40012c00 	.word	0x40012c00
 80037c0:	40014000 	.word	0x40014000
 80037c4:	40014400 	.word	0x40014400
 80037c8:	40014800 	.word	0x40014800
 80037cc:	fffffbff 	.word	0xfffffbff
 80037d0:	fffff7ff 	.word	0xfffff7ff

080037d4 <TIM_OC3_SetConfig>:
  * @param  TIMx to select the TIM peripheral
  * @param  OC_Config The output configuration structure
  * @retval None
  */
static void TIM_OC3_SetConfig(TIM_TypeDef *TIMx, TIM_OC_InitTypeDef *OC_Config)
{
 80037d4:	b580      	push	{r7, lr}
 80037d6:	b086      	sub	sp, #24
 80037d8:	af00      	add	r7, sp, #0
 80037da:	6078      	str	r0, [r7, #4]
 80037dc:	6039      	str	r1, [r7, #0]
  uint32_t tmpccmrx;
  uint32_t tmpccer;
  uint32_t tmpcr2;

  /* Disable the Channel 3: Reset the CC2E Bit */
  TIMx->CCER &= ~TIM_CCER_CC3E;
 80037de:	687b      	ldr	r3, [r7, #4]
 80037e0:	6a1b      	ldr	r3, [r3, #32]
 80037e2:	4a35      	ldr	r2, [pc, #212]	; (80038b8 <TIM_OC3_SetConfig+0xe4>)
 80037e4:	401a      	ands	r2, r3
 80037e6:	687b      	ldr	r3, [r7, #4]
 80037e8:	621a      	str	r2, [r3, #32]

  /* Get the TIMx CCER register value */
  tmpccer = TIMx->CCER;
 80037ea:	687b      	ldr	r3, [r7, #4]
 80037ec:	6a1b      	ldr	r3, [r3, #32]
 80037ee:	617b      	str	r3, [r7, #20]
  /* Get the TIMx CR2 register value */
  tmpcr2 =  TIMx->CR2;
 80037f0:	687b      	ldr	r3, [r7, #4]
 80037f2:	685b      	ldr	r3, [r3, #4]
 80037f4:	613b      	str	r3, [r7, #16]

  /* Get the TIMx CCMR2 register value */
  tmpccmrx = TIMx->CCMR2;
 80037f6:	687b      	ldr	r3, [r7, #4]
 80037f8:	69db      	ldr	r3, [r3, #28]
 80037fa:	60fb      	str	r3, [r7, #12]

  /* Reset the Output Compare mode and Capture/Compare selection Bits */
  tmpccmrx &= ~TIM_CCMR2_OC3M;
 80037fc:	68fb      	ldr	r3, [r7, #12]
 80037fe:	2270      	movs	r2, #112	; 0x70
 8003800:	4393      	bics	r3, r2
 8003802:	60fb      	str	r3, [r7, #12]
  tmpccmrx &= ~TIM_CCMR2_CC3S;
 8003804:	68fb      	ldr	r3, [r7, #12]
 8003806:	2203      	movs	r2, #3
 8003808:	4393      	bics	r3, r2
 800380a:	60fb      	str	r3, [r7, #12]
  /* Select the Output Compare Mode */
  tmpccmrx |= OC_Config->OCMode;
 800380c:	683b      	ldr	r3, [r7, #0]
 800380e:	681b      	ldr	r3, [r3, #0]
 8003810:	68fa      	ldr	r2, [r7, #12]
 8003812:	4313      	orrs	r3, r2
 8003814:	60fb      	str	r3, [r7, #12]

  /* Reset the Output Polarity level */
  tmpccer &= ~TIM_CCER_CC3P;
 8003816:	697b      	ldr	r3, [r7, #20]
 8003818:	4a28      	ldr	r2, [pc, #160]	; (80038bc <TIM_OC3_SetConfig+0xe8>)
 800381a:	4013      	ands	r3, r2
 800381c:	617b      	str	r3, [r7, #20]
  /* Set the Output Compare Polarity */
  tmpccer |= (OC_Config->OCPolarity << 8U);
 800381e:	683b      	ldr	r3, [r7, #0]
 8003820:	689b      	ldr	r3, [r3, #8]
 8003822:	021b      	lsls	r3, r3, #8
 8003824:	697a      	ldr	r2, [r7, #20]
 8003826:	4313      	orrs	r3, r2
 8003828:	617b      	str	r3, [r7, #20]

  if (IS_TIM_CCXN_INSTANCE(TIMx, TIM_CHANNEL_3))
 800382a:	687b      	ldr	r3, [r7, #4]
 800382c:	4a24      	ldr	r2, [pc, #144]	; (80038c0 <TIM_OC3_SetConfig+0xec>)
 800382e:	4293      	cmp	r3, r2
 8003830:	d10d      	bne.n	800384e <TIM_OC3_SetConfig+0x7a>
  {
    assert_param(IS_TIM_OCN_POLARITY(OC_Config->OCNPolarity));

    /* Reset the Output N Polarity level */
    tmpccer &= ~TIM_CCER_CC3NP;
 8003832:	697b      	ldr	r3, [r7, #20]
 8003834:	4a23      	ldr	r2, [pc, #140]	; (80038c4 <TIM_OC3_SetConfig+0xf0>)
 8003836:	4013      	ands	r3, r2
 8003838:	617b      	str	r3, [r7, #20]
    /* Set the Output N Polarity */
    tmpccer |= (OC_Config->OCNPolarity << 8U);
 800383a:	683b      	ldr	r3, [r7, #0]
 800383c:	68db      	ldr	r3, [r3, #12]
 800383e:	021b      	lsls	r3, r3, #8
 8003840:	697a      	ldr	r2, [r7, #20]
 8003842:	4313      	orrs	r3, r2
 8003844:	617b      	str	r3, [r7, #20]
    /* Reset the Output N State */
    tmpccer &= ~TIM_CCER_CC3NE;
 8003846:	697b      	ldr	r3, [r7, #20]
 8003848:	4a1f      	ldr	r2, [pc, #124]	; (80038c8 <TIM_OC3_SetConfig+0xf4>)
 800384a:	4013      	ands	r3, r2
 800384c:	617b      	str	r3, [r7, #20]
  }

  if (IS_TIM_BREAK_INSTANCE(TIMx))
 800384e:	687b      	ldr	r3, [r7, #4]
 8003850:	4a1b      	ldr	r2, [pc, #108]	; (80038c0 <TIM_OC3_SetConfig+0xec>)
 8003852:	4293      	cmp	r3, r2
 8003854:	d00b      	beq.n	800386e <TIM_OC3_SetConfig+0x9a>
 8003856:	687b      	ldr	r3, [r7, #4]
 8003858:	4a1c      	ldr	r2, [pc, #112]	; (80038cc <TIM_OC3_SetConfig+0xf8>)
 800385a:	4293      	cmp	r3, r2
 800385c:	d007      	beq.n	800386e <TIM_OC3_SetConfig+0x9a>
 800385e:	687b      	ldr	r3, [r7, #4]
 8003860:	4a1b      	ldr	r2, [pc, #108]	; (80038d0 <TIM_OC3_SetConfig+0xfc>)
 8003862:	4293      	cmp	r3, r2
 8003864:	d003      	beq.n	800386e <TIM_OC3_SetConfig+0x9a>
 8003866:	687b      	ldr	r3, [r7, #4]
 8003868:	4a1a      	ldr	r2, [pc, #104]	; (80038d4 <TIM_OC3_SetConfig+0x100>)
 800386a:	4293      	cmp	r3, r2
 800386c:	d113      	bne.n	8003896 <TIM_OC3_SetConfig+0xc2>
    /* Check parameters */
    assert_param(IS_TIM_OCNIDLE_STATE(OC_Config->OCNIdleState));
    assert_param(IS_TIM_OCIDLE_STATE(OC_Config->OCIdleState));

    /* Reset the Output Compare and Output Compare N IDLE State */
    tmpcr2 &= ~TIM_CR2_OIS3;
 800386e:	693b      	ldr	r3, [r7, #16]
 8003870:	4a19      	ldr	r2, [pc, #100]	; (80038d8 <TIM_OC3_SetConfig+0x104>)
 8003872:	4013      	ands	r3, r2
 8003874:	613b      	str	r3, [r7, #16]
    tmpcr2 &= ~TIM_CR2_OIS3N;
 8003876:	693b      	ldr	r3, [r7, #16]
 8003878:	4a18      	ldr	r2, [pc, #96]	; (80038dc <TIM_OC3_SetConfig+0x108>)
 800387a:	4013      	ands	r3, r2
 800387c:	613b      	str	r3, [r7, #16]
    /* Set the Output Idle state */
    tmpcr2 |= (OC_Config->OCIdleState << 4U);
 800387e:	683b      	ldr	r3, [r7, #0]
 8003880:	695b      	ldr	r3, [r3, #20]
 8003882:	011b      	lsls	r3, r3, #4
 8003884:	693a      	ldr	r2, [r7, #16]
 8003886:	4313      	orrs	r3, r2
 8003888:	613b      	str	r3, [r7, #16]
    /* Set the Output N Idle state */
    tmpcr2 |= (OC_Config->OCNIdleState << 4U);
 800388a:	683b      	ldr	r3, [r7, #0]
 800388c:	699b      	ldr	r3, [r3, #24]
 800388e:	011b      	lsls	r3, r3, #4
 8003890:	693a      	ldr	r2, [r7, #16]
 8003892:	4313      	orrs	r3, r2
 8003894:	613b      	str	r3, [r7, #16]
  }

  /* Write to TIMx CR2 */
  TIMx->CR2 = tmpcr2;
 8003896:	687b      	ldr	r3, [r7, #4]
 8003898:	693a      	ldr	r2, [r7, #16]
 800389a:	605a      	str	r2, [r3, #4]

  /* Write to TIMx CCMR2 */
  TIMx->CCMR2 = tmpccmrx;
 800389c:	687b      	ldr	r3, [r7, #4]
 800389e:	68fa      	ldr	r2, [r7, #12]
 80038a0:	61da      	str	r2, [r3, #28]

  /* Set the Capture Compare Register value */
  TIMx->CCR3 = OC_Config->Pulse;
 80038a2:	683b      	ldr	r3, [r7, #0]
 80038a4:	685a      	ldr	r2, [r3, #4]
 80038a6:	687b      	ldr	r3, [r7, #4]
 80038a8:	63da      	str	r2, [r3, #60]	; 0x3c

  /* Write to TIMx CCER */
  TIMx->CCER = tmpccer;
 80038aa:	687b      	ldr	r3, [r7, #4]
 80038ac:	697a      	ldr	r2, [r7, #20]
 80038ae:	621a      	str	r2, [r3, #32]
}
 80038b0:	46c0      	nop			; (mov r8, r8)
 80038b2:	46bd      	mov	sp, r7
 80038b4:	b006      	add	sp, #24
 80038b6:	bd80      	pop	{r7, pc}
 80038b8:	fffffeff 	.word	0xfffffeff
 80038bc:	fffffdff 	.word	0xfffffdff
 80038c0:	40012c00 	.word	0x40012c00
 80038c4:	fffff7ff 	.word	0xfffff7ff
 80038c8:	fffffbff 	.word	0xfffffbff
 80038cc:	40014000 	.word	0x40014000
 80038d0:	40014400 	.word	0x40014400
 80038d4:	40014800 	.word	0x40014800
 80038d8:	ffffefff 	.word	0xffffefff
 80038dc:	ffffdfff 	.word	0xffffdfff

080038e0 <TIM_OC4_SetConfig>:
  * @param  TIMx to select the TIM peripheral
  * @param  OC_Config The output configuration structure
  * @retval None
  */
static void TIM_OC4_SetConfig(TIM_TypeDef *TIMx, TIM_OC_InitTypeDef *OC_Config)
{
 80038e0:	b580      	push	{r7, lr}
 80038e2:	b086      	sub	sp, #24
 80038e4:	af00      	add	r7, sp, #0
 80038e6:	6078      	str	r0, [r7, #4]
 80038e8:	6039      	str	r1, [r7, #0]
  uint32_t tmpccmrx;
  uint32_t tmpccer;
  uint32_t tmpcr2;

  /* Disable the Channel 4: Reset the CC4E Bit */
  TIMx->CCER &= ~TIM_CCER_CC4E;
 80038ea:	687b      	ldr	r3, [r7, #4]
 80038ec:	6a1b      	ldr	r3, [r3, #32]
 80038ee:	4a28      	ldr	r2, [pc, #160]	; (8003990 <TIM_OC4_SetConfig+0xb0>)
 80038f0:	401a      	ands	r2, r3
 80038f2:	687b      	ldr	r3, [r7, #4]
 80038f4:	621a      	str	r2, [r3, #32]

  /* Get the TIMx CCER register value */
  tmpccer = TIMx->CCER;
 80038f6:	687b      	ldr	r3, [r7, #4]
 80038f8:	6a1b      	ldr	r3, [r3, #32]
 80038fa:	613b      	str	r3, [r7, #16]
  /* Get the TIMx CR2 register value */
  tmpcr2 =  TIMx->CR2;
 80038fc:	687b      	ldr	r3, [r7, #4]
 80038fe:	685b      	ldr	r3, [r3, #4]
 8003900:	617b      	str	r3, [r7, #20]

  /* Get the TIMx CCMR2 register value */
  tmpccmrx = TIMx->CCMR2;
 8003902:	687b      	ldr	r3, [r7, #4]
 8003904:	69db      	ldr	r3, [r3, #28]
 8003906:	60fb      	str	r3, [r7, #12]

  /* Reset the Output Compare mode and Capture/Compare selection Bits */
  tmpccmrx &= ~TIM_CCMR2_OC4M;
 8003908:	68fb      	ldr	r3, [r7, #12]
 800390a:	4a22      	ldr	r2, [pc, #136]	; (8003994 <TIM_OC4_SetConfig+0xb4>)
 800390c:	4013      	ands	r3, r2
 800390e:	60fb      	str	r3, [r7, #12]
  tmpccmrx &= ~TIM_CCMR2_CC4S;
 8003910:	68fb      	ldr	r3, [r7, #12]
 8003912:	4a21      	ldr	r2, [pc, #132]	; (8003998 <TIM_OC4_SetConfig+0xb8>)
 8003914:	4013      	ands	r3, r2
 8003916:	60fb      	str	r3, [r7, #12]

  /* Select the Output Compare Mode */
  tmpccmrx |= (OC_Config->OCMode << 8U);
 8003918:	683b      	ldr	r3, [r7, #0]
 800391a:	681b      	ldr	r3, [r3, #0]
 800391c:	021b      	lsls	r3, r3, #8
 800391e:	68fa      	ldr	r2, [r7, #12]
 8003920:	4313      	orrs	r3, r2
 8003922:	60fb      	str	r3, [r7, #12]

  /* Reset the Output Polarity level */
  tmpccer &= ~TIM_CCER_CC4P;
 8003924:	693b      	ldr	r3, [r7, #16]
 8003926:	4a1d      	ldr	r2, [pc, #116]	; (800399c <TIM_OC4_SetConfig+0xbc>)
 8003928:	4013      	ands	r3, r2
 800392a:	613b      	str	r3, [r7, #16]
  /* Set the Output Compare Polarity */
  tmpccer |= (OC_Config->OCPolarity << 12U);
 800392c:	683b      	ldr	r3, [r7, #0]
 800392e:	689b      	ldr	r3, [r3, #8]
 8003930:	031b      	lsls	r3, r3, #12
 8003932:	693a      	ldr	r2, [r7, #16]
 8003934:	4313      	orrs	r3, r2
 8003936:	613b      	str	r3, [r7, #16]

  if (IS_TIM_BREAK_INSTANCE(TIMx))
 8003938:	687b      	ldr	r3, [r7, #4]
 800393a:	4a19      	ldr	r2, [pc, #100]	; (80039a0 <TIM_OC4_SetConfig+0xc0>)
 800393c:	4293      	cmp	r3, r2
 800393e:	d00b      	beq.n	8003958 <TIM_OC4_SetConfig+0x78>
 8003940:	687b      	ldr	r3, [r7, #4]
 8003942:	4a18      	ldr	r2, [pc, #96]	; (80039a4 <TIM_OC4_SetConfig+0xc4>)
 8003944:	4293      	cmp	r3, r2
 8003946:	d007      	beq.n	8003958 <TIM_OC4_SetConfig+0x78>
 8003948:	687b      	ldr	r3, [r7, #4]
 800394a:	4a17      	ldr	r2, [pc, #92]	; (80039a8 <TIM_OC4_SetConfig+0xc8>)
 800394c:	4293      	cmp	r3, r2
 800394e:	d003      	beq.n	8003958 <TIM_OC4_SetConfig+0x78>
 8003950:	687b      	ldr	r3, [r7, #4]
 8003952:	4a16      	ldr	r2, [pc, #88]	; (80039ac <TIM_OC4_SetConfig+0xcc>)
 8003954:	4293      	cmp	r3, r2
 8003956:	d109      	bne.n	800396c <TIM_OC4_SetConfig+0x8c>
  {
    /* Check parameters */
    assert_param(IS_TIM_OCIDLE_STATE(OC_Config->OCIdleState));

    /* Reset the Output Compare IDLE State */
    tmpcr2 &= ~TIM_CR2_OIS4;
 8003958:	697b      	ldr	r3, [r7, #20]
 800395a:	4a15      	ldr	r2, [pc, #84]	; (80039b0 <TIM_OC4_SetConfig+0xd0>)
 800395c:	4013      	ands	r3, r2
 800395e:	617b      	str	r3, [r7, #20]

    /* Set the Output Idle state */
    tmpcr2 |= (OC_Config->OCIdleState << 6U);
 8003960:	683b      	ldr	r3, [r7, #0]
 8003962:	695b      	ldr	r3, [r3, #20]
 8003964:	019b      	lsls	r3, r3, #6
 8003966:	697a      	ldr	r2, [r7, #20]
 8003968:	4313      	orrs	r3, r2
 800396a:	617b      	str	r3, [r7, #20]
  }

  /* Write to TIMx CR2 */
  TIMx->CR2 = tmpcr2;
 800396c:	687b      	ldr	r3, [r7, #4]
 800396e:	697a      	ldr	r2, [r7, #20]
 8003970:	605a      	str	r2, [r3, #4]

  /* Write to TIMx CCMR2 */
  TIMx->CCMR2 = tmpccmrx;
 8003972:	687b      	ldr	r3, [r7, #4]
 8003974:	68fa      	ldr	r2, [r7, #12]
 8003976:	61da      	str	r2, [r3, #28]

  /* Set the Capture Compare Register value */
  TIMx->CCR4 = OC_Config->Pulse;
 8003978:	683b      	ldr	r3, [r7, #0]
 800397a:	685a      	ldr	r2, [r3, #4]
 800397c:	687b      	ldr	r3, [r7, #4]
 800397e:	641a      	str	r2, [r3, #64]	; 0x40

  /* Write to TIMx CCER */
  TIMx->CCER = tmpccer;
 8003980:	687b      	ldr	r3, [r7, #4]
 8003982:	693a      	ldr	r2, [r7, #16]
 8003984:	621a      	str	r2, [r3, #32]
}
 8003986:	46c0      	nop			; (mov r8, r8)
 8003988:	46bd      	mov	sp, r7
 800398a:	b006      	add	sp, #24
 800398c:	bd80      	pop	{r7, pc}
 800398e:	46c0      	nop			; (mov r8, r8)
 8003990:	ffffefff 	.word	0xffffefff
 8003994:	ffff8fff 	.word	0xffff8fff
 8003998:	fffffcff 	.word	0xfffffcff
 800399c:	ffffdfff 	.word	0xffffdfff
 80039a0:	40012c00 	.word	0x40012c00
 80039a4:	40014000 	.word	0x40014000
 80039a8:	40014400 	.word	0x40014400
 80039ac:	40014800 	.word	0x40014800
 80039b0:	ffffbfff 	.word	0xffffbfff

080039b4 <TIM_TI1_ConfigInputStage>:
  * @param  TIM_ICFilter Specifies the Input Capture Filter.
  *          This parameter must be a value between 0x00 and 0x0F.
  * @retval None
  */
static void TIM_TI1_ConfigInputStage(TIM_TypeDef *TIMx, uint32_t TIM_ICPolarity, uint32_t TIM_ICFilter)
{
 80039b4:	b580      	push	{r7, lr}
 80039b6:	b086      	sub	sp, #24
 80039b8:	af00      	add	r7, sp, #0
 80039ba:	60f8      	str	r0, [r7, #12]
 80039bc:	60b9      	str	r1, [r7, #8]
 80039be:	607a      	str	r2, [r7, #4]
  uint32_t tmpccmr1;
  uint32_t tmpccer;

  /* Disable the Channel 1: Reset the CC1E Bit */
  tmpccer = TIMx->CCER;
 80039c0:	68fb      	ldr	r3, [r7, #12]
 80039c2:	6a1b      	ldr	r3, [r3, #32]
 80039c4:	617b      	str	r3, [r7, #20]
  TIMx->CCER &= ~TIM_CCER_CC1E;
 80039c6:	68fb      	ldr	r3, [r7, #12]
 80039c8:	6a1b      	ldr	r3, [r3, #32]
 80039ca:	2201      	movs	r2, #1
 80039cc:	4393      	bics	r3, r2
 80039ce:	001a      	movs	r2, r3
 80039d0:	68fb      	ldr	r3, [r7, #12]
 80039d2:	621a      	str	r2, [r3, #32]
  tmpccmr1 = TIMx->CCMR1;
 80039d4:	68fb      	ldr	r3, [r7, #12]
 80039d6:	699b      	ldr	r3, [r3, #24]
 80039d8:	613b      	str	r3, [r7, #16]

  /* Set the filter */
  tmpccmr1 &= ~TIM_CCMR1_IC1F;
 80039da:	693b      	ldr	r3, [r7, #16]
 80039dc:	22f0      	movs	r2, #240	; 0xf0
 80039de:	4393      	bics	r3, r2
 80039e0:	613b      	str	r3, [r7, #16]
  tmpccmr1 |= (TIM_ICFilter << 4U);
 80039e2:	687b      	ldr	r3, [r7, #4]
 80039e4:	011b      	lsls	r3, r3, #4
 80039e6:	693a      	ldr	r2, [r7, #16]
 80039e8:	4313      	orrs	r3, r2
 80039ea:	613b      	str	r3, [r7, #16]

  /* Select the Polarity and set the CC1E Bit */
  tmpccer &= ~(TIM_CCER_CC1P | TIM_CCER_CC1NP);
 80039ec:	697b      	ldr	r3, [r7, #20]
 80039ee:	220a      	movs	r2, #10
 80039f0:	4393      	bics	r3, r2
 80039f2:	617b      	str	r3, [r7, #20]
  tmpccer |= TIM_ICPolarity;
 80039f4:	697a      	ldr	r2, [r7, #20]
 80039f6:	68bb      	ldr	r3, [r7, #8]
 80039f8:	4313      	orrs	r3, r2
 80039fa:	617b      	str	r3, [r7, #20]

  /* Write to TIMx CCMR1 and CCER registers */
  TIMx->CCMR1 = tmpccmr1;
 80039fc:	68fb      	ldr	r3, [r7, #12]
 80039fe:	693a      	ldr	r2, [r7, #16]
 8003a00:	619a      	str	r2, [r3, #24]
  TIMx->CCER = tmpccer;
 8003a02:	68fb      	ldr	r3, [r7, #12]
 8003a04:	697a      	ldr	r2, [r7, #20]
 8003a06:	621a      	str	r2, [r3, #32]
}
 8003a08:	46c0      	nop			; (mov r8, r8)
 8003a0a:	46bd      	mov	sp, r7
 8003a0c:	b006      	add	sp, #24
 8003a0e:	bd80      	pop	{r7, pc}

08003a10 <TIM_TI2_ConfigInputStage>:
  * @param  TIM_ICFilter Specifies the Input Capture Filter.
  *          This parameter must be a value between 0x00 and 0x0F.
  * @retval None
  */
static void TIM_TI2_ConfigInputStage(TIM_TypeDef *TIMx, uint32_t TIM_ICPolarity, uint32_t TIM_ICFilter)
{
 8003a10:	b580      	push	{r7, lr}
 8003a12:	b086      	sub	sp, #24
 8003a14:	af00      	add	r7, sp, #0
 8003a16:	60f8      	str	r0, [r7, #12]
 8003a18:	60b9      	str	r1, [r7, #8]
 8003a1a:	607a      	str	r2, [r7, #4]
  uint32_t tmpccmr1;
  uint32_t tmpccer;

  /* Disable the Channel 2: Reset the CC2E Bit */
  TIMx->CCER &= ~TIM_CCER_CC2E;
 8003a1c:	68fb      	ldr	r3, [r7, #12]
 8003a1e:	6a1b      	ldr	r3, [r3, #32]
 8003a20:	2210      	movs	r2, #16
 8003a22:	4393      	bics	r3, r2
 8003a24:	001a      	movs	r2, r3
 8003a26:	68fb      	ldr	r3, [r7, #12]
 8003a28:	621a      	str	r2, [r3, #32]
  tmpccmr1 = TIMx->CCMR1;
 8003a2a:	68fb      	ldr	r3, [r7, #12]
 8003a2c:	699b      	ldr	r3, [r3, #24]
 8003a2e:	617b      	str	r3, [r7, #20]
  tmpccer = TIMx->CCER;
 8003a30:	68fb      	ldr	r3, [r7, #12]
 8003a32:	6a1b      	ldr	r3, [r3, #32]
 8003a34:	613b      	str	r3, [r7, #16]

  /* Set the filter */
  tmpccmr1 &= ~TIM_CCMR1_IC2F;
 8003a36:	697b      	ldr	r3, [r7, #20]
 8003a38:	4a0d      	ldr	r2, [pc, #52]	; (8003a70 <TIM_TI2_ConfigInputStage+0x60>)
 8003a3a:	4013      	ands	r3, r2
 8003a3c:	617b      	str	r3, [r7, #20]
  tmpccmr1 |= (TIM_ICFilter << 12U);
 8003a3e:	687b      	ldr	r3, [r7, #4]
 8003a40:	031b      	lsls	r3, r3, #12
 8003a42:	697a      	ldr	r2, [r7, #20]
 8003a44:	4313      	orrs	r3, r2
 8003a46:	617b      	str	r3, [r7, #20]

  /* Select the Polarity and set the CC2E Bit */
  tmpccer &= ~(TIM_CCER_CC2P | TIM_CCER_CC2NP);
 8003a48:	693b      	ldr	r3, [r7, #16]
 8003a4a:	22a0      	movs	r2, #160	; 0xa0
 8003a4c:	4393      	bics	r3, r2
 8003a4e:	613b      	str	r3, [r7, #16]
  tmpccer |= (TIM_ICPolarity << 4U);
 8003a50:	68bb      	ldr	r3, [r7, #8]
 8003a52:	011b      	lsls	r3, r3, #4
 8003a54:	693a      	ldr	r2, [r7, #16]
 8003a56:	4313      	orrs	r3, r2
 8003a58:	613b      	str	r3, [r7, #16]

  /* Write to TIMx CCMR1 and CCER registers */
  TIMx->CCMR1 = tmpccmr1 ;
 8003a5a:	68fb      	ldr	r3, [r7, #12]
 8003a5c:	697a      	ldr	r2, [r7, #20]
 8003a5e:	619a      	str	r2, [r3, #24]
  TIMx->CCER = tmpccer;
 8003a60:	68fb      	ldr	r3, [r7, #12]
 8003a62:	693a      	ldr	r2, [r7, #16]
 8003a64:	621a      	str	r2, [r3, #32]
}
 8003a66:	46c0      	nop			; (mov r8, r8)
 8003a68:	46bd      	mov	sp, r7
 8003a6a:	b006      	add	sp, #24
 8003a6c:	bd80      	pop	{r7, pc}
 8003a6e:	46c0      	nop			; (mov r8, r8)
 8003a70:	ffff0fff 	.word	0xffff0fff

08003a74 <TIM_ITRx_SetConfig>:
  *            @arg TIM_TS_TI2FP2: Filtered Timer Input 2
  *            @arg TIM_TS_ETRF: External Trigger input
  * @retval None
  */
static void TIM_ITRx_SetConfig(TIM_TypeDef *TIMx, uint32_t InputTriggerSource)
{
 8003a74:	b580      	push	{r7, lr}
 8003a76:	b084      	sub	sp, #16
 8003a78:	af00      	add	r7, sp, #0
 8003a7a:	6078      	str	r0, [r7, #4]
 8003a7c:	6039      	str	r1, [r7, #0]
  uint32_t tmpsmcr;

  /* Get the TIMx SMCR register value */
  tmpsmcr = TIMx->SMCR;
 8003a7e:	687b      	ldr	r3, [r7, #4]
 8003a80:	689b      	ldr	r3, [r3, #8]
 8003a82:	60fb      	str	r3, [r7, #12]
  /* Reset the TS Bits */
  tmpsmcr &= ~TIM_SMCR_TS;
 8003a84:	68fb      	ldr	r3, [r7, #12]
 8003a86:	2270      	movs	r2, #112	; 0x70
 8003a88:	4393      	bics	r3, r2
 8003a8a:	60fb      	str	r3, [r7, #12]
  /* Set the Input Trigger source and the slave mode*/
  tmpsmcr |= (InputTriggerSource | TIM_SLAVEMODE_EXTERNAL1);
 8003a8c:	683a      	ldr	r2, [r7, #0]
 8003a8e:	68fb      	ldr	r3, [r7, #12]
 8003a90:	4313      	orrs	r3, r2
 8003a92:	2207      	movs	r2, #7
 8003a94:	4313      	orrs	r3, r2
 8003a96:	60fb      	str	r3, [r7, #12]
  /* Write to TIMx SMCR */
  TIMx->SMCR = tmpsmcr;
 8003a98:	687b      	ldr	r3, [r7, #4]
 8003a9a:	68fa      	ldr	r2, [r7, #12]
 8003a9c:	609a      	str	r2, [r3, #8]
}
 8003a9e:	46c0      	nop			; (mov r8, r8)
 8003aa0:	46bd      	mov	sp, r7
 8003aa2:	b004      	add	sp, #16
 8003aa4:	bd80      	pop	{r7, pc}
	...

08003aa8 <TIM_ETR_SetConfig>:
  *          This parameter must be a value between 0x00 and 0x0F
  * @retval None
  */
void TIM_ETR_SetConfig(TIM_TypeDef *TIMx, uint32_t TIM_ExtTRGPrescaler,
                       uint32_t TIM_ExtTRGPolarity, uint32_t ExtTRGFilter)
{
 8003aa8:	b580      	push	{r7, lr}
 8003aaa:	b086      	sub	sp, #24
 8003aac:	af00      	add	r7, sp, #0
 8003aae:	60f8      	str	r0, [r7, #12]
 8003ab0:	60b9      	str	r1, [r7, #8]
 8003ab2:	607a      	str	r2, [r7, #4]
 8003ab4:	603b      	str	r3, [r7, #0]
  uint32_t tmpsmcr;

  tmpsmcr = TIMx->SMCR;
 8003ab6:	68fb      	ldr	r3, [r7, #12]
 8003ab8:	689b      	ldr	r3, [r3, #8]
 8003aba:	617b      	str	r3, [r7, #20]

  /* Reset the ETR Bits */
  tmpsmcr &= ~(TIM_SMCR_ETF | TIM_SMCR_ETPS | TIM_SMCR_ECE | TIM_SMCR_ETP);
 8003abc:	697b      	ldr	r3, [r7, #20]
 8003abe:	4a09      	ldr	r2, [pc, #36]	; (8003ae4 <TIM_ETR_SetConfig+0x3c>)
 8003ac0:	4013      	ands	r3, r2
 8003ac2:	617b      	str	r3, [r7, #20]

  /* Set the Prescaler, the Filter value and the Polarity */
  tmpsmcr |= (uint32_t)(TIM_ExtTRGPrescaler | (TIM_ExtTRGPolarity | (ExtTRGFilter << 8U)));
 8003ac4:	683b      	ldr	r3, [r7, #0]
 8003ac6:	021a      	lsls	r2, r3, #8
 8003ac8:	687b      	ldr	r3, [r7, #4]
 8003aca:	431a      	orrs	r2, r3
 8003acc:	68bb      	ldr	r3, [r7, #8]
 8003ace:	4313      	orrs	r3, r2
 8003ad0:	697a      	ldr	r2, [r7, #20]
 8003ad2:	4313      	orrs	r3, r2
 8003ad4:	617b      	str	r3, [r7, #20]

  /* Write to TIMx SMCR */
  TIMx->SMCR = tmpsmcr;
 8003ad6:	68fb      	ldr	r3, [r7, #12]
 8003ad8:	697a      	ldr	r2, [r7, #20]
 8003ada:	609a      	str	r2, [r3, #8]
}
 8003adc:	46c0      	nop			; (mov r8, r8)
 8003ade:	46bd      	mov	sp, r7
 8003ae0:	b006      	add	sp, #24
 8003ae2:	bd80      	pop	{r7, pc}
 8003ae4:	ffff00ff 	.word	0xffff00ff

08003ae8 <HAL_TIMEx_MasterConfigSynchronization>:
  *         mode.
  * @retval HAL status
  */
HAL_StatusTypeDef HAL_TIMEx_MasterConfigSynchronization(TIM_HandleTypeDef *htim,
                                                        TIM_MasterConfigTypeDef *sMasterConfig)
{
 8003ae8:	b580      	push	{r7, lr}
 8003aea:	b084      	sub	sp, #16
 8003aec:	af00      	add	r7, sp, #0
 8003aee:	6078      	str	r0, [r7, #4]
 8003af0:	6039      	str	r1, [r7, #0]
  assert_param(IS_TIM_MASTER_INSTANCE(htim->Instance));
  assert_param(IS_TIM_TRGO_SOURCE(sMasterConfig->MasterOutputTrigger));
  assert_param(IS_TIM_MSM_STATE(sMasterConfig->MasterSlaveMode));

  /* Check input state */
  __HAL_LOCK(htim);
 8003af2:	687b      	ldr	r3, [r7, #4]
 8003af4:	223c      	movs	r2, #60	; 0x3c
 8003af6:	5c9b      	ldrb	r3, [r3, r2]
 8003af8:	2b01      	cmp	r3, #1
 8003afa:	d101      	bne.n	8003b00 <HAL_TIMEx_MasterConfigSynchronization+0x18>
 8003afc:	2302      	movs	r3, #2
 8003afe:	e047      	b.n	8003b90 <HAL_TIMEx_MasterConfigSynchronization+0xa8>
 8003b00:	687b      	ldr	r3, [r7, #4]
 8003b02:	223c      	movs	r2, #60	; 0x3c
 8003b04:	2101      	movs	r1, #1
 8003b06:	5499      	strb	r1, [r3, r2]

  /* Change the handler state */
  htim->State = HAL_TIM_STATE_BUSY;
 8003b08:	687b      	ldr	r3, [r7, #4]
 8003b0a:	223d      	movs	r2, #61	; 0x3d
 8003b0c:	2102      	movs	r1, #2
 8003b0e:	5499      	strb	r1, [r3, r2]

  /* Get the TIMx CR2 register value */
  tmpcr2 = htim->Instance->CR2;
 8003b10:	687b      	ldr	r3, [r7, #4]
 8003b12:	681b      	ldr	r3, [r3, #0]
 8003b14:	685b      	ldr	r3, [r3, #4]
 8003b16:	60fb      	str	r3, [r7, #12]

  /* Get the TIMx SMCR register value */
  tmpsmcr = htim->Instance->SMCR;
 8003b18:	687b      	ldr	r3, [r7, #4]
 8003b1a:	681b      	ldr	r3, [r3, #0]
 8003b1c:	689b      	ldr	r3, [r3, #8]
 8003b1e:	60bb      	str	r3, [r7, #8]

  /* Reset the MMS Bits */
  tmpcr2 &= ~TIM_CR2_MMS;
 8003b20:	68fb      	ldr	r3, [r7, #12]
 8003b22:	2270      	movs	r2, #112	; 0x70
 8003b24:	4393      	bics	r3, r2
 8003b26:	60fb      	str	r3, [r7, #12]
  /* Select the TRGO source */
  tmpcr2 |=  sMasterConfig->MasterOutputTrigger;
 8003b28:	683b      	ldr	r3, [r7, #0]
 8003b2a:	681b      	ldr	r3, [r3, #0]
 8003b2c:	68fa      	ldr	r2, [r7, #12]
 8003b2e:	4313      	orrs	r3, r2
 8003b30:	60fb      	str	r3, [r7, #12]

  /* Update TIMx CR2 */
  htim->Instance->CR2 = tmpcr2;
 8003b32:	687b      	ldr	r3, [r7, #4]
 8003b34:	681b      	ldr	r3, [r3, #0]
 8003b36:	68fa      	ldr	r2, [r7, #12]
 8003b38:	605a      	str	r2, [r3, #4]

  if (IS_TIM_SLAVE_INSTANCE(htim->Instance))
 8003b3a:	687b      	ldr	r3, [r7, #4]
 8003b3c:	681b      	ldr	r3, [r3, #0]
 8003b3e:	4a16      	ldr	r2, [pc, #88]	; (8003b98 <HAL_TIMEx_MasterConfigSynchronization+0xb0>)
 8003b40:	4293      	cmp	r3, r2
 8003b42:	d00f      	beq.n	8003b64 <HAL_TIMEx_MasterConfigSynchronization+0x7c>
 8003b44:	687b      	ldr	r3, [r7, #4]
 8003b46:	681a      	ldr	r2, [r3, #0]
 8003b48:	2380      	movs	r3, #128	; 0x80
 8003b4a:	05db      	lsls	r3, r3, #23
 8003b4c:	429a      	cmp	r2, r3
 8003b4e:	d009      	beq.n	8003b64 <HAL_TIMEx_MasterConfigSynchronization+0x7c>
 8003b50:	687b      	ldr	r3, [r7, #4]
 8003b52:	681b      	ldr	r3, [r3, #0]
 8003b54:	4a11      	ldr	r2, [pc, #68]	; (8003b9c <HAL_TIMEx_MasterConfigSynchronization+0xb4>)
 8003b56:	4293      	cmp	r3, r2
 8003b58:	d004      	beq.n	8003b64 <HAL_TIMEx_MasterConfigSynchronization+0x7c>
 8003b5a:	687b      	ldr	r3, [r7, #4]
 8003b5c:	681b      	ldr	r3, [r3, #0]
 8003b5e:	4a10      	ldr	r2, [pc, #64]	; (8003ba0 <HAL_TIMEx_MasterConfigSynchronization+0xb8>)
 8003b60:	4293      	cmp	r3, r2
 8003b62:	d10c      	bne.n	8003b7e <HAL_TIMEx_MasterConfigSynchronization+0x96>
  {
    /* Reset the MSM Bit */
    tmpsmcr &= ~TIM_SMCR_MSM;
 8003b64:	68bb      	ldr	r3, [r7, #8]
 8003b66:	2280      	movs	r2, #128	; 0x80
 8003b68:	4393      	bics	r3, r2
 8003b6a:	60bb      	str	r3, [r7, #8]
    /* Set master mode */
    tmpsmcr |= sMasterConfig->MasterSlaveMode;
 8003b6c:	683b      	ldr	r3, [r7, #0]
 8003b6e:	685b      	ldr	r3, [r3, #4]
 8003b70:	68ba      	ldr	r2, [r7, #8]
 8003b72:	4313      	orrs	r3, r2
 8003b74:	60bb      	str	r3, [r7, #8]

    /* Update TIMx SMCR */
    htim->Instance->SMCR = tmpsmcr;
 8003b76:	687b      	ldr	r3, [r7, #4]
 8003b78:	681b      	ldr	r3, [r3, #0]
 8003b7a:	68ba      	ldr	r2, [r7, #8]
 8003b7c:	609a      	str	r2, [r3, #8]
  }

  /* Change the htim state */
  htim->State = HAL_TIM_STATE_READY;
 8003b7e:	687b      	ldr	r3, [r7, #4]
 8003b80:	223d      	movs	r2, #61	; 0x3d
 8003b82:	2101      	movs	r1, #1
 8003b84:	5499      	strb	r1, [r3, r2]

  __HAL_UNLOCK(htim);
 8003b86:	687b      	ldr	r3, [r7, #4]
 8003b88:	223c      	movs	r2, #60	; 0x3c
 8003b8a:	2100      	movs	r1, #0
 8003b8c:	5499      	strb	r1, [r3, r2]

  return HAL_OK;
 8003b8e:	2300      	movs	r3, #0
}
 8003b90:	0018      	movs	r0, r3
 8003b92:	46bd      	mov	sp, r7
 8003b94:	b004      	add	sp, #16
 8003b96:	bd80      	pop	{r7, pc}
 8003b98:	40012c00 	.word	0x40012c00
 8003b9c:	40000400 	.word	0x40000400
 8003ba0:	40014000 	.word	0x40014000

08003ba4 <HAL_TIMEx_ConfigBreakDeadTime>:
  *         interrupt can be enabled by calling the @ref __HAL_TIM_ENABLE_IT macro.
  * @retval HAL status
  */
HAL_StatusTypeDef HAL_TIMEx_ConfigBreakDeadTime(TIM_HandleTypeDef *htim,
                                                TIM_BreakDeadTimeConfigTypeDef *sBreakDeadTimeConfig)
{
 8003ba4:	b580      	push	{r7, lr}
 8003ba6:	b084      	sub	sp, #16
 8003ba8:	af00      	add	r7, sp, #0
 8003baa:	6078      	str	r0, [r7, #4]
 8003bac:	6039      	str	r1, [r7, #0]
  /* Keep this variable initialized to 0 as it is used to configure BDTR register */
  uint32_t tmpbdtr = 0U;
 8003bae:	2300      	movs	r3, #0
 8003bb0:	60fb      	str	r3, [r7, #12]
  assert_param(IS_TIM_BREAK_STATE(sBreakDeadTimeConfig->BreakState));
  assert_param(IS_TIM_BREAK_POLARITY(sBreakDeadTimeConfig->BreakPolarity));
  assert_param(IS_TIM_AUTOMATIC_OUTPUT_STATE(sBreakDeadTimeConfig->AutomaticOutput));

  /* Check input state */
  __HAL_LOCK(htim);
 8003bb2:	687b      	ldr	r3, [r7, #4]
 8003bb4:	223c      	movs	r2, #60	; 0x3c
 8003bb6:	5c9b      	ldrb	r3, [r3, r2]
 8003bb8:	2b01      	cmp	r3, #1
 8003bba:	d101      	bne.n	8003bc0 <HAL_TIMEx_ConfigBreakDeadTime+0x1c>
 8003bbc:	2302      	movs	r3, #2
 8003bbe:	e03e      	b.n	8003c3e <HAL_TIMEx_ConfigBreakDeadTime+0x9a>
 8003bc0:	687b      	ldr	r3, [r7, #4]
 8003bc2:	223c      	movs	r2, #60	; 0x3c
 8003bc4:	2101      	movs	r1, #1
 8003bc6:	5499      	strb	r1, [r3, r2]

  /* Set the Lock level, the Break enable Bit and the Polarity, the OSSR State,
     the OSSI State, the dead time value and the Automatic Output Enable Bit */

  /* Set the BDTR bits */
  MODIFY_REG(tmpbdtr, TIM_BDTR_DTG, sBreakDeadTimeConfig->DeadTime);
 8003bc8:	68fb      	ldr	r3, [r7, #12]
 8003bca:	22ff      	movs	r2, #255	; 0xff
 8003bcc:	4393      	bics	r3, r2
 8003bce:	001a      	movs	r2, r3
 8003bd0:	683b      	ldr	r3, [r7, #0]
 8003bd2:	68db      	ldr	r3, [r3, #12]
 8003bd4:	4313      	orrs	r3, r2
 8003bd6:	60fb      	str	r3, [r7, #12]
  MODIFY_REG(tmpbdtr, TIM_BDTR_LOCK, sBreakDeadTimeConfig->LockLevel);
 8003bd8:	68fb      	ldr	r3, [r7, #12]
 8003bda:	4a1b      	ldr	r2, [pc, #108]	; (8003c48 <HAL_TIMEx_ConfigBreakDeadTime+0xa4>)
 8003bdc:	401a      	ands	r2, r3
 8003bde:	683b      	ldr	r3, [r7, #0]
 8003be0:	689b      	ldr	r3, [r3, #8]
 8003be2:	4313      	orrs	r3, r2
 8003be4:	60fb      	str	r3, [r7, #12]
  MODIFY_REG(tmpbdtr, TIM_BDTR_OSSI, sBreakDeadTimeConfig->OffStateIDLEMode);
 8003be6:	68fb      	ldr	r3, [r7, #12]
 8003be8:	4a18      	ldr	r2, [pc, #96]	; (8003c4c <HAL_TIMEx_ConfigBreakDeadTime+0xa8>)
 8003bea:	401a      	ands	r2, r3
 8003bec:	683b      	ldr	r3, [r7, #0]
 8003bee:	685b      	ldr	r3, [r3, #4]
 8003bf0:	4313      	orrs	r3, r2
 8003bf2:	60fb      	str	r3, [r7, #12]
  MODIFY_REG(tmpbdtr, TIM_BDTR_OSSR, sBreakDeadTimeConfig->OffStateRunMode);
 8003bf4:	68fb      	ldr	r3, [r7, #12]
 8003bf6:	4a16      	ldr	r2, [pc, #88]	; (8003c50 <HAL_TIMEx_ConfigBreakDeadTime+0xac>)
 8003bf8:	401a      	ands	r2, r3
 8003bfa:	683b      	ldr	r3, [r7, #0]
 8003bfc:	681b      	ldr	r3, [r3, #0]
 8003bfe:	4313      	orrs	r3, r2
 8003c00:	60fb      	str	r3, [r7, #12]
  MODIFY_REG(tmpbdtr, TIM_BDTR_BKE, sBreakDeadTimeConfig->BreakState);
 8003c02:	68fb      	ldr	r3, [r7, #12]
 8003c04:	4a13      	ldr	r2, [pc, #76]	; (8003c54 <HAL_TIMEx_ConfigBreakDeadTime+0xb0>)
 8003c06:	401a      	ands	r2, r3
 8003c08:	683b      	ldr	r3, [r7, #0]
 8003c0a:	691b      	ldr	r3, [r3, #16]
 8003c0c:	4313      	orrs	r3, r2
 8003c0e:	60fb      	str	r3, [r7, #12]
  MODIFY_REG(tmpbdtr, TIM_BDTR_BKP, sBreakDeadTimeConfig->BreakPolarity);
 8003c10:	68fb      	ldr	r3, [r7, #12]
 8003c12:	4a11      	ldr	r2, [pc, #68]	; (8003c58 <HAL_TIMEx_ConfigBreakDeadTime+0xb4>)
 8003c14:	401a      	ands	r2, r3
 8003c16:	683b      	ldr	r3, [r7, #0]
 8003c18:	695b      	ldr	r3, [r3, #20]
 8003c1a:	4313      	orrs	r3, r2
 8003c1c:	60fb      	str	r3, [r7, #12]
  MODIFY_REG(tmpbdtr, TIM_BDTR_AOE, sBreakDeadTimeConfig->AutomaticOutput);
 8003c1e:	68fb      	ldr	r3, [r7, #12]
 8003c20:	4a0e      	ldr	r2, [pc, #56]	; (8003c5c <HAL_TIMEx_ConfigBreakDeadTime+0xb8>)
 8003c22:	401a      	ands	r2, r3
 8003c24:	683b      	ldr	r3, [r7, #0]
 8003c26:	69db      	ldr	r3, [r3, #28]
 8003c28:	4313      	orrs	r3, r2
 8003c2a:	60fb      	str	r3, [r7, #12]


  /* Set TIMx_BDTR */
  htim->Instance->BDTR = tmpbdtr;
 8003c2c:	687b      	ldr	r3, [r7, #4]
 8003c2e:	681b      	ldr	r3, [r3, #0]
 8003c30:	68fa      	ldr	r2, [r7, #12]
 8003c32:	645a      	str	r2, [r3, #68]	; 0x44

  __HAL_UNLOCK(htim);
 8003c34:	687b      	ldr	r3, [r7, #4]
 8003c36:	223c      	movs	r2, #60	; 0x3c
 8003c38:	2100      	movs	r1, #0
 8003c3a:	5499      	strb	r1, [r3, r2]

  return HAL_OK;
 8003c3c:	2300      	movs	r3, #0
}
 8003c3e:	0018      	movs	r0, r3
 8003c40:	46bd      	mov	sp, r7
 8003c42:	b004      	add	sp, #16
 8003c44:	bd80      	pop	{r7, pc}
 8003c46:	46c0      	nop			; (mov r8, r8)
 8003c48:	fffffcff 	.word	0xfffffcff
 8003c4c:	fffffbff 	.word	0xfffffbff
 8003c50:	fffff7ff 	.word	0xfffff7ff
 8003c54:	ffffefff 	.word	0xffffefff
 8003c58:	ffffdfff 	.word	0xffffdfff
 8003c5c:	ffffbfff 	.word	0xffffbfff

08003c60 <HAL_UART_Init>:
  *        parameters in the UART_InitTypeDef and initialize the associated handle.
  * @param huart UART handle.
  * @retval HAL status
  */
HAL_StatusTypeDef HAL_UART_Init(UART_HandleTypeDef *huart)
{
 8003c60:	b580      	push	{r7, lr}
 8003c62:	b082      	sub	sp, #8
 8003c64:	af00      	add	r7, sp, #0
 8003c66:	6078      	str	r0, [r7, #4]
  /* Check the UART handle allocation */
  if (huart == NULL)
 8003c68:	687b      	ldr	r3, [r7, #4]
 8003c6a:	2b00      	cmp	r3, #0
 8003c6c:	d101      	bne.n	8003c72 <HAL_UART_Init+0x12>
  {
    return HAL_ERROR;
 8003c6e:	2301      	movs	r3, #1
 8003c70:	e044      	b.n	8003cfc <HAL_UART_Init+0x9c>
  {
    /* Check the parameters */
    assert_param(IS_UART_INSTANCE(huart->Instance));
  }

  if (huart->gState == HAL_UART_STATE_RESET)
 8003c72:	687b      	ldr	r3, [r7, #4]
 8003c74:	6f9b      	ldr	r3, [r3, #120]	; 0x78
 8003c76:	2b00      	cmp	r3, #0
 8003c78:	d107      	bne.n	8003c8a <HAL_UART_Init+0x2a>
  {
    /* Allocate lock resource and initialize it */
    huart->Lock = HAL_UNLOCKED;
 8003c7a:	687b      	ldr	r3, [r7, #4]
 8003c7c:	2274      	movs	r2, #116	; 0x74
 8003c7e:	2100      	movs	r1, #0
 8003c80:	5499      	strb	r1, [r3, r2]

    /* Init the low level hardware */
    huart->MspInitCallback(huart);
#else
    /* Init the low level hardware : GPIO, CLOCK */
    HAL_UART_MspInit(huart);
 8003c82:	687b      	ldr	r3, [r7, #4]
 8003c84:	0018      	movs	r0, r3
 8003c86:	f7fd fc91 	bl	80015ac <HAL_UART_MspInit>
#endif /* (USE_HAL_UART_REGISTER_CALLBACKS) */
  }

  huart->gState = HAL_UART_STATE_BUSY;
 8003c8a:	687b      	ldr	r3, [r7, #4]
 8003c8c:	2224      	movs	r2, #36	; 0x24
 8003c8e:	679a      	str	r2, [r3, #120]	; 0x78

  __HAL_UART_DISABLE(huart);
 8003c90:	687b      	ldr	r3, [r7, #4]
 8003c92:	681b      	ldr	r3, [r3, #0]
 8003c94:	681a      	ldr	r2, [r3, #0]
 8003c96:	687b      	ldr	r3, [r7, #4]
 8003c98:	681b      	ldr	r3, [r3, #0]
 8003c9a:	2101      	movs	r1, #1
 8003c9c:	438a      	bics	r2, r1
 8003c9e:	601a      	str	r2, [r3, #0]

  /* Set the UART Communication parameters */
  if (UART_SetConfig(huart) == HAL_ERROR)
 8003ca0:	687b      	ldr	r3, [r7, #4]
 8003ca2:	0018      	movs	r0, r3
 8003ca4:	f000 f830 	bl	8003d08 <UART_SetConfig>
 8003ca8:	0003      	movs	r3, r0
 8003caa:	2b01      	cmp	r3, #1
 8003cac:	d101      	bne.n	8003cb2 <HAL_UART_Init+0x52>
  {
    return HAL_ERROR;
 8003cae:	2301      	movs	r3, #1
 8003cb0:	e024      	b.n	8003cfc <HAL_UART_Init+0x9c>
  }

  if (huart->AdvancedInit.AdvFeatureInit != UART_ADVFEATURE_NO_INIT)
 8003cb2:	687b      	ldr	r3, [r7, #4]
 8003cb4:	6a5b      	ldr	r3, [r3, #36]	; 0x24
 8003cb6:	2b00      	cmp	r3, #0
 8003cb8:	d003      	beq.n	8003cc2 <HAL_UART_Init+0x62>
  {
    UART_AdvFeatureConfig(huart);
 8003cba:	687b      	ldr	r3, [r7, #4]
 8003cbc:	0018      	movs	r0, r3
 8003cbe:	f000 f9ab 	bl	8004018 <UART_AdvFeatureConfig>

  /* In asynchronous mode, the following bits must be kept cleared:
  - LINEN (if LIN is supported) and CLKEN bits in the USART_CR2 register,
  - SCEN (if Smartcard is supported), HDSEL and IREN (if IrDA is supported)  bits in the USART_CR3 register.*/
#if defined (USART_CR2_LINEN)
  CLEAR_BIT(huart->Instance->CR2, (USART_CR2_LINEN | USART_CR2_CLKEN));
 8003cc2:	687b      	ldr	r3, [r7, #4]
 8003cc4:	681b      	ldr	r3, [r3, #0]
 8003cc6:	685a      	ldr	r2, [r3, #4]
 8003cc8:	687b      	ldr	r3, [r7, #4]
 8003cca:	681b      	ldr	r3, [r3, #0]
 8003ccc:	490d      	ldr	r1, [pc, #52]	; (8003d04 <HAL_UART_Init+0xa4>)
 8003cce:	400a      	ands	r2, r1
 8003cd0:	605a      	str	r2, [r3, #4]
#else
  CLEAR_BIT(huart->Instance->CR2, USART_CR2_CLKEN);
#endif /* USART_CR2_LINEN */
#if defined (USART_CR3_SCEN)
#if defined (USART_CR3_IREN)
  CLEAR_BIT(huart->Instance->CR3, (USART_CR3_SCEN | USART_CR3_HDSEL | USART_CR3_IREN));
 8003cd2:	687b      	ldr	r3, [r7, #4]
 8003cd4:	681b      	ldr	r3, [r3, #0]
 8003cd6:	689a      	ldr	r2, [r3, #8]
 8003cd8:	687b      	ldr	r3, [r7, #4]
 8003cda:	681b      	ldr	r3, [r3, #0]
 8003cdc:	212a      	movs	r1, #42	; 0x2a
 8003cde:	438a      	bics	r2, r1
 8003ce0:	609a      	str	r2, [r3, #8]
#else
  CLEAR_BIT(huart->Instance->CR3, USART_CR3_HDSEL);
#endif /* USART_CR3_IREN*/
#endif /* USART_CR3_SCEN */

  __HAL_UART_ENABLE(huart);
 8003ce2:	687b      	ldr	r3, [r7, #4]
 8003ce4:	681b      	ldr	r3, [r3, #0]
 8003ce6:	681a      	ldr	r2, [r3, #0]
 8003ce8:	687b      	ldr	r3, [r7, #4]
 8003cea:	681b      	ldr	r3, [r3, #0]
 8003cec:	2101      	movs	r1, #1
 8003cee:	430a      	orrs	r2, r1
 8003cf0:	601a      	str	r2, [r3, #0]

  /* TEACK and/or REACK to check before moving huart->gState and huart->RxState to Ready */
  return (UART_CheckIdleState(huart));
 8003cf2:	687b      	ldr	r3, [r7, #4]
 8003cf4:	0018      	movs	r0, r3
 8003cf6:	f000 fa43 	bl	8004180 <UART_CheckIdleState>
 8003cfa:	0003      	movs	r3, r0
}
 8003cfc:	0018      	movs	r0, r3
 8003cfe:	46bd      	mov	sp, r7
 8003d00:	b002      	add	sp, #8
 8003d02:	bd80      	pop	{r7, pc}
 8003d04:	ffffb7ff 	.word	0xffffb7ff

08003d08 <UART_SetConfig>:
  * @brief Configure the UART peripheral.
  * @param huart UART handle.
  * @retval HAL status
  */
HAL_StatusTypeDef UART_SetConfig(UART_HandleTypeDef *huart)
{
 8003d08:	b580      	push	{r7, lr}
 8003d0a:	b088      	sub	sp, #32
 8003d0c:	af00      	add	r7, sp, #0
 8003d0e:	6078      	str	r0, [r7, #4]
  uint32_t tmpreg;
  uint16_t brrtemp;
  UART_ClockSourceTypeDef clocksource;
  uint32_t usartdiv;
  HAL_StatusTypeDef ret               = HAL_OK;
 8003d10:	231e      	movs	r3, #30
 8003d12:	18fb      	adds	r3, r7, r3
 8003d14:	2200      	movs	r2, #0
 8003d16:	701a      	strb	r2, [r3, #0]
  *  the UART Word Length, Parity, Mode and oversampling:
  *  set the M bits according to huart->Init.WordLength value
  *  set PCE and PS bits according to huart->Init.Parity value
  *  set TE and RE bits according to huart->Init.Mode value
  *  set OVER8 bit according to huart->Init.OverSampling value */
  tmpreg = (uint32_t)huart->Init.WordLength | huart->Init.Parity | huart->Init.Mode | huart->Init.OverSampling ;
 8003d18:	687b      	ldr	r3, [r7, #4]
 8003d1a:	689a      	ldr	r2, [r3, #8]
 8003d1c:	687b      	ldr	r3, [r7, #4]
 8003d1e:	691b      	ldr	r3, [r3, #16]
 8003d20:	431a      	orrs	r2, r3
 8003d22:	687b      	ldr	r3, [r7, #4]
 8003d24:	695b      	ldr	r3, [r3, #20]
 8003d26:	431a      	orrs	r2, r3
 8003d28:	687b      	ldr	r3, [r7, #4]
 8003d2a:	69db      	ldr	r3, [r3, #28]
 8003d2c:	4313      	orrs	r3, r2
 8003d2e:	617b      	str	r3, [r7, #20]
  MODIFY_REG(huart->Instance->CR1, USART_CR1_FIELDS, tmpreg);
 8003d30:	687b      	ldr	r3, [r7, #4]
 8003d32:	681b      	ldr	r3, [r3, #0]
 8003d34:	681b      	ldr	r3, [r3, #0]
 8003d36:	4aaf      	ldr	r2, [pc, #700]	; (8003ff4 <UART_SetConfig+0x2ec>)
 8003d38:	4013      	ands	r3, r2
 8003d3a:	0019      	movs	r1, r3
 8003d3c:	687b      	ldr	r3, [r7, #4]
 8003d3e:	681b      	ldr	r3, [r3, #0]
 8003d40:	697a      	ldr	r2, [r7, #20]
 8003d42:	430a      	orrs	r2, r1
 8003d44:	601a      	str	r2, [r3, #0]

  /*-------------------------- USART CR2 Configuration -----------------------*/
  /* Configure the UART Stop Bits: Set STOP[13:12] bits according
  * to huart->Init.StopBits value */
  MODIFY_REG(huart->Instance->CR2, USART_CR2_STOP, huart->Init.StopBits);
 8003d46:	687b      	ldr	r3, [r7, #4]
 8003d48:	681b      	ldr	r3, [r3, #0]
 8003d4a:	685b      	ldr	r3, [r3, #4]
 8003d4c:	4aaa      	ldr	r2, [pc, #680]	; (8003ff8 <UART_SetConfig+0x2f0>)
 8003d4e:	4013      	ands	r3, r2
 8003d50:	0019      	movs	r1, r3
 8003d52:	687b      	ldr	r3, [r7, #4]
 8003d54:	68da      	ldr	r2, [r3, #12]
 8003d56:	687b      	ldr	r3, [r7, #4]
 8003d58:	681b      	ldr	r3, [r3, #0]
 8003d5a:	430a      	orrs	r2, r1
 8003d5c:	605a      	str	r2, [r3, #4]
  /* Configure
  * - UART HardWare Flow Control: set CTSE and RTSE bits according
  *   to huart->Init.HwFlowCtl value
  * - one-bit sampling method versus three samples' majority rule according
  *   to huart->Init.OneBitSampling (not applicable to LPUART) */
  tmpreg = (uint32_t)huart->Init.HwFlowCtl;
 8003d5e:	687b      	ldr	r3, [r7, #4]
 8003d60:	699b      	ldr	r3, [r3, #24]
 8003d62:	617b      	str	r3, [r7, #20]

  tmpreg |= huart->Init.OneBitSampling;
 8003d64:	687b      	ldr	r3, [r7, #4]
 8003d66:	6a1b      	ldr	r3, [r3, #32]
 8003d68:	697a      	ldr	r2, [r7, #20]
 8003d6a:	4313      	orrs	r3, r2
 8003d6c:	617b      	str	r3, [r7, #20]
  MODIFY_REG(huart->Instance->CR3, USART_CR3_FIELDS, tmpreg);
 8003d6e:	687b      	ldr	r3, [r7, #4]
 8003d70:	681b      	ldr	r3, [r3, #0]
 8003d72:	689b      	ldr	r3, [r3, #8]
 8003d74:	4aa1      	ldr	r2, [pc, #644]	; (8003ffc <UART_SetConfig+0x2f4>)
 8003d76:	4013      	ands	r3, r2
 8003d78:	0019      	movs	r1, r3
 8003d7a:	687b      	ldr	r3, [r7, #4]
 8003d7c:	681b      	ldr	r3, [r3, #0]
 8003d7e:	697a      	ldr	r2, [r7, #20]
 8003d80:	430a      	orrs	r2, r1
 8003d82:	609a      	str	r2, [r3, #8]


  /*-------------------------- USART BRR Configuration -----------------------*/
  UART_GETCLOCKSOURCE(huart, clocksource);
 8003d84:	687b      	ldr	r3, [r7, #4]
 8003d86:	681b      	ldr	r3, [r3, #0]
 8003d88:	4a9d      	ldr	r2, [pc, #628]	; (8004000 <UART_SetConfig+0x2f8>)
 8003d8a:	4293      	cmp	r3, r2
 8003d8c:	d127      	bne.n	8003dde <UART_SetConfig+0xd6>
 8003d8e:	4b9d      	ldr	r3, [pc, #628]	; (8004004 <UART_SetConfig+0x2fc>)
 8003d90:	6b1b      	ldr	r3, [r3, #48]	; 0x30
 8003d92:	2203      	movs	r2, #3
 8003d94:	4013      	ands	r3, r2
 8003d96:	2b03      	cmp	r3, #3
 8003d98:	d00d      	beq.n	8003db6 <UART_SetConfig+0xae>
 8003d9a:	d81b      	bhi.n	8003dd4 <UART_SetConfig+0xcc>
 8003d9c:	2b02      	cmp	r3, #2
 8003d9e:	d014      	beq.n	8003dca <UART_SetConfig+0xc2>
 8003da0:	d818      	bhi.n	8003dd4 <UART_SetConfig+0xcc>
 8003da2:	2b00      	cmp	r3, #0
 8003da4:	d002      	beq.n	8003dac <UART_SetConfig+0xa4>
 8003da6:	2b01      	cmp	r3, #1
 8003da8:	d00a      	beq.n	8003dc0 <UART_SetConfig+0xb8>
 8003daa:	e013      	b.n	8003dd4 <UART_SetConfig+0xcc>
 8003dac:	231f      	movs	r3, #31
 8003dae:	18fb      	adds	r3, r7, r3
 8003db0:	2200      	movs	r2, #0
 8003db2:	701a      	strb	r2, [r3, #0]
 8003db4:	e065      	b.n	8003e82 <UART_SetConfig+0x17a>
 8003db6:	231f      	movs	r3, #31
 8003db8:	18fb      	adds	r3, r7, r3
 8003dba:	2202      	movs	r2, #2
 8003dbc:	701a      	strb	r2, [r3, #0]
 8003dbe:	e060      	b.n	8003e82 <UART_SetConfig+0x17a>
 8003dc0:	231f      	movs	r3, #31
 8003dc2:	18fb      	adds	r3, r7, r3
 8003dc4:	2204      	movs	r2, #4
 8003dc6:	701a      	strb	r2, [r3, #0]
 8003dc8:	e05b      	b.n	8003e82 <UART_SetConfig+0x17a>
 8003dca:	231f      	movs	r3, #31
 8003dcc:	18fb      	adds	r3, r7, r3
 8003dce:	2208      	movs	r2, #8
 8003dd0:	701a      	strb	r2, [r3, #0]
 8003dd2:	e056      	b.n	8003e82 <UART_SetConfig+0x17a>
 8003dd4:	231f      	movs	r3, #31
 8003dd6:	18fb      	adds	r3, r7, r3
 8003dd8:	2210      	movs	r2, #16
 8003dda:	701a      	strb	r2, [r3, #0]
 8003ddc:	e051      	b.n	8003e82 <UART_SetConfig+0x17a>
 8003dde:	687b      	ldr	r3, [r7, #4]
 8003de0:	681b      	ldr	r3, [r3, #0]
 8003de2:	4a89      	ldr	r2, [pc, #548]	; (8004008 <UART_SetConfig+0x300>)
 8003de4:	4293      	cmp	r3, r2
 8003de6:	d134      	bne.n	8003e52 <UART_SetConfig+0x14a>
 8003de8:	4b86      	ldr	r3, [pc, #536]	; (8004004 <UART_SetConfig+0x2fc>)
 8003dea:	6b1a      	ldr	r2, [r3, #48]	; 0x30
 8003dec:	23c0      	movs	r3, #192	; 0xc0
 8003dee:	029b      	lsls	r3, r3, #10
 8003df0:	4013      	ands	r3, r2
 8003df2:	22c0      	movs	r2, #192	; 0xc0
 8003df4:	0292      	lsls	r2, r2, #10
 8003df6:	4293      	cmp	r3, r2
 8003df8:	d017      	beq.n	8003e2a <UART_SetConfig+0x122>
 8003dfa:	22c0      	movs	r2, #192	; 0xc0
 8003dfc:	0292      	lsls	r2, r2, #10
 8003dfe:	4293      	cmp	r3, r2
 8003e00:	d822      	bhi.n	8003e48 <UART_SetConfig+0x140>
 8003e02:	2280      	movs	r2, #128	; 0x80
 8003e04:	0292      	lsls	r2, r2, #10
 8003e06:	4293      	cmp	r3, r2
 8003e08:	d019      	beq.n	8003e3e <UART_SetConfig+0x136>
 8003e0a:	2280      	movs	r2, #128	; 0x80
 8003e0c:	0292      	lsls	r2, r2, #10
 8003e0e:	4293      	cmp	r3, r2
 8003e10:	d81a      	bhi.n	8003e48 <UART_SetConfig+0x140>
 8003e12:	2b00      	cmp	r3, #0
 8003e14:	d004      	beq.n	8003e20 <UART_SetConfig+0x118>
 8003e16:	2280      	movs	r2, #128	; 0x80
 8003e18:	0252      	lsls	r2, r2, #9
 8003e1a:	4293      	cmp	r3, r2
 8003e1c:	d00a      	beq.n	8003e34 <UART_SetConfig+0x12c>
 8003e1e:	e013      	b.n	8003e48 <UART_SetConfig+0x140>
 8003e20:	231f      	movs	r3, #31
 8003e22:	18fb      	adds	r3, r7, r3
 8003e24:	2200      	movs	r2, #0
 8003e26:	701a      	strb	r2, [r3, #0]
 8003e28:	e02b      	b.n	8003e82 <UART_SetConfig+0x17a>
 8003e2a:	231f      	movs	r3, #31
 8003e2c:	18fb      	adds	r3, r7, r3
 8003e2e:	2202      	movs	r2, #2
 8003e30:	701a      	strb	r2, [r3, #0]
 8003e32:	e026      	b.n	8003e82 <UART_SetConfig+0x17a>
 8003e34:	231f      	movs	r3, #31
 8003e36:	18fb      	adds	r3, r7, r3
 8003e38:	2204      	movs	r2, #4
 8003e3a:	701a      	strb	r2, [r3, #0]
 8003e3c:	e021      	b.n	8003e82 <UART_SetConfig+0x17a>
 8003e3e:	231f      	movs	r3, #31
 8003e40:	18fb      	adds	r3, r7, r3
 8003e42:	2208      	movs	r2, #8
 8003e44:	701a      	strb	r2, [r3, #0]
 8003e46:	e01c      	b.n	8003e82 <UART_SetConfig+0x17a>
 8003e48:	231f      	movs	r3, #31
 8003e4a:	18fb      	adds	r3, r7, r3
 8003e4c:	2210      	movs	r2, #16
 8003e4e:	701a      	strb	r2, [r3, #0]
 8003e50:	e017      	b.n	8003e82 <UART_SetConfig+0x17a>
 8003e52:	687b      	ldr	r3, [r7, #4]
 8003e54:	681b      	ldr	r3, [r3, #0]
 8003e56:	4a6d      	ldr	r2, [pc, #436]	; (800400c <UART_SetConfig+0x304>)
 8003e58:	4293      	cmp	r3, r2
 8003e5a:	d104      	bne.n	8003e66 <UART_SetConfig+0x15e>
 8003e5c:	231f      	movs	r3, #31
 8003e5e:	18fb      	adds	r3, r7, r3
 8003e60:	2200      	movs	r2, #0
 8003e62:	701a      	strb	r2, [r3, #0]
 8003e64:	e00d      	b.n	8003e82 <UART_SetConfig+0x17a>
 8003e66:	687b      	ldr	r3, [r7, #4]
 8003e68:	681b      	ldr	r3, [r3, #0]
 8003e6a:	4a69      	ldr	r2, [pc, #420]	; (8004010 <UART_SetConfig+0x308>)
 8003e6c:	4293      	cmp	r3, r2
 8003e6e:	d104      	bne.n	8003e7a <UART_SetConfig+0x172>
 8003e70:	231f      	movs	r3, #31
 8003e72:	18fb      	adds	r3, r7, r3
 8003e74:	2200      	movs	r2, #0
 8003e76:	701a      	strb	r2, [r3, #0]
 8003e78:	e003      	b.n	8003e82 <UART_SetConfig+0x17a>
 8003e7a:	231f      	movs	r3, #31
 8003e7c:	18fb      	adds	r3, r7, r3
 8003e7e:	2210      	movs	r2, #16
 8003e80:	701a      	strb	r2, [r3, #0]

  if (huart->Init.OverSampling == UART_OVERSAMPLING_8)
 8003e82:	687b      	ldr	r3, [r7, #4]
 8003e84:	69da      	ldr	r2, [r3, #28]
 8003e86:	2380      	movs	r3, #128	; 0x80
 8003e88:	021b      	lsls	r3, r3, #8
 8003e8a:	429a      	cmp	r2, r3
 8003e8c:	d15d      	bne.n	8003f4a <UART_SetConfig+0x242>
  {
    switch (clocksource)
 8003e8e:	231f      	movs	r3, #31
 8003e90:	18fb      	adds	r3, r7, r3
 8003e92:	781b      	ldrb	r3, [r3, #0]
 8003e94:	2b08      	cmp	r3, #8
 8003e96:	d015      	beq.n	8003ec4 <UART_SetConfig+0x1bc>
 8003e98:	dc18      	bgt.n	8003ecc <UART_SetConfig+0x1c4>
 8003e9a:	2b04      	cmp	r3, #4
 8003e9c:	d00d      	beq.n	8003eba <UART_SetConfig+0x1b2>
 8003e9e:	dc15      	bgt.n	8003ecc <UART_SetConfig+0x1c4>
 8003ea0:	2b00      	cmp	r3, #0
 8003ea2:	d002      	beq.n	8003eaa <UART_SetConfig+0x1a2>
 8003ea4:	2b02      	cmp	r3, #2
 8003ea6:	d005      	beq.n	8003eb4 <UART_SetConfig+0x1ac>
 8003ea8:	e010      	b.n	8003ecc <UART_SetConfig+0x1c4>
    {
      case UART_CLOCKSOURCE_PCLK1:
        pclk = HAL_RCC_GetPCLK1Freq();
 8003eaa:	f7fe fbb1 	bl	8002610 <HAL_RCC_GetPCLK1Freq>
 8003eae:	0003      	movs	r3, r0
 8003eb0:	61bb      	str	r3, [r7, #24]
        break;
 8003eb2:	e012      	b.n	8003eda <UART_SetConfig+0x1d2>
      case UART_CLOCKSOURCE_HSI:
        pclk = (uint32_t) HSI_VALUE;
 8003eb4:	4b57      	ldr	r3, [pc, #348]	; (8004014 <UART_SetConfig+0x30c>)
 8003eb6:	61bb      	str	r3, [r7, #24]
        break;
 8003eb8:	e00f      	b.n	8003eda <UART_SetConfig+0x1d2>
      case UART_CLOCKSOURCE_SYSCLK:
        pclk = HAL_RCC_GetSysClockFreq();
 8003eba:	f7fe fb1f 	bl	80024fc <HAL_RCC_GetSysClockFreq>
 8003ebe:	0003      	movs	r3, r0
 8003ec0:	61bb      	str	r3, [r7, #24]
        break;
 8003ec2:	e00a      	b.n	8003eda <UART_SetConfig+0x1d2>
      case UART_CLOCKSOURCE_LSE:
        pclk = (uint32_t) LSE_VALUE;
 8003ec4:	2380      	movs	r3, #128	; 0x80
 8003ec6:	021b      	lsls	r3, r3, #8
 8003ec8:	61bb      	str	r3, [r7, #24]
        break;
 8003eca:	e006      	b.n	8003eda <UART_SetConfig+0x1d2>
      default:
        pclk = 0U;
 8003ecc:	2300      	movs	r3, #0
 8003ece:	61bb      	str	r3, [r7, #24]
        ret = HAL_ERROR;
 8003ed0:	231e      	movs	r3, #30
 8003ed2:	18fb      	adds	r3, r7, r3
 8003ed4:	2201      	movs	r2, #1
 8003ed6:	701a      	strb	r2, [r3, #0]
        break;
 8003ed8:	46c0      	nop			; (mov r8, r8)
    }

    /* USARTDIV must be greater than or equal to 0d16 */
    if (pclk != 0U)
 8003eda:	69bb      	ldr	r3, [r7, #24]
 8003edc:	2b00      	cmp	r3, #0
 8003ede:	d100      	bne.n	8003ee2 <UART_SetConfig+0x1da>
 8003ee0:	e07b      	b.n	8003fda <UART_SetConfig+0x2d2>
    {
      usartdiv = (uint16_t)(UART_DIV_SAMPLING8(pclk, huart->Init.BaudRate));
 8003ee2:	69bb      	ldr	r3, [r7, #24]
 8003ee4:	005a      	lsls	r2, r3, #1
 8003ee6:	687b      	ldr	r3, [r7, #4]
 8003ee8:	685b      	ldr	r3, [r3, #4]
 8003eea:	085b      	lsrs	r3, r3, #1
 8003eec:	18d2      	adds	r2, r2, r3
 8003eee:	687b      	ldr	r3, [r7, #4]
 8003ef0:	685b      	ldr	r3, [r3, #4]
 8003ef2:	0019      	movs	r1, r3
 8003ef4:	0010      	movs	r0, r2
 8003ef6:	f7fc f907 	bl	8000108 <__udivsi3>
 8003efa:	0003      	movs	r3, r0
 8003efc:	b29b      	uxth	r3, r3
 8003efe:	613b      	str	r3, [r7, #16]
      if ((usartdiv >= UART_BRR_MIN) && (usartdiv <= UART_BRR_MAX))
 8003f00:	693b      	ldr	r3, [r7, #16]
 8003f02:	2b0f      	cmp	r3, #15
 8003f04:	d91c      	bls.n	8003f40 <UART_SetConfig+0x238>
 8003f06:	693a      	ldr	r2, [r7, #16]
 8003f08:	2380      	movs	r3, #128	; 0x80
 8003f0a:	025b      	lsls	r3, r3, #9
 8003f0c:	429a      	cmp	r2, r3
 8003f0e:	d217      	bcs.n	8003f40 <UART_SetConfig+0x238>
      {
        brrtemp = (uint16_t)(usartdiv & 0xFFF0U);
 8003f10:	693b      	ldr	r3, [r7, #16]
 8003f12:	b29a      	uxth	r2, r3
 8003f14:	200e      	movs	r0, #14
 8003f16:	183b      	adds	r3, r7, r0
 8003f18:	210f      	movs	r1, #15
 8003f1a:	438a      	bics	r2, r1
 8003f1c:	801a      	strh	r2, [r3, #0]
        brrtemp |= (uint16_t)((usartdiv & (uint16_t)0x000FU) >> 1U);
 8003f1e:	693b      	ldr	r3, [r7, #16]
 8003f20:	085b      	lsrs	r3, r3, #1
 8003f22:	b29b      	uxth	r3, r3
 8003f24:	2207      	movs	r2, #7
 8003f26:	4013      	ands	r3, r2
 8003f28:	b299      	uxth	r1, r3
 8003f2a:	183b      	adds	r3, r7, r0
 8003f2c:	183a      	adds	r2, r7, r0
 8003f2e:	8812      	ldrh	r2, [r2, #0]
 8003f30:	430a      	orrs	r2, r1
 8003f32:	801a      	strh	r2, [r3, #0]
        huart->Instance->BRR = brrtemp;
 8003f34:	687b      	ldr	r3, [r7, #4]
 8003f36:	681b      	ldr	r3, [r3, #0]
 8003f38:	183a      	adds	r2, r7, r0
 8003f3a:	8812      	ldrh	r2, [r2, #0]
 8003f3c:	60da      	str	r2, [r3, #12]
 8003f3e:	e04c      	b.n	8003fda <UART_SetConfig+0x2d2>
      }
      else
      {
        ret = HAL_ERROR;
 8003f40:	231e      	movs	r3, #30
 8003f42:	18fb      	adds	r3, r7, r3
 8003f44:	2201      	movs	r2, #1
 8003f46:	701a      	strb	r2, [r3, #0]
 8003f48:	e047      	b.n	8003fda <UART_SetConfig+0x2d2>
      }
    }
  }
  else
  {
    switch (clocksource)
 8003f4a:	231f      	movs	r3, #31
 8003f4c:	18fb      	adds	r3, r7, r3
 8003f4e:	781b      	ldrb	r3, [r3, #0]
 8003f50:	2b08      	cmp	r3, #8
 8003f52:	d015      	beq.n	8003f80 <UART_SetConfig+0x278>
 8003f54:	dc18      	bgt.n	8003f88 <UART_SetConfig+0x280>
 8003f56:	2b04      	cmp	r3, #4
 8003f58:	d00d      	beq.n	8003f76 <UART_SetConfig+0x26e>
 8003f5a:	dc15      	bgt.n	8003f88 <UART_SetConfig+0x280>
 8003f5c:	2b00      	cmp	r3, #0
 8003f5e:	d002      	beq.n	8003f66 <UART_SetConfig+0x25e>
 8003f60:	2b02      	cmp	r3, #2
 8003f62:	d005      	beq.n	8003f70 <UART_SetConfig+0x268>
 8003f64:	e010      	b.n	8003f88 <UART_SetConfig+0x280>
    {
      case UART_CLOCKSOURCE_PCLK1:
        pclk = HAL_RCC_GetPCLK1Freq();
 8003f66:	f7fe fb53 	bl	8002610 <HAL_RCC_GetPCLK1Freq>
 8003f6a:	0003      	movs	r3, r0
 8003f6c:	61bb      	str	r3, [r7, #24]
        break;
 8003f6e:	e012      	b.n	8003f96 <UART_SetConfig+0x28e>
      case UART_CLOCKSOURCE_HSI:
        pclk = (uint32_t) HSI_VALUE;
 8003f70:	4b28      	ldr	r3, [pc, #160]	; (8004014 <UART_SetConfig+0x30c>)
 8003f72:	61bb      	str	r3, [r7, #24]
        break;
 8003f74:	e00f      	b.n	8003f96 <UART_SetConfig+0x28e>
      case UART_CLOCKSOURCE_SYSCLK:
        pclk = HAL_RCC_GetSysClockFreq();
 8003f76:	f7fe fac1 	bl	80024fc <HAL_RCC_GetSysClockFreq>
 8003f7a:	0003      	movs	r3, r0
 8003f7c:	61bb      	str	r3, [r7, #24]
        break;
 8003f7e:	e00a      	b.n	8003f96 <UART_SetConfig+0x28e>
      case UART_CLOCKSOURCE_LSE:
        pclk = (uint32_t) LSE_VALUE;
 8003f80:	2380      	movs	r3, #128	; 0x80
 8003f82:	021b      	lsls	r3, r3, #8
 8003f84:	61bb      	str	r3, [r7, #24]
        break;
 8003f86:	e006      	b.n	8003f96 <UART_SetConfig+0x28e>
      default:
        pclk = 0U;
 8003f88:	2300      	movs	r3, #0
 8003f8a:	61bb      	str	r3, [r7, #24]
        ret = HAL_ERROR;
 8003f8c:	231e      	movs	r3, #30
 8003f8e:	18fb      	adds	r3, r7, r3
 8003f90:	2201      	movs	r2, #1
 8003f92:	701a      	strb	r2, [r3, #0]
        break;
 8003f94:	46c0      	nop			; (mov r8, r8)
    }

    if (pclk != 0U)
 8003f96:	69bb      	ldr	r3, [r7, #24]
 8003f98:	2b00      	cmp	r3, #0
 8003f9a:	d01e      	beq.n	8003fda <UART_SetConfig+0x2d2>
    {
      /* USARTDIV must be greater than or equal to 0d16 */
      usartdiv = (uint16_t)(UART_DIV_SAMPLING16(pclk, huart->Init.BaudRate));
 8003f9c:	687b      	ldr	r3, [r7, #4]
 8003f9e:	685b      	ldr	r3, [r3, #4]
 8003fa0:	085a      	lsrs	r2, r3, #1
 8003fa2:	69bb      	ldr	r3, [r7, #24]
 8003fa4:	18d2      	adds	r2, r2, r3
 8003fa6:	687b      	ldr	r3, [r7, #4]
 8003fa8:	685b      	ldr	r3, [r3, #4]
 8003faa:	0019      	movs	r1, r3
 8003fac:	0010      	movs	r0, r2
 8003fae:	f7fc f8ab 	bl	8000108 <__udivsi3>
 8003fb2:	0003      	movs	r3, r0
 8003fb4:	b29b      	uxth	r3, r3
 8003fb6:	613b      	str	r3, [r7, #16]
      if ((usartdiv >= UART_BRR_MIN) && (usartdiv <= UART_BRR_MAX))
 8003fb8:	693b      	ldr	r3, [r7, #16]
 8003fba:	2b0f      	cmp	r3, #15
 8003fbc:	d909      	bls.n	8003fd2 <UART_SetConfig+0x2ca>
 8003fbe:	693a      	ldr	r2, [r7, #16]
 8003fc0:	2380      	movs	r3, #128	; 0x80
 8003fc2:	025b      	lsls	r3, r3, #9
 8003fc4:	429a      	cmp	r2, r3
 8003fc6:	d204      	bcs.n	8003fd2 <UART_SetConfig+0x2ca>
      {
        huart->Instance->BRR = usartdiv;
 8003fc8:	687b      	ldr	r3, [r7, #4]
 8003fca:	681b      	ldr	r3, [r3, #0]
 8003fcc:	693a      	ldr	r2, [r7, #16]
 8003fce:	60da      	str	r2, [r3, #12]
 8003fd0:	e003      	b.n	8003fda <UART_SetConfig+0x2d2>
      }
      else
      {
        ret = HAL_ERROR;
 8003fd2:	231e      	movs	r3, #30
 8003fd4:	18fb      	adds	r3, r7, r3
 8003fd6:	2201      	movs	r2, #1
 8003fd8:	701a      	strb	r2, [r3, #0]
    }
  }


  /* Clear ISR function pointers */
  huart->RxISR = NULL;
 8003fda:	687b      	ldr	r3, [r7, #4]
 8003fdc:	2200      	movs	r2, #0
 8003fde:	665a      	str	r2, [r3, #100]	; 0x64
  huart->TxISR = NULL;
 8003fe0:	687b      	ldr	r3, [r7, #4]
 8003fe2:	2200      	movs	r2, #0
 8003fe4:	669a      	str	r2, [r3, #104]	; 0x68

  return ret;
 8003fe6:	231e      	movs	r3, #30
 8003fe8:	18fb      	adds	r3, r7, r3
 8003fea:	781b      	ldrb	r3, [r3, #0]
}
 8003fec:	0018      	movs	r0, r3
 8003fee:	46bd      	mov	sp, r7
 8003ff0:	b008      	add	sp, #32
 8003ff2:	bd80      	pop	{r7, pc}
 8003ff4:	efff69f3 	.word	0xefff69f3
 8003ff8:	ffffcfff 	.word	0xffffcfff
 8003ffc:	fffff4ff 	.word	0xfffff4ff
 8004000:	40013800 	.word	0x40013800
 8004004:	40021000 	.word	0x40021000
 8004008:	40004400 	.word	0x40004400
 800400c:	40004800 	.word	0x40004800
 8004010:	40004c00 	.word	0x40004c00
 8004014:	007a1200 	.word	0x007a1200

08004018 <UART_AdvFeatureConfig>:
  * @brief Configure the UART peripheral advanced features.
  * @param huart UART handle.
  * @retval None
  */
void UART_AdvFeatureConfig(UART_HandleTypeDef *huart)
{
 8004018:	b580      	push	{r7, lr}
 800401a:	b082      	sub	sp, #8
 800401c:	af00      	add	r7, sp, #0
 800401e:	6078      	str	r0, [r7, #4]
  /* Check whether the set of advanced features to configure is properly set */
  assert_param(IS_UART_ADVFEATURE_INIT(huart->AdvancedInit.AdvFeatureInit));

  /* if required, configure TX pin active level inversion */
  if (HAL_IS_BIT_SET(huart->AdvancedInit.AdvFeatureInit, UART_ADVFEATURE_TXINVERT_INIT))
 8004020:	687b      	ldr	r3, [r7, #4]
 8004022:	6a5b      	ldr	r3, [r3, #36]	; 0x24
 8004024:	2201      	movs	r2, #1
 8004026:	4013      	ands	r3, r2
 8004028:	d00b      	beq.n	8004042 <UART_AdvFeatureConfig+0x2a>
  {
    assert_param(IS_UART_ADVFEATURE_TXINV(huart->AdvancedInit.TxPinLevelInvert));
    MODIFY_REG(huart->Instance->CR2, USART_CR2_TXINV, huart->AdvancedInit.TxPinLevelInvert);
 800402a:	687b      	ldr	r3, [r7, #4]
 800402c:	681b      	ldr	r3, [r3, #0]
 800402e:	685b      	ldr	r3, [r3, #4]
 8004030:	4a4a      	ldr	r2, [pc, #296]	; (800415c <UART_AdvFeatureConfig+0x144>)
 8004032:	4013      	ands	r3, r2
 8004034:	0019      	movs	r1, r3
 8004036:	687b      	ldr	r3, [r7, #4]
 8004038:	6a9a      	ldr	r2, [r3, #40]	; 0x28
 800403a:	687b      	ldr	r3, [r7, #4]
 800403c:	681b      	ldr	r3, [r3, #0]
 800403e:	430a      	orrs	r2, r1
 8004040:	605a      	str	r2, [r3, #4]
  }

  /* if required, configure RX pin active level inversion */
  if (HAL_IS_BIT_SET(huart->AdvancedInit.AdvFeatureInit, UART_ADVFEATURE_RXINVERT_INIT))
 8004042:	687b      	ldr	r3, [r7, #4]
 8004044:	6a5b      	ldr	r3, [r3, #36]	; 0x24
 8004046:	2202      	movs	r2, #2
 8004048:	4013      	ands	r3, r2
 800404a:	d00b      	beq.n	8004064 <UART_AdvFeatureConfig+0x4c>
  {
    assert_param(IS_UART_ADVFEATURE_RXINV(huart->AdvancedInit.RxPinLevelInvert));
    MODIFY_REG(huart->Instance->CR2, USART_CR2_RXINV, huart->AdvancedInit.RxPinLevelInvert);
 800404c:	687b      	ldr	r3, [r7, #4]
 800404e:	681b      	ldr	r3, [r3, #0]
 8004050:	685b      	ldr	r3, [r3, #4]
 8004052:	4a43      	ldr	r2, [pc, #268]	; (8004160 <UART_AdvFeatureConfig+0x148>)
 8004054:	4013      	ands	r3, r2
 8004056:	0019      	movs	r1, r3
 8004058:	687b      	ldr	r3, [r7, #4]
 800405a:	6ada      	ldr	r2, [r3, #44]	; 0x2c
 800405c:	687b      	ldr	r3, [r7, #4]
 800405e:	681b      	ldr	r3, [r3, #0]
 8004060:	430a      	orrs	r2, r1
 8004062:	605a      	str	r2, [r3, #4]
  }

  /* if required, configure data inversion */
  if (HAL_IS_BIT_SET(huart->AdvancedInit.AdvFeatureInit, UART_ADVFEATURE_DATAINVERT_INIT))
 8004064:	687b      	ldr	r3, [r7, #4]
 8004066:	6a5b      	ldr	r3, [r3, #36]	; 0x24
 8004068:	2204      	movs	r2, #4
 800406a:	4013      	ands	r3, r2
 800406c:	d00b      	beq.n	8004086 <UART_AdvFeatureConfig+0x6e>
  {
    assert_param(IS_UART_ADVFEATURE_DATAINV(huart->AdvancedInit.DataInvert));
    MODIFY_REG(huart->Instance->CR2, USART_CR2_DATAINV, huart->AdvancedInit.DataInvert);
 800406e:	687b      	ldr	r3, [r7, #4]
 8004070:	681b      	ldr	r3, [r3, #0]
 8004072:	685b      	ldr	r3, [r3, #4]
 8004074:	4a3b      	ldr	r2, [pc, #236]	; (8004164 <UART_AdvFeatureConfig+0x14c>)
 8004076:	4013      	ands	r3, r2
 8004078:	0019      	movs	r1, r3
 800407a:	687b      	ldr	r3, [r7, #4]
 800407c:	6b1a      	ldr	r2, [r3, #48]	; 0x30
 800407e:	687b      	ldr	r3, [r7, #4]
 8004080:	681b      	ldr	r3, [r3, #0]
 8004082:	430a      	orrs	r2, r1
 8004084:	605a      	str	r2, [r3, #4]
  }

  /* if required, configure RX/TX pins swap */
  if (HAL_IS_BIT_SET(huart->AdvancedInit.AdvFeatureInit, UART_ADVFEATURE_SWAP_INIT))
 8004086:	687b      	ldr	r3, [r7, #4]
 8004088:	6a5b      	ldr	r3, [r3, #36]	; 0x24
 800408a:	2208      	movs	r2, #8
 800408c:	4013      	ands	r3, r2
 800408e:	d00b      	beq.n	80040a8 <UART_AdvFeatureConfig+0x90>
  {
    assert_param(IS_UART_ADVFEATURE_SWAP(huart->AdvancedInit.Swap));
    MODIFY_REG(huart->Instance->CR2, USART_CR2_SWAP, huart->AdvancedInit.Swap);
 8004090:	687b      	ldr	r3, [r7, #4]
 8004092:	681b      	ldr	r3, [r3, #0]
 8004094:	685b      	ldr	r3, [r3, #4]
 8004096:	4a34      	ldr	r2, [pc, #208]	; (8004168 <UART_AdvFeatureConfig+0x150>)
 8004098:	4013      	ands	r3, r2
 800409a:	0019      	movs	r1, r3
 800409c:	687b      	ldr	r3, [r7, #4]
 800409e:	6b5a      	ldr	r2, [r3, #52]	; 0x34
 80040a0:	687b      	ldr	r3, [r7, #4]
 80040a2:	681b      	ldr	r3, [r3, #0]
 80040a4:	430a      	orrs	r2, r1
 80040a6:	605a      	str	r2, [r3, #4]
  }

  /* if required, configure RX overrun detection disabling */
  if (HAL_IS_BIT_SET(huart->AdvancedInit.AdvFeatureInit, UART_ADVFEATURE_RXOVERRUNDISABLE_INIT))
 80040a8:	687b      	ldr	r3, [r7, #4]
 80040aa:	6a5b      	ldr	r3, [r3, #36]	; 0x24
 80040ac:	2210      	movs	r2, #16
 80040ae:	4013      	ands	r3, r2
 80040b0:	d00b      	beq.n	80040ca <UART_AdvFeatureConfig+0xb2>
  {
    assert_param(IS_UART_OVERRUN(huart->AdvancedInit.OverrunDisable));
    MODIFY_REG(huart->Instance->CR3, USART_CR3_OVRDIS, huart->AdvancedInit.OverrunDisable);
 80040b2:	687b      	ldr	r3, [r7, #4]
 80040b4:	681b      	ldr	r3, [r3, #0]
 80040b6:	689b      	ldr	r3, [r3, #8]
 80040b8:	4a2c      	ldr	r2, [pc, #176]	; (800416c <UART_AdvFeatureConfig+0x154>)
 80040ba:	4013      	ands	r3, r2
 80040bc:	0019      	movs	r1, r3
 80040be:	687b      	ldr	r3, [r7, #4]
 80040c0:	6b9a      	ldr	r2, [r3, #56]	; 0x38
 80040c2:	687b      	ldr	r3, [r7, #4]
 80040c4:	681b      	ldr	r3, [r3, #0]
 80040c6:	430a      	orrs	r2, r1
 80040c8:	609a      	str	r2, [r3, #8]
  }

  /* if required, configure DMA disabling on reception error */
  if (HAL_IS_BIT_SET(huart->AdvancedInit.AdvFeatureInit, UART_ADVFEATURE_DMADISABLEONERROR_INIT))
 80040ca:	687b      	ldr	r3, [r7, #4]
 80040cc:	6a5b      	ldr	r3, [r3, #36]	; 0x24
 80040ce:	2220      	movs	r2, #32
 80040d0:	4013      	ands	r3, r2
 80040d2:	d00b      	beq.n	80040ec <UART_AdvFeatureConfig+0xd4>
  {
    assert_param(IS_UART_ADVFEATURE_DMAONRXERROR(huart->AdvancedInit.DMADisableonRxError));
    MODIFY_REG(huart->Instance->CR3, USART_CR3_DDRE, huart->AdvancedInit.DMADisableonRxError);
 80040d4:	687b      	ldr	r3, [r7, #4]
 80040d6:	681b      	ldr	r3, [r3, #0]
 80040d8:	689b      	ldr	r3, [r3, #8]
 80040da:	4a25      	ldr	r2, [pc, #148]	; (8004170 <UART_AdvFeatureConfig+0x158>)
 80040dc:	4013      	ands	r3, r2
 80040de:	0019      	movs	r1, r3
 80040e0:	687b      	ldr	r3, [r7, #4]
 80040e2:	6bda      	ldr	r2, [r3, #60]	; 0x3c
 80040e4:	687b      	ldr	r3, [r7, #4]
 80040e6:	681b      	ldr	r3, [r3, #0]
 80040e8:	430a      	orrs	r2, r1
 80040ea:	609a      	str	r2, [r3, #8]
  }

  /* if required, configure auto Baud rate detection scheme */
  if (HAL_IS_BIT_SET(huart->AdvancedInit.AdvFeatureInit, UART_ADVFEATURE_AUTOBAUDRATE_INIT))
 80040ec:	687b      	ldr	r3, [r7, #4]
 80040ee:	6a5b      	ldr	r3, [r3, #36]	; 0x24
 80040f0:	2240      	movs	r2, #64	; 0x40
 80040f2:	4013      	ands	r3, r2
 80040f4:	d01d      	beq.n	8004132 <UART_AdvFeatureConfig+0x11a>
  {
    assert_param(IS_USART_AUTOBAUDRATE_DETECTION_INSTANCE(huart->Instance));
    assert_param(IS_UART_ADVFEATURE_AUTOBAUDRATE(huart->AdvancedInit.AutoBaudRateEnable));
    MODIFY_REG(huart->Instance->CR2, USART_CR2_ABREN, huart->AdvancedInit.AutoBaudRateEnable);
 80040f6:	687b      	ldr	r3, [r7, #4]
 80040f8:	681b      	ldr	r3, [r3, #0]
 80040fa:	685b      	ldr	r3, [r3, #4]
 80040fc:	4a1d      	ldr	r2, [pc, #116]	; (8004174 <UART_AdvFeatureConfig+0x15c>)
 80040fe:	4013      	ands	r3, r2
 8004100:	0019      	movs	r1, r3
 8004102:	687b      	ldr	r3, [r7, #4]
 8004104:	6c1a      	ldr	r2, [r3, #64]	; 0x40
 8004106:	687b      	ldr	r3, [r7, #4]
 8004108:	681b      	ldr	r3, [r3, #0]
 800410a:	430a      	orrs	r2, r1
 800410c:	605a      	str	r2, [r3, #4]
    /* set auto Baudrate detection parameters if detection is enabled */
    if (huart->AdvancedInit.AutoBaudRateEnable == UART_ADVFEATURE_AUTOBAUDRATE_ENABLE)
 800410e:	687b      	ldr	r3, [r7, #4]
 8004110:	6c1a      	ldr	r2, [r3, #64]	; 0x40
 8004112:	2380      	movs	r3, #128	; 0x80
 8004114:	035b      	lsls	r3, r3, #13
 8004116:	429a      	cmp	r2, r3
 8004118:	d10b      	bne.n	8004132 <UART_AdvFeatureConfig+0x11a>
    {
      assert_param(IS_UART_ADVFEATURE_AUTOBAUDRATEMODE(huart->AdvancedInit.AutoBaudRateMode));
      MODIFY_REG(huart->Instance->CR2, USART_CR2_ABRMODE, huart->AdvancedInit.AutoBaudRateMode);
 800411a:	687b      	ldr	r3, [r7, #4]
 800411c:	681b      	ldr	r3, [r3, #0]
 800411e:	685b      	ldr	r3, [r3, #4]
 8004120:	4a15      	ldr	r2, [pc, #84]	; (8004178 <UART_AdvFeatureConfig+0x160>)
 8004122:	4013      	ands	r3, r2
 8004124:	0019      	movs	r1, r3
 8004126:	687b      	ldr	r3, [r7, #4]
 8004128:	6c5a      	ldr	r2, [r3, #68]	; 0x44
 800412a:	687b      	ldr	r3, [r7, #4]
 800412c:	681b      	ldr	r3, [r3, #0]
 800412e:	430a      	orrs	r2, r1
 8004130:	605a      	str	r2, [r3, #4]
    }
  }

  /* if required, configure MSB first on communication line */
  if (HAL_IS_BIT_SET(huart->AdvancedInit.AdvFeatureInit, UART_ADVFEATURE_MSBFIRST_INIT))
 8004132:	687b      	ldr	r3, [r7, #4]
 8004134:	6a5b      	ldr	r3, [r3, #36]	; 0x24
 8004136:	2280      	movs	r2, #128	; 0x80
 8004138:	4013      	ands	r3, r2
 800413a:	d00b      	beq.n	8004154 <UART_AdvFeatureConfig+0x13c>
  {
    assert_param(IS_UART_ADVFEATURE_MSBFIRST(huart->AdvancedInit.MSBFirst));
    MODIFY_REG(huart->Instance->CR2, USART_CR2_MSBFIRST, huart->AdvancedInit.MSBFirst);
 800413c:	687b      	ldr	r3, [r7, #4]
 800413e:	681b      	ldr	r3, [r3, #0]
 8004140:	685b      	ldr	r3, [r3, #4]
 8004142:	4a0e      	ldr	r2, [pc, #56]	; (800417c <UART_AdvFeatureConfig+0x164>)
 8004144:	4013      	ands	r3, r2
 8004146:	0019      	movs	r1, r3
 8004148:	687b      	ldr	r3, [r7, #4]
 800414a:	6c9a      	ldr	r2, [r3, #72]	; 0x48
 800414c:	687b      	ldr	r3, [r7, #4]
 800414e:	681b      	ldr	r3, [r3, #0]
 8004150:	430a      	orrs	r2, r1
 8004152:	605a      	str	r2, [r3, #4]
  }
}
 8004154:	46c0      	nop			; (mov r8, r8)
 8004156:	46bd      	mov	sp, r7
 8004158:	b002      	add	sp, #8
 800415a:	bd80      	pop	{r7, pc}
 800415c:	fffdffff 	.word	0xfffdffff
 8004160:	fffeffff 	.word	0xfffeffff
 8004164:	fffbffff 	.word	0xfffbffff
 8004168:	ffff7fff 	.word	0xffff7fff
 800416c:	ffffefff 	.word	0xffffefff
 8004170:	ffffdfff 	.word	0xffffdfff
 8004174:	ffefffff 	.word	0xffefffff
 8004178:	ff9fffff 	.word	0xff9fffff
 800417c:	fff7ffff 	.word	0xfff7ffff

08004180 <UART_CheckIdleState>:
  * @brief Check the UART Idle State.
  * @param huart UART handle.
  * @retval HAL status
  */
HAL_StatusTypeDef UART_CheckIdleState(UART_HandleTypeDef *huart)
{
 8004180:	b580      	push	{r7, lr}
 8004182:	b086      	sub	sp, #24
 8004184:	af02      	add	r7, sp, #8
 8004186:	6078      	str	r0, [r7, #4]
  uint32_t tickstart;

  /* Initialize the UART ErrorCode */
  huart->ErrorCode = HAL_UART_ERROR_NONE;
 8004188:	687b      	ldr	r3, [r7, #4]
 800418a:	2280      	movs	r2, #128	; 0x80
 800418c:	2100      	movs	r1, #0
 800418e:	5099      	str	r1, [r3, r2]

  /* Init tickstart for timeout management */
  tickstart = HAL_GetTick();
 8004190:	f7fd fadc 	bl	800174c <HAL_GetTick>
 8004194:	0003      	movs	r3, r0
 8004196:	60fb      	str	r3, [r7, #12]

  /* Check if the Transmitter is enabled */
  if ((huart->Instance->CR1 & USART_CR1_TE) == USART_CR1_TE)
 8004198:	687b      	ldr	r3, [r7, #4]
 800419a:	681b      	ldr	r3, [r3, #0]
 800419c:	681b      	ldr	r3, [r3, #0]
 800419e:	2208      	movs	r2, #8
 80041a0:	4013      	ands	r3, r2
 80041a2:	2b08      	cmp	r3, #8
 80041a4:	d10c      	bne.n	80041c0 <UART_CheckIdleState+0x40>
  {
    /* Wait until TEACK flag is set */
    if (UART_WaitOnFlagUntilTimeout(huart, USART_ISR_TEACK, RESET, tickstart, HAL_UART_TIMEOUT_VALUE) != HAL_OK)
 80041a6:	68fb      	ldr	r3, [r7, #12]
 80041a8:	2280      	movs	r2, #128	; 0x80
 80041aa:	0391      	lsls	r1, r2, #14
 80041ac:	6878      	ldr	r0, [r7, #4]
 80041ae:	4a17      	ldr	r2, [pc, #92]	; (800420c <UART_CheckIdleState+0x8c>)
 80041b0:	9200      	str	r2, [sp, #0]
 80041b2:	2200      	movs	r2, #0
 80041b4:	f000 f82c 	bl	8004210 <UART_WaitOnFlagUntilTimeout>
 80041b8:	1e03      	subs	r3, r0, #0
 80041ba:	d001      	beq.n	80041c0 <UART_CheckIdleState+0x40>
    {
      /* Timeout occurred */
      return HAL_TIMEOUT;
 80041bc:	2303      	movs	r3, #3
 80041be:	e021      	b.n	8004204 <UART_CheckIdleState+0x84>
    }
  }

  /* Check if the Receiver is enabled */
  if ((huart->Instance->CR1 & USART_CR1_RE) == USART_CR1_RE)
 80041c0:	687b      	ldr	r3, [r7, #4]
 80041c2:	681b      	ldr	r3, [r3, #0]
 80041c4:	681b      	ldr	r3, [r3, #0]
 80041c6:	2204      	movs	r2, #4
 80041c8:	4013      	ands	r3, r2
 80041ca:	2b04      	cmp	r3, #4
 80041cc:	d10c      	bne.n	80041e8 <UART_CheckIdleState+0x68>
  {
    /* Wait until REACK flag is set */
    if (UART_WaitOnFlagUntilTimeout(huart, USART_ISR_REACK, RESET, tickstart, HAL_UART_TIMEOUT_VALUE) != HAL_OK)
 80041ce:	68fb      	ldr	r3, [r7, #12]
 80041d0:	2280      	movs	r2, #128	; 0x80
 80041d2:	03d1      	lsls	r1, r2, #15
 80041d4:	6878      	ldr	r0, [r7, #4]
 80041d6:	4a0d      	ldr	r2, [pc, #52]	; (800420c <UART_CheckIdleState+0x8c>)
 80041d8:	9200      	str	r2, [sp, #0]
 80041da:	2200      	movs	r2, #0
 80041dc:	f000 f818 	bl	8004210 <UART_WaitOnFlagUntilTimeout>
 80041e0:	1e03      	subs	r3, r0, #0
 80041e2:	d001      	beq.n	80041e8 <UART_CheckIdleState+0x68>
    {
      /* Timeout occurred */
      return HAL_TIMEOUT;
 80041e4:	2303      	movs	r3, #3
 80041e6:	e00d      	b.n	8004204 <UART_CheckIdleState+0x84>
    }
  }

  /* Initialize the UART State */
  huart->gState = HAL_UART_STATE_READY;
 80041e8:	687b      	ldr	r3, [r7, #4]
 80041ea:	2220      	movs	r2, #32
 80041ec:	679a      	str	r2, [r3, #120]	; 0x78
  huart->RxState = HAL_UART_STATE_READY;
 80041ee:	687b      	ldr	r3, [r7, #4]
 80041f0:	2220      	movs	r2, #32
 80041f2:	67da      	str	r2, [r3, #124]	; 0x7c
  huart->ReceptionType = HAL_UART_RECEPTION_STANDARD;
 80041f4:	687b      	ldr	r3, [r7, #4]
 80041f6:	2200      	movs	r2, #0
 80041f8:	661a      	str	r2, [r3, #96]	; 0x60

  __HAL_UNLOCK(huart);
 80041fa:	687b      	ldr	r3, [r7, #4]
 80041fc:	2274      	movs	r2, #116	; 0x74
 80041fe:	2100      	movs	r1, #0
 8004200:	5499      	strb	r1, [r3, r2]

  return HAL_OK;
 8004202:	2300      	movs	r3, #0
}
 8004204:	0018      	movs	r0, r3
 8004206:	46bd      	mov	sp, r7
 8004208:	b004      	add	sp, #16
 800420a:	bd80      	pop	{r7, pc}
 800420c:	01ffffff 	.word	0x01ffffff

08004210 <UART_WaitOnFlagUntilTimeout>:
  * @param Timeout   Timeout duration
  * @retval HAL status
  */
HAL_StatusTypeDef UART_WaitOnFlagUntilTimeout(UART_HandleTypeDef *huart, uint32_t Flag, FlagStatus Status,
                                              uint32_t Tickstart, uint32_t Timeout)
{
 8004210:	b580      	push	{r7, lr}
 8004212:	b094      	sub	sp, #80	; 0x50
 8004214:	af00      	add	r7, sp, #0
 8004216:	60f8      	str	r0, [r7, #12]
 8004218:	60b9      	str	r1, [r7, #8]
 800421a:	603b      	str	r3, [r7, #0]
 800421c:	1dfb      	adds	r3, r7, #7
 800421e:	701a      	strb	r2, [r3, #0]
  /* Wait until flag is set */
  while ((__HAL_UART_GET_FLAG(huart, Flag) ? SET : RESET) == Status)
 8004220:	e0a3      	b.n	800436a <UART_WaitOnFlagUntilTimeout+0x15a>
  {
    /* Check for the Timeout */
    if (Timeout != HAL_MAX_DELAY)
 8004222:	6dbb      	ldr	r3, [r7, #88]	; 0x58
 8004224:	3301      	adds	r3, #1
 8004226:	d100      	bne.n	800422a <UART_WaitOnFlagUntilTimeout+0x1a>
 8004228:	e09f      	b.n	800436a <UART_WaitOnFlagUntilTimeout+0x15a>
    {
      if (((HAL_GetTick() - Tickstart) > Timeout) || (Timeout == 0U))
 800422a:	f7fd fa8f 	bl	800174c <HAL_GetTick>
 800422e:	0002      	movs	r2, r0
 8004230:	683b      	ldr	r3, [r7, #0]
 8004232:	1ad3      	subs	r3, r2, r3
 8004234:	6dba      	ldr	r2, [r7, #88]	; 0x58
 8004236:	429a      	cmp	r2, r3
 8004238:	d302      	bcc.n	8004240 <UART_WaitOnFlagUntilTimeout+0x30>
 800423a:	6dbb      	ldr	r3, [r7, #88]	; 0x58
 800423c:	2b00      	cmp	r3, #0
 800423e:	d13d      	bne.n	80042bc <UART_WaitOnFlagUntilTimeout+0xac>
 */
__STATIC_FORCEINLINE uint32_t __get_PRIMASK(void)
{
  uint32_t result;

  __ASM volatile ("MRS %0, primask" : "=r" (result) :: "memory");
 8004240:	f3ef 8310 	mrs	r3, PRIMASK
 8004244:	62bb      	str	r3, [r7, #40]	; 0x28
  return(result);
 8004246:	6abb      	ldr	r3, [r7, #40]	; 0x28
      {
        /* Disable TXE, RXNE, PE and ERR (Frame error, noise error, overrun error)
           interrupts for the interrupt process */
        ATOMIC_CLEAR_BIT(huart->Instance->CR1, (USART_CR1_RXNEIE | USART_CR1_PEIE | USART_CR1_TXEIE));
 8004248:	647b      	str	r3, [r7, #68]	; 0x44
 800424a:	2301      	movs	r3, #1
 800424c:	62fb      	str	r3, [r7, #44]	; 0x2c
  \details Assigns the given value to the Priority Mask Register.
  \param [in]    priMask  Priority Mask
 */
__STATIC_FORCEINLINE void __set_PRIMASK(uint32_t priMask)
{
  __ASM volatile ("MSR primask, %0" : : "r" (priMask) : "memory");
 800424e:	6afb      	ldr	r3, [r7, #44]	; 0x2c
 8004250:	f383 8810 	msr	PRIMASK, r3
}
 8004254:	46c0      	nop			; (mov r8, r8)
 8004256:	68fb      	ldr	r3, [r7, #12]
 8004258:	681b      	ldr	r3, [r3, #0]
 800425a:	681a      	ldr	r2, [r3, #0]
 800425c:	68fb      	ldr	r3, [r7, #12]
 800425e:	681b      	ldr	r3, [r3, #0]
 8004260:	494c      	ldr	r1, [pc, #304]	; (8004394 <UART_WaitOnFlagUntilTimeout+0x184>)
 8004262:	400a      	ands	r2, r1
 8004264:	601a      	str	r2, [r3, #0]
 8004266:	6c7b      	ldr	r3, [r7, #68]	; 0x44
 8004268:	633b      	str	r3, [r7, #48]	; 0x30
  __ASM volatile ("MSR primask, %0" : : "r" (priMask) : "memory");
 800426a:	6b3b      	ldr	r3, [r7, #48]	; 0x30
 800426c:	f383 8810 	msr	PRIMASK, r3
}
 8004270:	46c0      	nop			; (mov r8, r8)
  __ASM volatile ("MRS %0, primask" : "=r" (result) :: "memory");
 8004272:	f3ef 8310 	mrs	r3, PRIMASK
 8004276:	637b      	str	r3, [r7, #52]	; 0x34
  return(result);
 8004278:	6b7b      	ldr	r3, [r7, #52]	; 0x34
        ATOMIC_CLEAR_BIT(huart->Instance->CR3, USART_CR3_EIE);
 800427a:	643b      	str	r3, [r7, #64]	; 0x40
 800427c:	2301      	movs	r3, #1
 800427e:	63bb      	str	r3, [r7, #56]	; 0x38
  __ASM volatile ("MSR primask, %0" : : "r" (priMask) : "memory");
 8004280:	6bbb      	ldr	r3, [r7, #56]	; 0x38
 8004282:	f383 8810 	msr	PRIMASK, r3
}
 8004286:	46c0      	nop			; (mov r8, r8)
 8004288:	68fb      	ldr	r3, [r7, #12]
 800428a:	681b      	ldr	r3, [r3, #0]
 800428c:	689a      	ldr	r2, [r3, #8]
 800428e:	68fb      	ldr	r3, [r7, #12]
 8004290:	681b      	ldr	r3, [r3, #0]
 8004292:	2101      	movs	r1, #1
 8004294:	438a      	bics	r2, r1
 8004296:	609a      	str	r2, [r3, #8]
 8004298:	6c3b      	ldr	r3, [r7, #64]	; 0x40
 800429a:	63fb      	str	r3, [r7, #60]	; 0x3c
  __ASM volatile ("MSR primask, %0" : : "r" (priMask) : "memory");
 800429c:	6bfb      	ldr	r3, [r7, #60]	; 0x3c
 800429e:	f383 8810 	msr	PRIMASK, r3
}
 80042a2:	46c0      	nop			; (mov r8, r8)

        huart->gState = HAL_UART_STATE_READY;
 80042a4:	68fb      	ldr	r3, [r7, #12]
 80042a6:	2220      	movs	r2, #32
 80042a8:	679a      	str	r2, [r3, #120]	; 0x78
        huart->RxState = HAL_UART_STATE_READY;
 80042aa:	68fb      	ldr	r3, [r7, #12]
 80042ac:	2220      	movs	r2, #32
 80042ae:	67da      	str	r2, [r3, #124]	; 0x7c

        __HAL_UNLOCK(huart);
 80042b0:	68fb      	ldr	r3, [r7, #12]
 80042b2:	2274      	movs	r2, #116	; 0x74
 80042b4:	2100      	movs	r1, #0
 80042b6:	5499      	strb	r1, [r3, r2]

        return HAL_TIMEOUT;
 80042b8:	2303      	movs	r3, #3
 80042ba:	e067      	b.n	800438c <UART_WaitOnFlagUntilTimeout+0x17c>
      }

      if (READ_BIT(huart->Instance->CR1, USART_CR1_RE) != 0U)
 80042bc:	68fb      	ldr	r3, [r7, #12]
 80042be:	681b      	ldr	r3, [r3, #0]
 80042c0:	681b      	ldr	r3, [r3, #0]
 80042c2:	2204      	movs	r2, #4
 80042c4:	4013      	ands	r3, r2
 80042c6:	d050      	beq.n	800436a <UART_WaitOnFlagUntilTimeout+0x15a>
      {
        if (__HAL_UART_GET_FLAG(huart, UART_FLAG_RTOF) == SET)
 80042c8:	68fb      	ldr	r3, [r7, #12]
 80042ca:	681b      	ldr	r3, [r3, #0]
 80042cc:	69da      	ldr	r2, [r3, #28]
 80042ce:	2380      	movs	r3, #128	; 0x80
 80042d0:	011b      	lsls	r3, r3, #4
 80042d2:	401a      	ands	r2, r3
 80042d4:	2380      	movs	r3, #128	; 0x80
 80042d6:	011b      	lsls	r3, r3, #4
 80042d8:	429a      	cmp	r2, r3
 80042da:	d146      	bne.n	800436a <UART_WaitOnFlagUntilTimeout+0x15a>
        {
          /* Clear Receiver Timeout flag*/
          __HAL_UART_CLEAR_FLAG(huart, UART_CLEAR_RTOF);
 80042dc:	68fb      	ldr	r3, [r7, #12]
 80042de:	681b      	ldr	r3, [r3, #0]
 80042e0:	2280      	movs	r2, #128	; 0x80
 80042e2:	0112      	lsls	r2, r2, #4
 80042e4:	621a      	str	r2, [r3, #32]
  __ASM volatile ("MRS %0, primask" : "=r" (result) :: "memory");
 80042e6:	f3ef 8310 	mrs	r3, PRIMASK
 80042ea:	613b      	str	r3, [r7, #16]
  return(result);
 80042ec:	693b      	ldr	r3, [r7, #16]

          /* Disable TXE, RXNE, PE and ERR (Frame error, noise error, overrun error)
             interrupts for the interrupt process */
          ATOMIC_CLEAR_BIT(huart->Instance->CR1, (USART_CR1_RXNEIE | USART_CR1_PEIE | USART_CR1_TXEIE));
 80042ee:	64fb      	str	r3, [r7, #76]	; 0x4c
 80042f0:	2301      	movs	r3, #1
 80042f2:	617b      	str	r3, [r7, #20]
  __ASM volatile ("MSR primask, %0" : : "r" (priMask) : "memory");
 80042f4:	697b      	ldr	r3, [r7, #20]
 80042f6:	f383 8810 	msr	PRIMASK, r3
}
 80042fa:	46c0      	nop			; (mov r8, r8)
 80042fc:	68fb      	ldr	r3, [r7, #12]
 80042fe:	681b      	ldr	r3, [r3, #0]
 8004300:	681a      	ldr	r2, [r3, #0]
 8004302:	68fb      	ldr	r3, [r7, #12]
 8004304:	681b      	ldr	r3, [r3, #0]
 8004306:	4923      	ldr	r1, [pc, #140]	; (8004394 <UART_WaitOnFlagUntilTimeout+0x184>)
 8004308:	400a      	ands	r2, r1
 800430a:	601a      	str	r2, [r3, #0]
 800430c:	6cfb      	ldr	r3, [r7, #76]	; 0x4c
 800430e:	61bb      	str	r3, [r7, #24]
  __ASM volatile ("MSR primask, %0" : : "r" (priMask) : "memory");
 8004310:	69bb      	ldr	r3, [r7, #24]
 8004312:	f383 8810 	msr	PRIMASK, r3
}
 8004316:	46c0      	nop			; (mov r8, r8)
  __ASM volatile ("MRS %0, primask" : "=r" (result) :: "memory");
 8004318:	f3ef 8310 	mrs	r3, PRIMASK
 800431c:	61fb      	str	r3, [r7, #28]
  return(result);
 800431e:	69fb      	ldr	r3, [r7, #28]
          ATOMIC_CLEAR_BIT(huart->Instance->CR3, USART_CR3_EIE);
 8004320:	64bb      	str	r3, [r7, #72]	; 0x48
 8004322:	2301      	movs	r3, #1
 8004324:	623b      	str	r3, [r7, #32]
  __ASM volatile ("MSR primask, %0" : : "r" (priMask) : "memory");
 8004326:	6a3b      	ldr	r3, [r7, #32]
 8004328:	f383 8810 	msr	PRIMASK, r3
}
 800432c:	46c0      	nop			; (mov r8, r8)
 800432e:	68fb      	ldr	r3, [r7, #12]
 8004330:	681b      	ldr	r3, [r3, #0]
 8004332:	689a      	ldr	r2, [r3, #8]
 8004334:	68fb      	ldr	r3, [r7, #12]
 8004336:	681b      	ldr	r3, [r3, #0]
 8004338:	2101      	movs	r1, #1
 800433a:	438a      	bics	r2, r1
 800433c:	609a      	str	r2, [r3, #8]
 800433e:	6cbb      	ldr	r3, [r7, #72]	; 0x48
 8004340:	627b      	str	r3, [r7, #36]	; 0x24
  __ASM volatile ("MSR primask, %0" : : "r" (priMask) : "memory");
 8004342:	6a7b      	ldr	r3, [r7, #36]	; 0x24
 8004344:	f383 8810 	msr	PRIMASK, r3
}
 8004348:	46c0      	nop			; (mov r8, r8)

          huart->gState = HAL_UART_STATE_READY;
 800434a:	68fb      	ldr	r3, [r7, #12]
 800434c:	2220      	movs	r2, #32
 800434e:	679a      	str	r2, [r3, #120]	; 0x78
          huart->RxState = HAL_UART_STATE_READY;
 8004350:	68fb      	ldr	r3, [r7, #12]
 8004352:	2220      	movs	r2, #32
 8004354:	67da      	str	r2, [r3, #124]	; 0x7c
          huart->ErrorCode = HAL_UART_ERROR_RTO;
 8004356:	68fb      	ldr	r3, [r7, #12]
 8004358:	2280      	movs	r2, #128	; 0x80
 800435a:	2120      	movs	r1, #32
 800435c:	5099      	str	r1, [r3, r2]

          /* Process Unlocked */
          __HAL_UNLOCK(huart);
 800435e:	68fb      	ldr	r3, [r7, #12]
 8004360:	2274      	movs	r2, #116	; 0x74
 8004362:	2100      	movs	r1, #0
 8004364:	5499      	strb	r1, [r3, r2]

          return HAL_TIMEOUT;
 8004366:	2303      	movs	r3, #3
 8004368:	e010      	b.n	800438c <UART_WaitOnFlagUntilTimeout+0x17c>
  while ((__HAL_UART_GET_FLAG(huart, Flag) ? SET : RESET) == Status)
 800436a:	68fb      	ldr	r3, [r7, #12]
 800436c:	681b      	ldr	r3, [r3, #0]
 800436e:	69db      	ldr	r3, [r3, #28]
 8004370:	68ba      	ldr	r2, [r7, #8]
 8004372:	4013      	ands	r3, r2
 8004374:	68ba      	ldr	r2, [r7, #8]
 8004376:	1ad3      	subs	r3, r2, r3
 8004378:	425a      	negs	r2, r3
 800437a:	4153      	adcs	r3, r2
 800437c:	b2db      	uxtb	r3, r3
 800437e:	001a      	movs	r2, r3
 8004380:	1dfb      	adds	r3, r7, #7
 8004382:	781b      	ldrb	r3, [r3, #0]
 8004384:	429a      	cmp	r2, r3
 8004386:	d100      	bne.n	800438a <UART_WaitOnFlagUntilTimeout+0x17a>
 8004388:	e74b      	b.n	8004222 <UART_WaitOnFlagUntilTimeout+0x12>
        }
      }
    }
  }
  return HAL_OK;
 800438a:	2300      	movs	r3, #0
}
 800438c:	0018      	movs	r0, r3
 800438e:	46bd      	mov	sp, r7
 8004390:	b014      	add	sp, #80	; 0x50
 8004392:	bd80      	pop	{r7, pc}
 8004394:	fffffe5f 	.word	0xfffffe5f

08004398 <__libc_init_array>:
 8004398:	b570      	push	{r4, r5, r6, lr}
 800439a:	2600      	movs	r6, #0
 800439c:	4d0c      	ldr	r5, [pc, #48]	; (80043d0 <__libc_init_array+0x38>)
 800439e:	4c0d      	ldr	r4, [pc, #52]	; (80043d4 <__libc_init_array+0x3c>)
 80043a0:	1b64      	subs	r4, r4, r5
 80043a2:	10a4      	asrs	r4, r4, #2
 80043a4:	42a6      	cmp	r6, r4
 80043a6:	d109      	bne.n	80043bc <__libc_init_array+0x24>
 80043a8:	2600      	movs	r6, #0
 80043aa:	f000 f821 	bl	80043f0 <_init>
 80043ae:	4d0a      	ldr	r5, [pc, #40]	; (80043d8 <__libc_init_array+0x40>)
 80043b0:	4c0a      	ldr	r4, [pc, #40]	; (80043dc <__libc_init_array+0x44>)
 80043b2:	1b64      	subs	r4, r4, r5
 80043b4:	10a4      	asrs	r4, r4, #2
 80043b6:	42a6      	cmp	r6, r4
 80043b8:	d105      	bne.n	80043c6 <__libc_init_array+0x2e>
 80043ba:	bd70      	pop	{r4, r5, r6, pc}
 80043bc:	00b3      	lsls	r3, r6, #2
 80043be:	58eb      	ldr	r3, [r5, r3]
 80043c0:	4798      	blx	r3
 80043c2:	3601      	adds	r6, #1
 80043c4:	e7ee      	b.n	80043a4 <__libc_init_array+0xc>
 80043c6:	00b3      	lsls	r3, r6, #2
 80043c8:	58eb      	ldr	r3, [r5, r3]
 80043ca:	4798      	blx	r3
 80043cc:	3601      	adds	r6, #1
 80043ce:	e7f2      	b.n	80043b6 <__libc_init_array+0x1e>
 80043d0:	08004488 	.word	0x08004488
 80043d4:	08004488 	.word	0x08004488
 80043d8:	08004488 	.word	0x08004488
 80043dc:	0800448c 	.word	0x0800448c

080043e0 <memset>:
 80043e0:	0003      	movs	r3, r0
 80043e2:	1882      	adds	r2, r0, r2
 80043e4:	4293      	cmp	r3, r2
 80043e6:	d100      	bne.n	80043ea <memset+0xa>
 80043e8:	4770      	bx	lr
 80043ea:	7019      	strb	r1, [r3, #0]
 80043ec:	3301      	adds	r3, #1
 80043ee:	e7f9      	b.n	80043e4 <memset+0x4>

080043f0 <_init>:
 80043f0:	b5f8      	push	{r3, r4, r5, r6, r7, lr}
 80043f2:	46c0      	nop			; (mov r8, r8)
 80043f4:	bcf8      	pop	{r3, r4, r5, r6, r7}
 80043f6:	bc08      	pop	{r3}
 80043f8:	469e      	mov	lr, r3
 80043fa:	4770      	bx	lr

080043fc <_fini>:
 80043fc:	b5f8      	push	{r3, r4, r5, r6, r7, lr}
 80043fe:	46c0      	nop			; (mov r8, r8)
 8004400:	bcf8      	pop	{r3, r4, r5, r6, r7}
 8004402:	bc08      	pop	{r3}
 8004404:	469e      	mov	lr, r3
 8004406:	4770      	bx	lr
