
embedded-bootcamp.elf:     file format elf32-littlearm

Sections:
Idx Name          Size      VMA       LMA       File off  Algn
  0 .isr_vector   000000c0  08000000  08000000  00010000  2**0
                  CONTENTS, ALLOC, LOAD, READONLY, DATA
  1 .text         00003880  080000c0  080000c0  000100c0  2**2
                  CONTENTS, ALLOC, LOAD, READONLY, CODE
  2 .rodata       00000038  08003940  08003940  00013940  2**2
                  CONTENTS, ALLOC, LOAD, READONLY, DATA
  3 .ARM.extab    00000000  08003978  08003978  0002000c  2**0
                  CONTENTS
  4 .ARM          00000000  08003978  08003978  0002000c  2**0
                  CONTENTS
  5 .preinit_array 00000000  08003978  08003978  0002000c  2**0
                  CONTENTS, ALLOC, LOAD, DATA
  6 .init_array   00000004  08003978  08003978  00013978  2**2
                  CONTENTS, ALLOC, LOAD, DATA
  7 .fini_array   00000004  0800397c  0800397c  0001397c  2**2
                  CONTENTS, ALLOC, LOAD, DATA
  8 .data         0000000c  20000000  08003980  00020000  2**2
                  CONTENTS, ALLOC, LOAD, DATA
  9 .bss          00000150  2000000c  0800398c  0002000c  2**2
                  ALLOC
 10 ._user_heap_stack 00000604  2000015c  0800398c  0002015c  2**0
                  ALLOC
 11 .ARM.attributes 00000028  00000000  00000000  0002000c  2**0
                  CONTENTS, READONLY
 12 .comment      00000043  00000000  00000000  00020034  2**0
                  CONTENTS, READONLY
 13 .debug_info   0000e0bd  00000000  00000000  00020077  2**0
                  CONTENTS, READONLY, DEBUGGING, OCTETS
 14 .debug_abbrev 000020b1  00000000  00000000  0002e134  2**0
                  CONTENTS, READONLY, DEBUGGING, OCTETS
 15 .debug_aranges 00000db0  00000000  00000000  000301e8  2**3
                  CONTENTS, READONLY, DEBUGGING, OCTETS
 16 .debug_rnglists 00000ac2  00000000  00000000  00030f98  2**0
                  CONTENTS, READONLY, DEBUGGING, OCTETS
 17 .debug_macro  00019c9d  00000000  00000000  00031a5a  2**0
                  CONTENTS, READONLY, DEBUGGING, OCTETS
 18 .debug_line   00011a1e  00000000  00000000  0004b6f7  2**0
                  CONTENTS, READONLY, DEBUGGING, OCTETS
 19 .debug_str    00096d2f  00000000  00000000  0005d115  2**0
                  CONTENTS, READONLY, DEBUGGING, OCTETS
 20 .debug_frame  000030b8  00000000  00000000  000f3e44  2**2
                  CONTENTS, READONLY, DEBUGGING, OCTETS
 21 .debug_line_str 0000004f  00000000  00000000  000f6efc  2**0
                  CONTENTS, READONLY, DEBUGGING, OCTETS

Disassembly of section .text:

080000c0 <__do_global_dtors_aux>:
 80000c0:	b510      	push	{r4, lr}
 80000c2:	4c06      	ldr	r4, [pc, #24]	; (80000dc <__do_global_dtors_aux+0x1c>)
 80000c4:	7823      	ldrb	r3, [r4, #0]
 80000c6:	2b00      	cmp	r3, #0
 80000c8:	d107      	bne.n	80000da <__do_global_dtors_aux+0x1a>
 80000ca:	4b05      	ldr	r3, [pc, #20]	; (80000e0 <__do_global_dtors_aux+0x20>)
 80000cc:	2b00      	cmp	r3, #0
 80000ce:	d002      	beq.n	80000d6 <__do_global_dtors_aux+0x16>
 80000d0:	4804      	ldr	r0, [pc, #16]	; (80000e4 <__do_global_dtors_aux+0x24>)
 80000d2:	e000      	b.n	80000d6 <__do_global_dtors_aux+0x16>
 80000d4:	bf00      	nop
 80000d6:	2301      	movs	r3, #1
 80000d8:	7023      	strb	r3, [r4, #0]
 80000da:	bd10      	pop	{r4, pc}
 80000dc:	2000000c 	.word	0x2000000c
 80000e0:	00000000 	.word	0x00000000
 80000e4:	08003928 	.word	0x08003928

080000e8 <frame_dummy>:
 80000e8:	4b04      	ldr	r3, [pc, #16]	; (80000fc <frame_dummy+0x14>)
 80000ea:	b510      	push	{r4, lr}
 80000ec:	2b00      	cmp	r3, #0
 80000ee:	d003      	beq.n	80000f8 <frame_dummy+0x10>
 80000f0:	4903      	ldr	r1, [pc, #12]	; (8000100 <frame_dummy+0x18>)
 80000f2:	4804      	ldr	r0, [pc, #16]	; (8000104 <frame_dummy+0x1c>)
 80000f4:	e000      	b.n	80000f8 <frame_dummy+0x10>
 80000f6:	bf00      	nop
 80000f8:	bd10      	pop	{r4, pc}
 80000fa:	46c0      	nop			; (mov r8, r8)
 80000fc:	00000000 	.word	0x00000000
 8000100:	20000010 	.word	0x20000010
 8000104:	08003928 	.word	0x08003928

08000108 <__udivsi3>:
 8000108:	2200      	movs	r2, #0
 800010a:	0843      	lsrs	r3, r0, #1
 800010c:	428b      	cmp	r3, r1
 800010e:	d374      	bcc.n	80001fa <__udivsi3+0xf2>
 8000110:	0903      	lsrs	r3, r0, #4
 8000112:	428b      	cmp	r3, r1
 8000114:	d35f      	bcc.n	80001d6 <__udivsi3+0xce>
 8000116:	0a03      	lsrs	r3, r0, #8
 8000118:	428b      	cmp	r3, r1
 800011a:	d344      	bcc.n	80001a6 <__udivsi3+0x9e>
 800011c:	0b03      	lsrs	r3, r0, #12
 800011e:	428b      	cmp	r3, r1
 8000120:	d328      	bcc.n	8000174 <__udivsi3+0x6c>
 8000122:	0c03      	lsrs	r3, r0, #16
 8000124:	428b      	cmp	r3, r1
 8000126:	d30d      	bcc.n	8000144 <__udivsi3+0x3c>
 8000128:	22ff      	movs	r2, #255	; 0xff
 800012a:	0209      	lsls	r1, r1, #8
 800012c:	ba12      	rev	r2, r2
 800012e:	0c03      	lsrs	r3, r0, #16
 8000130:	428b      	cmp	r3, r1
 8000132:	d302      	bcc.n	800013a <__udivsi3+0x32>
 8000134:	1212      	asrs	r2, r2, #8
 8000136:	0209      	lsls	r1, r1, #8
 8000138:	d065      	beq.n	8000206 <__udivsi3+0xfe>
 800013a:	0b03      	lsrs	r3, r0, #12
 800013c:	428b      	cmp	r3, r1
 800013e:	d319      	bcc.n	8000174 <__udivsi3+0x6c>
 8000140:	e000      	b.n	8000144 <__udivsi3+0x3c>
 8000142:	0a09      	lsrs	r1, r1, #8
 8000144:	0bc3      	lsrs	r3, r0, #15
 8000146:	428b      	cmp	r3, r1
 8000148:	d301      	bcc.n	800014e <__udivsi3+0x46>
 800014a:	03cb      	lsls	r3, r1, #15
 800014c:	1ac0      	subs	r0, r0, r3
 800014e:	4152      	adcs	r2, r2
 8000150:	0b83      	lsrs	r3, r0, #14
 8000152:	428b      	cmp	r3, r1
 8000154:	d301      	bcc.n	800015a <__udivsi3+0x52>
 8000156:	038b      	lsls	r3, r1, #14
 8000158:	1ac0      	subs	r0, r0, r3
 800015a:	4152      	adcs	r2, r2
 800015c:	0b43      	lsrs	r3, r0, #13
 800015e:	428b      	cmp	r3, r1
 8000160:	d301      	bcc.n	8000166 <__udivsi3+0x5e>
 8000162:	034b      	lsls	r3, r1, #13
 8000164:	1ac0      	subs	r0, r0, r3
 8000166:	4152      	adcs	r2, r2
 8000168:	0b03      	lsrs	r3, r0, #12
 800016a:	428b      	cmp	r3, r1
 800016c:	d301      	bcc.n	8000172 <__udivsi3+0x6a>
 800016e:	030b      	lsls	r3, r1, #12
 8000170:	1ac0      	subs	r0, r0, r3
 8000172:	4152      	adcs	r2, r2
 8000174:	0ac3      	lsrs	r3, r0, #11
 8000176:	428b      	cmp	r3, r1
 8000178:	d301      	bcc.n	800017e <__udivsi3+0x76>
 800017a:	02cb      	lsls	r3, r1, #11
 800017c:	1ac0      	subs	r0, r0, r3
 800017e:	4152      	adcs	r2, r2
 8000180:	0a83      	lsrs	r3, r0, #10
 8000182:	428b      	cmp	r3, r1
 8000184:	d301      	bcc.n	800018a <__udivsi3+0x82>
 8000186:	028b      	lsls	r3, r1, #10
 8000188:	1ac0      	subs	r0, r0, r3
 800018a:	4152      	adcs	r2, r2
 800018c:	0a43      	lsrs	r3, r0, #9
 800018e:	428b      	cmp	r3, r1
 8000190:	d301      	bcc.n	8000196 <__udivsi3+0x8e>
 8000192:	024b      	lsls	r3, r1, #9
 8000194:	1ac0      	subs	r0, r0, r3
 8000196:	4152      	adcs	r2, r2
 8000198:	0a03      	lsrs	r3, r0, #8
 800019a:	428b      	cmp	r3, r1
 800019c:	d301      	bcc.n	80001a2 <__udivsi3+0x9a>
 800019e:	020b      	lsls	r3, r1, #8
 80001a0:	1ac0      	subs	r0, r0, r3
 80001a2:	4152      	adcs	r2, r2
 80001a4:	d2cd      	bcs.n	8000142 <__udivsi3+0x3a>
 80001a6:	09c3      	lsrs	r3, r0, #7
 80001a8:	428b      	cmp	r3, r1
 80001aa:	d301      	bcc.n	80001b0 <__udivsi3+0xa8>
 80001ac:	01cb      	lsls	r3, r1, #7
 80001ae:	1ac0      	subs	r0, r0, r3
 80001b0:	4152      	adcs	r2, r2
 80001b2:	0983      	lsrs	r3, r0, #6
 80001b4:	428b      	cmp	r3, r1
 80001b6:	d301      	bcc.n	80001bc <__udivsi3+0xb4>
 80001b8:	018b      	lsls	r3, r1, #6
 80001ba:	1ac0      	subs	r0, r0, r3
 80001bc:	4152      	adcs	r2, r2
 80001be:	0943      	lsrs	r3, r0, #5
 80001c0:	428b      	cmp	r3, r1
 80001c2:	d301      	bcc.n	80001c8 <__udivsi3+0xc0>
 80001c4:	014b      	lsls	r3, r1, #5
 80001c6:	1ac0      	subs	r0, r0, r3
 80001c8:	4152      	adcs	r2, r2
 80001ca:	0903      	lsrs	r3, r0, #4
 80001cc:	428b      	cmp	r3, r1
 80001ce:	d301      	bcc.n	80001d4 <__udivsi3+0xcc>
 80001d0:	010b      	lsls	r3, r1, #4
 80001d2:	1ac0      	subs	r0, r0, r3
 80001d4:	4152      	adcs	r2, r2
 80001d6:	08c3      	lsrs	r3, r0, #3
 80001d8:	428b      	cmp	r3, r1
 80001da:	d301      	bcc.n	80001e0 <__udivsi3+0xd8>
 80001dc:	00cb      	lsls	r3, r1, #3
 80001de:	1ac0      	subs	r0, r0, r3
 80001e0:	4152      	adcs	r2, r2
 80001e2:	0883      	lsrs	r3, r0, #2
 80001e4:	428b      	cmp	r3, r1
 80001e6:	d301      	bcc.n	80001ec <__udivsi3+0xe4>
 80001e8:	008b      	lsls	r3, r1, #2
 80001ea:	1ac0      	subs	r0, r0, r3
 80001ec:	4152      	adcs	r2, r2
 80001ee:	0843      	lsrs	r3, r0, #1
 80001f0:	428b      	cmp	r3, r1
 80001f2:	d301      	bcc.n	80001f8 <__udivsi3+0xf0>
 80001f4:	004b      	lsls	r3, r1, #1
 80001f6:	1ac0      	subs	r0, r0, r3
 80001f8:	4152      	adcs	r2, r2
 80001fa:	1a41      	subs	r1, r0, r1
 80001fc:	d200      	bcs.n	8000200 <__udivsi3+0xf8>
 80001fe:	4601      	mov	r1, r0
 8000200:	4152      	adcs	r2, r2
 8000202:	4610      	mov	r0, r2
 8000204:	4770      	bx	lr
 8000206:	e7ff      	b.n	8000208 <__udivsi3+0x100>
 8000208:	b501      	push	{r0, lr}
 800020a:	2000      	movs	r0, #0
 800020c:	f000 f806 	bl	800021c <__aeabi_idiv0>
 8000210:	bd02      	pop	{r1, pc}
 8000212:	46c0      	nop			; (mov r8, r8)

08000214 <__aeabi_uidivmod>:
 8000214:	2900      	cmp	r1, #0
 8000216:	d0f7      	beq.n	8000208 <__udivsi3+0x100>
 8000218:	e776      	b.n	8000108 <__udivsi3>
 800021a:	4770      	bx	lr

0800021c <__aeabi_idiv0>:
 800021c:	4770      	bx	lr
 800021e:	46c0      	nop			; (mov r8, r8)

08000220 <MX_GPIO_Init>:
 8000220:	b590      	push	{r4, r7, lr}
 8000222:	b08b      	sub	sp, #44	; 0x2c
 8000224:	af00      	add	r7, sp, #0
 8000226:	2414      	movs	r4, #20
 8000228:	193b      	adds	r3, r7, r4
 800022a:	0018      	movs	r0, r3
 800022c:	2314      	movs	r3, #20
 800022e:	001a      	movs	r2, r3
 8000230:	2100      	movs	r1, #0
 8000232:	f003 fb4d 	bl	80038d0 <memset>
 8000236:	4b41      	ldr	r3, [pc, #260]	; (800033c <MX_GPIO_Init+0x11c>)
 8000238:	695a      	ldr	r2, [r3, #20]
 800023a:	4b40      	ldr	r3, [pc, #256]	; (800033c <MX_GPIO_Init+0x11c>)
 800023c:	2180      	movs	r1, #128	; 0x80
 800023e:	0309      	lsls	r1, r1, #12
 8000240:	430a      	orrs	r2, r1
 8000242:	615a      	str	r2, [r3, #20]
 8000244:	4b3d      	ldr	r3, [pc, #244]	; (800033c <MX_GPIO_Init+0x11c>)
 8000246:	695a      	ldr	r2, [r3, #20]
 8000248:	2380      	movs	r3, #128	; 0x80
 800024a:	031b      	lsls	r3, r3, #12
 800024c:	4013      	ands	r3, r2
 800024e:	613b      	str	r3, [r7, #16]
 8000250:	693b      	ldr	r3, [r7, #16]
 8000252:	4b3a      	ldr	r3, [pc, #232]	; (800033c <MX_GPIO_Init+0x11c>)
 8000254:	695a      	ldr	r2, [r3, #20]
 8000256:	4b39      	ldr	r3, [pc, #228]	; (800033c <MX_GPIO_Init+0x11c>)
 8000258:	2180      	movs	r1, #128	; 0x80
 800025a:	03c9      	lsls	r1, r1, #15
 800025c:	430a      	orrs	r2, r1
 800025e:	615a      	str	r2, [r3, #20]
 8000260:	4b36      	ldr	r3, [pc, #216]	; (800033c <MX_GPIO_Init+0x11c>)
 8000262:	695a      	ldr	r2, [r3, #20]
 8000264:	2380      	movs	r3, #128	; 0x80
 8000266:	03db      	lsls	r3, r3, #15
 8000268:	4013      	ands	r3, r2
 800026a:	60fb      	str	r3, [r7, #12]
 800026c:	68fb      	ldr	r3, [r7, #12]
 800026e:	4b33      	ldr	r3, [pc, #204]	; (800033c <MX_GPIO_Init+0x11c>)
 8000270:	695a      	ldr	r2, [r3, #20]
 8000272:	4b32      	ldr	r3, [pc, #200]	; (800033c <MX_GPIO_Init+0x11c>)
 8000274:	2180      	movs	r1, #128	; 0x80
 8000276:	0289      	lsls	r1, r1, #10
 8000278:	430a      	orrs	r2, r1
 800027a:	615a      	str	r2, [r3, #20]
 800027c:	4b2f      	ldr	r3, [pc, #188]	; (800033c <MX_GPIO_Init+0x11c>)
 800027e:	695a      	ldr	r2, [r3, #20]
 8000280:	2380      	movs	r3, #128	; 0x80
 8000282:	029b      	lsls	r3, r3, #10
 8000284:	4013      	ands	r3, r2
 8000286:	60bb      	str	r3, [r7, #8]
 8000288:	68bb      	ldr	r3, [r7, #8]
 800028a:	4b2c      	ldr	r3, [pc, #176]	; (800033c <MX_GPIO_Init+0x11c>)
 800028c:	695a      	ldr	r2, [r3, #20]
 800028e:	4b2b      	ldr	r3, [pc, #172]	; (800033c <MX_GPIO_Init+0x11c>)
 8000290:	2180      	movs	r1, #128	; 0x80
 8000292:	02c9      	lsls	r1, r1, #11
 8000294:	430a      	orrs	r2, r1
 8000296:	615a      	str	r2, [r3, #20]
 8000298:	4b28      	ldr	r3, [pc, #160]	; (800033c <MX_GPIO_Init+0x11c>)
 800029a:	695a      	ldr	r2, [r3, #20]
 800029c:	2380      	movs	r3, #128	; 0x80
 800029e:	02db      	lsls	r3, r3, #11
 80002a0:	4013      	ands	r3, r2
 80002a2:	607b      	str	r3, [r7, #4]
 80002a4:	687b      	ldr	r3, [r7, #4]
 80002a6:	2390      	movs	r3, #144	; 0x90
 80002a8:	05db      	lsls	r3, r3, #23
 80002aa:	2200      	movs	r2, #0
 80002ac:	2120      	movs	r1, #32
 80002ae:	0018      	movs	r0, r3
 80002b0:	f000 fe66 	bl	8000f80 <HAL_GPIO_WritePin>
 80002b4:	2380      	movs	r3, #128	; 0x80
 80002b6:	005b      	lsls	r3, r3, #1
 80002b8:	4821      	ldr	r0, [pc, #132]	; (8000340 <MX_GPIO_Init+0x120>)
 80002ba:	2200      	movs	r2, #0
 80002bc:	0019      	movs	r1, r3
 80002be:	f000 fe5f 	bl	8000f80 <HAL_GPIO_WritePin>
 80002c2:	193b      	adds	r3, r7, r4
 80002c4:	2280      	movs	r2, #128	; 0x80
 80002c6:	0192      	lsls	r2, r2, #6
 80002c8:	601a      	str	r2, [r3, #0]
 80002ca:	193b      	adds	r3, r7, r4
 80002cc:	2284      	movs	r2, #132	; 0x84
 80002ce:	0392      	lsls	r2, r2, #14
 80002d0:	605a      	str	r2, [r3, #4]
 80002d2:	193b      	adds	r3, r7, r4
 80002d4:	2200      	movs	r2, #0
 80002d6:	609a      	str	r2, [r3, #8]
 80002d8:	193b      	adds	r3, r7, r4
 80002da:	4a1a      	ldr	r2, [pc, #104]	; (8000344 <MX_GPIO_Init+0x124>)
 80002dc:	0019      	movs	r1, r3
 80002de:	0010      	movs	r0, r2
 80002e0:	f000 fcd6 	bl	8000c90 <HAL_GPIO_Init>
 80002e4:	193b      	adds	r3, r7, r4
 80002e6:	2220      	movs	r2, #32
 80002e8:	601a      	str	r2, [r3, #0]
 80002ea:	193b      	adds	r3, r7, r4
 80002ec:	2201      	movs	r2, #1
 80002ee:	605a      	str	r2, [r3, #4]
 80002f0:	193b      	adds	r3, r7, r4
 80002f2:	2200      	movs	r2, #0
 80002f4:	609a      	str	r2, [r3, #8]
 80002f6:	193b      	adds	r3, r7, r4
 80002f8:	2200      	movs	r2, #0
 80002fa:	60da      	str	r2, [r3, #12]
 80002fc:	193a      	adds	r2, r7, r4
 80002fe:	2390      	movs	r3, #144	; 0x90
 8000300:	05db      	lsls	r3, r3, #23
 8000302:	0011      	movs	r1, r2
 8000304:	0018      	movs	r0, r3
 8000306:	f000 fcc3 	bl	8000c90 <HAL_GPIO_Init>
 800030a:	0021      	movs	r1, r4
 800030c:	187b      	adds	r3, r7, r1
 800030e:	2280      	movs	r2, #128	; 0x80
 8000310:	0052      	lsls	r2, r2, #1
 8000312:	601a      	str	r2, [r3, #0]
 8000314:	187b      	adds	r3, r7, r1
 8000316:	2201      	movs	r2, #1
 8000318:	605a      	str	r2, [r3, #4]
 800031a:	187b      	adds	r3, r7, r1
 800031c:	2200      	movs	r2, #0
 800031e:	609a      	str	r2, [r3, #8]
 8000320:	187b      	adds	r3, r7, r1
 8000322:	2200      	movs	r2, #0
 8000324:	60da      	str	r2, [r3, #12]
 8000326:	187b      	adds	r3, r7, r1
 8000328:	4a05      	ldr	r2, [pc, #20]	; (8000340 <MX_GPIO_Init+0x120>)
 800032a:	0019      	movs	r1, r3
 800032c:	0010      	movs	r0, r2
 800032e:	f000 fcaf 	bl	8000c90 <HAL_GPIO_Init>
 8000332:	46c0      	nop			; (mov r8, r8)
 8000334:	46bd      	mov	sp, r7
 8000336:	b00b      	add	sp, #44	; 0x2c
 8000338:	bd90      	pop	{r4, r7, pc}
 800033a:	46c0      	nop			; (mov r8, r8)
 800033c:	40021000 	.word	0x40021000
 8000340:	48000400 	.word	0x48000400
 8000344:	48000800 	.word	0x48000800

08000348 <main>:
/**
  * @brief  The application entry point.
  * @retval int
  */
int main(void)
{
 8000348:	b5f0      	push	{r4, r5, r6, r7, lr}
 800034a:	b087      	sub	sp, #28
 800034c:	af02      	add	r7, sp, #8
  /* USER CODE END 1 */

  /* MCU Configuration--------------------------------------------------------*/

  /* Reset of all peripherals, Initializes the Flash interface and the Systick. */
  HAL_Init();
 800034e:	f000 fb63 	bl	8000a18 <HAL_Init>
  /* USER CODE BEGIN Init */

  /* USER CODE END Init */

  /* Configure the system clock */
  SystemClock_Config();
 8000352:	f000 f85d 	bl	8000410 <SystemClock_Config>
  /* USER CODE BEGIN SysInit */

  /* USER CODE END SysInit */

  /* Initialize all configured peripherals */
  MX_GPIO_Init();
 8000356:	f7ff ff63 	bl	8000220 <MX_GPIO_Init>
  MX_USART2_UART_Init();
 800035a:	f000 fab7 	bl	80008cc <MX_USART2_UART_Init>
  MX_SPI1_Init();
 800035e:	f000 f8af 	bl	80004c0 <MX_SPI1_Init>
  MX_TIM1_Init();
 8000362:	f000 f99d 	bl	80006a0 <MX_TIM1_Init>
  /* USER CODE BEGIN 2 */
  HAL_TIM_PWM_Start(&htim1, TIM_CHANNEL_1);  // Start PWM on channel 1
 8000366:	4b26      	ldr	r3, [pc, #152]	; (8000400 <main+0xb8>)
 8000368:	2100      	movs	r1, #0
 800036a:	0018      	movs	r0, r3
 800036c:	f002 f8cc 	bl	8002508 <HAL_TIM_PWM_Start>
  /* Infinite loop */
  /* USER CODE BEGIN WHILE */
  while (1)
  {
	// Set the chip select low to start communication
	HAL_GPIO_WritePin(GPIOA, GPIO_PIN_8, GPIO_PIN_RESET);
 8000370:	2380      	movs	r3, #128	; 0x80
 8000372:	0059      	lsls	r1, r3, #1
 8000374:	2390      	movs	r3, #144	; 0x90
 8000376:	05db      	lsls	r3, r3, #23
 8000378:	2200      	movs	r2, #0
 800037a:	0018      	movs	r0, r3
 800037c:	f000 fe00 	bl	8000f80 <HAL_GPIO_WritePin>

	txData[0] = 0x1;  // 00000001 for start bit
 8000380:	1d3b      	adds	r3, r7, #4
 8000382:	2201      	movs	r2, #1
 8000384:	701a      	strb	r2, [r3, #0]
	txData[1] = 0x90; // 10010000 for single-ended on CH1
 8000386:	1d3b      	adds	r3, r7, #4
 8000388:	2290      	movs	r2, #144	; 0x90
 800038a:	705a      	strb	r2, [r3, #1]

	HAL_SPI_TransmitReceive(&hspi1, txData, rxData, 3, HAL_MAX_DELAY);
 800038c:	2408      	movs	r4, #8
 800038e:	193a      	adds	r2, r7, r4
 8000390:	1d39      	adds	r1, r7, #4
 8000392:	481c      	ldr	r0, [pc, #112]	; (8000404 <main+0xbc>)
 8000394:	2301      	movs	r3, #1
 8000396:	425b      	negs	r3, r3
 8000398:	9300      	str	r3, [sp, #0]
 800039a:	2303      	movs	r3, #3
 800039c:	f001 fcc4 	bl	8001d28 <HAL_SPI_TransmitReceive>
	uint16_t adc_value = ((rxData[1] << 8) & BIT9_10) | rxData[2];
 80003a0:	0021      	movs	r1, r4
 80003a2:	187b      	adds	r3, r7, r1
 80003a4:	785b      	ldrb	r3, [r3, #1]
 80003a6:	021b      	lsls	r3, r3, #8
 80003a8:	b21a      	sxth	r2, r3
 80003aa:	2380      	movs	r3, #128	; 0x80
 80003ac:	009b      	lsls	r3, r3, #2
 80003ae:	4013      	ands	r3, r2
 80003b0:	b21a      	sxth	r2, r3
 80003b2:	187b      	adds	r3, r7, r1
 80003b4:	789b      	ldrb	r3, [r3, #2]
 80003b6:	b21b      	sxth	r3, r3
 80003b8:	4313      	orrs	r3, r2
 80003ba:	b21a      	sxth	r2, r3
 80003bc:	250e      	movs	r5, #14
 80003be:	197b      	adds	r3, r7, r5
 80003c0:	801a      	strh	r2, [r3, #0]

	// Set the chip select high to end communication
	HAL_GPIO_WritePin(GPIOA, GPIO_PIN_8, GPIO_PIN_SET);
 80003c2:	2380      	movs	r3, #128	; 0x80
 80003c4:	0059      	lsls	r1, r3, #1
 80003c6:	2390      	movs	r3, #144	; 0x90
 80003c8:	05db      	lsls	r3, r3, #23
 80003ca:	2201      	movs	r2, #1
 80003cc:	0018      	movs	r0, r3
 80003ce:	f000 fdd7 	bl	8000f80 <HAL_GPIO_WritePin>

	uint16_t pwm_value = (adc_value / 1023); // dividing adc value by max count
 80003d2:	260c      	movs	r6, #12
 80003d4:	19bc      	adds	r4, r7, r6
 80003d6:	197b      	adds	r3, r7, r5
 80003d8:	881b      	ldrh	r3, [r3, #0]
 80003da:	490b      	ldr	r1, [pc, #44]	; (8000408 <main+0xc0>)
 80003dc:	0018      	movs	r0, r3
 80003de:	f7ff fe93 	bl	8000108 <__udivsi3>
 80003e2:	0003      	movs	r3, r0
 80003e4:	8023      	strh	r3, [r4, #0]
	TIM1->CCR1 = 7.5; // setting duty cycle to 7.5%
 80003e6:	4b09      	ldr	r3, [pc, #36]	; (800040c <main+0xc4>)
 80003e8:	2207      	movs	r2, #7
 80003ea:	635a      	str	r2, [r3, #52]	; 0x34

	__HAL_TIM_SET_COMPARE(&htim1, TIM_CHANNEL_1, pwm_value);
 80003ec:	4b04      	ldr	r3, [pc, #16]	; (8000400 <main+0xb8>)
 80003ee:	681b      	ldr	r3, [r3, #0]
 80003f0:	19ba      	adds	r2, r7, r6
 80003f2:	8812      	ldrh	r2, [r2, #0]
 80003f4:	635a      	str	r2, [r3, #52]	; 0x34
    /* USER CODE END WHILE */

    /* USER CODE BEGIN 3 */
	HAL_Delay(10);
 80003f6:	200a      	movs	r0, #10
 80003f8:	f000 fb72 	bl	8000ae0 <HAL_Delay>
  {
 80003fc:	e7b8      	b.n	8000370 <main+0x28>
 80003fe:	46c0      	nop			; (mov r8, r8)
 8000400:	2000008c 	.word	0x2000008c
 8000404:	20000028 	.word	0x20000028
 8000408:	000003ff 	.word	0x000003ff
 800040c:	40012c00 	.word	0x40012c00

08000410 <SystemClock_Config>:
/**
  * @brief System Clock Configuration
  * @retval None
  */
void SystemClock_Config(void)
{
 8000410:	b590      	push	{r4, r7, lr}
 8000412:	b099      	sub	sp, #100	; 0x64
 8000414:	af00      	add	r7, sp, #0
  RCC_OscInitTypeDef RCC_OscInitStruct = {0};
 8000416:	242c      	movs	r4, #44	; 0x2c
 8000418:	193b      	adds	r3, r7, r4
 800041a:	0018      	movs	r0, r3
 800041c:	2334      	movs	r3, #52	; 0x34
 800041e:	001a      	movs	r2, r3
 8000420:	2100      	movs	r1, #0
 8000422:	f003 fa55 	bl	80038d0 <memset>
  RCC_ClkInitTypeDef RCC_ClkInitStruct = {0};
 8000426:	231c      	movs	r3, #28
 8000428:	18fb      	adds	r3, r7, r3
 800042a:	0018      	movs	r0, r3
 800042c:	2310      	movs	r3, #16
 800042e:	001a      	movs	r2, r3
 8000430:	2100      	movs	r1, #0
 8000432:	f003 fa4d 	bl	80038d0 <memset>
  RCC_PeriphCLKInitTypeDef PeriphClkInit = {0};
 8000436:	003b      	movs	r3, r7
 8000438:	0018      	movs	r0, r3
 800043a:	231c      	movs	r3, #28
 800043c:	001a      	movs	r2, r3
 800043e:	2100      	movs	r1, #0
 8000440:	f003 fa46 	bl	80038d0 <memset>

  /** Initializes the RCC Oscillators according to the specified parameters
  * in the RCC_OscInitTypeDef structure.
  */
  RCC_OscInitStruct.OscillatorType = RCC_OSCILLATORTYPE_HSI48;
 8000444:	193b      	adds	r3, r7, r4
 8000446:	2220      	movs	r2, #32
 8000448:	601a      	str	r2, [r3, #0]
  RCC_OscInitStruct.HSI48State = RCC_HSI48_ON;
 800044a:	193b      	adds	r3, r7, r4
 800044c:	2201      	movs	r2, #1
 800044e:	621a      	str	r2, [r3, #32]
  RCC_OscInitStruct.PLL.PLLState = RCC_PLL_NONE;
 8000450:	193b      	adds	r3, r7, r4
 8000452:	2200      	movs	r2, #0
 8000454:	625a      	str	r2, [r3, #36]	; 0x24
  if (HAL_RCC_OscConfig(&RCC_OscInitStruct) != HAL_OK)
 8000456:	193b      	adds	r3, r7, r4
 8000458:	0018      	movs	r0, r3
 800045a:	f000 fdaf 	bl	8000fbc <HAL_RCC_OscConfig>
 800045e:	1e03      	subs	r3, r0, #0
 8000460:	d001      	beq.n	8000466 <SystemClock_Config+0x56>
  {
    Error_Handler();
 8000462:	f000 f828 	bl	80004b6 <Error_Handler>
  }
  /** Initializes the CPU, AHB and APB buses clocks
  */
  RCC_ClkInitStruct.ClockType = RCC_CLOCKTYPE_HCLK|RCC_CLOCKTYPE_SYSCLK
 8000466:	211c      	movs	r1, #28
 8000468:	187b      	adds	r3, r7, r1
 800046a:	2207      	movs	r2, #7
 800046c:	601a      	str	r2, [r3, #0]
                              |RCC_CLOCKTYPE_PCLK1;
  RCC_ClkInitStruct.SYSCLKSource = RCC_SYSCLKSOURCE_HSI48;
 800046e:	187b      	adds	r3, r7, r1
 8000470:	2203      	movs	r2, #3
 8000472:	605a      	str	r2, [r3, #4]
  RCC_ClkInitStruct.AHBCLKDivider = RCC_SYSCLK_DIV1;
 8000474:	187b      	adds	r3, r7, r1
 8000476:	2200      	movs	r2, #0
 8000478:	609a      	str	r2, [r3, #8]
  RCC_ClkInitStruct.APB1CLKDivider = RCC_HCLK_DIV1;
 800047a:	187b      	adds	r3, r7, r1
 800047c:	2200      	movs	r2, #0
 800047e:	60da      	str	r2, [r3, #12]

  if (HAL_RCC_ClockConfig(&RCC_ClkInitStruct, FLASH_LATENCY_1) != HAL_OK)
 8000480:	187b      	adds	r3, r7, r1
 8000482:	2101      	movs	r1, #1
 8000484:	0018      	movs	r0, r3
 8000486:	f001 f91f 	bl	80016c8 <HAL_RCC_ClockConfig>
 800048a:	1e03      	subs	r3, r0, #0
 800048c:	d001      	beq.n	8000492 <SystemClock_Config+0x82>
  {
    Error_Handler();
 800048e:	f000 f812 	bl	80004b6 <Error_Handler>
  }
  PeriphClkInit.PeriphClockSelection = RCC_PERIPHCLK_USART2;
 8000492:	003b      	movs	r3, r7
 8000494:	2202      	movs	r2, #2
 8000496:	601a      	str	r2, [r3, #0]
  PeriphClkInit.Usart2ClockSelection = RCC_USART2CLKSOURCE_PCLK1;
 8000498:	003b      	movs	r3, r7
 800049a:	2200      	movs	r2, #0
 800049c:	60da      	str	r2, [r3, #12]
  if (HAL_RCCEx_PeriphCLKConfig(&PeriphClkInit) != HAL_OK)
 800049e:	003b      	movs	r3, r7
 80004a0:	0018      	movs	r0, r3
 80004a2:	f001 fa8b 	bl	80019bc <HAL_RCCEx_PeriphCLKConfig>
 80004a6:	1e03      	subs	r3, r0, #0
 80004a8:	d001      	beq.n	80004ae <SystemClock_Config+0x9e>
  {
    Error_Handler();
 80004aa:	f000 f804 	bl	80004b6 <Error_Handler>
  }
}
 80004ae:	46c0      	nop			; (mov r8, r8)
 80004b0:	46bd      	mov	sp, r7
 80004b2:	b019      	add	sp, #100	; 0x64
 80004b4:	bd90      	pop	{r4, r7, pc}

080004b6 <Error_Handler>:
/**
  * @brief  This function is executed in case of error occurrence.
  * @retval None
  */
void Error_Handler(void)
{
 80004b6:	b580      	push	{r7, lr}
 80004b8:	af00      	add	r7, sp, #0
  \details Disables IRQ interrupts by setting the I-bit in the CPSR.
           Can only be executed in Privileged modes.
 */
__STATIC_FORCEINLINE void __disable_irq(void)
{
  __ASM volatile ("cpsid i" : : : "memory");
 80004ba:	b672      	cpsid	i
}
 80004bc:	46c0      	nop			; (mov r8, r8)
  /* USER CODE BEGIN Error_Handler_Debug */
  /* User can add his own implementation to report the HAL error return state */
  __disable_irq();
  while (1)
 80004be:	e7fe      	b.n	80004be <Error_Handler+0x8>

080004c0 <MX_SPI1_Init>:
 80004c0:	b580      	push	{r7, lr}
 80004c2:	af00      	add	r7, sp, #0
 80004c4:	4b1b      	ldr	r3, [pc, #108]	; (8000534 <MX_SPI1_Init+0x74>)
 80004c6:	4a1c      	ldr	r2, [pc, #112]	; (8000538 <MX_SPI1_Init+0x78>)
 80004c8:	601a      	str	r2, [r3, #0]
 80004ca:	4b1a      	ldr	r3, [pc, #104]	; (8000534 <MX_SPI1_Init+0x74>)
 80004cc:	2282      	movs	r2, #130	; 0x82
 80004ce:	0052      	lsls	r2, r2, #1
 80004d0:	605a      	str	r2, [r3, #4]
 80004d2:	4b18      	ldr	r3, [pc, #96]	; (8000534 <MX_SPI1_Init+0x74>)
 80004d4:	2200      	movs	r2, #0
 80004d6:	609a      	str	r2, [r3, #8]
 80004d8:	4b16      	ldr	r3, [pc, #88]	; (8000534 <MX_SPI1_Init+0x74>)
 80004da:	22e0      	movs	r2, #224	; 0xe0
 80004dc:	00d2      	lsls	r2, r2, #3
 80004de:	60da      	str	r2, [r3, #12]
 80004e0:	4b14      	ldr	r3, [pc, #80]	; (8000534 <MX_SPI1_Init+0x74>)
 80004e2:	2200      	movs	r2, #0
 80004e4:	611a      	str	r2, [r3, #16]
 80004e6:	4b13      	ldr	r3, [pc, #76]	; (8000534 <MX_SPI1_Init+0x74>)
 80004e8:	2200      	movs	r2, #0
 80004ea:	615a      	str	r2, [r3, #20]
 80004ec:	4b11      	ldr	r3, [pc, #68]	; (8000534 <MX_SPI1_Init+0x74>)
 80004ee:	2280      	movs	r2, #128	; 0x80
 80004f0:	0092      	lsls	r2, r2, #2
 80004f2:	619a      	str	r2, [r3, #24]
 80004f4:	4b0f      	ldr	r3, [pc, #60]	; (8000534 <MX_SPI1_Init+0x74>)
 80004f6:	2218      	movs	r2, #24
 80004f8:	61da      	str	r2, [r3, #28]
 80004fa:	4b0e      	ldr	r3, [pc, #56]	; (8000534 <MX_SPI1_Init+0x74>)
 80004fc:	2200      	movs	r2, #0
 80004fe:	621a      	str	r2, [r3, #32]
 8000500:	4b0c      	ldr	r3, [pc, #48]	; (8000534 <MX_SPI1_Init+0x74>)
 8000502:	2200      	movs	r2, #0
 8000504:	625a      	str	r2, [r3, #36]	; 0x24
 8000506:	4b0b      	ldr	r3, [pc, #44]	; (8000534 <MX_SPI1_Init+0x74>)
 8000508:	2200      	movs	r2, #0
 800050a:	629a      	str	r2, [r3, #40]	; 0x28
 800050c:	4b09      	ldr	r3, [pc, #36]	; (8000534 <MX_SPI1_Init+0x74>)
 800050e:	2207      	movs	r2, #7
 8000510:	62da      	str	r2, [r3, #44]	; 0x2c
 8000512:	4b08      	ldr	r3, [pc, #32]	; (8000534 <MX_SPI1_Init+0x74>)
 8000514:	2200      	movs	r2, #0
 8000516:	631a      	str	r2, [r3, #48]	; 0x30
 8000518:	4b06      	ldr	r3, [pc, #24]	; (8000534 <MX_SPI1_Init+0x74>)
 800051a:	2208      	movs	r2, #8
 800051c:	635a      	str	r2, [r3, #52]	; 0x34
 800051e:	4b05      	ldr	r3, [pc, #20]	; (8000534 <MX_SPI1_Init+0x74>)
 8000520:	0018      	movs	r0, r3
 8000522:	f001 fb49 	bl	8001bb8 <HAL_SPI_Init>
 8000526:	1e03      	subs	r3, r0, #0
 8000528:	d001      	beq.n	800052e <MX_SPI1_Init+0x6e>
 800052a:	f7ff ffc4 	bl	80004b6 <Error_Handler>
 800052e:	46c0      	nop			; (mov r8, r8)
 8000530:	46bd      	mov	sp, r7
 8000532:	bd80      	pop	{r7, pc}
 8000534:	20000028 	.word	0x20000028
 8000538:	40013000 	.word	0x40013000

0800053c <HAL_SPI_MspInit>:
 800053c:	b590      	push	{r4, r7, lr}
 800053e:	b08b      	sub	sp, #44	; 0x2c
 8000540:	af00      	add	r7, sp, #0
 8000542:	6078      	str	r0, [r7, #4]
 8000544:	2414      	movs	r4, #20
 8000546:	193b      	adds	r3, r7, r4
 8000548:	0018      	movs	r0, r3
 800054a:	2314      	movs	r3, #20
 800054c:	001a      	movs	r2, r3
 800054e:	2100      	movs	r1, #0
 8000550:	f003 f9be 	bl	80038d0 <memset>
 8000554:	687b      	ldr	r3, [r7, #4]
 8000556:	681b      	ldr	r3, [r3, #0]
 8000558:	4a2e      	ldr	r2, [pc, #184]	; (8000614 <HAL_SPI_MspInit+0xd8>)
 800055a:	4293      	cmp	r3, r2
 800055c:	d155      	bne.n	800060a <HAL_SPI_MspInit+0xce>
 800055e:	4b2e      	ldr	r3, [pc, #184]	; (8000618 <HAL_SPI_MspInit+0xdc>)
 8000560:	699a      	ldr	r2, [r3, #24]
 8000562:	4b2d      	ldr	r3, [pc, #180]	; (8000618 <HAL_SPI_MspInit+0xdc>)
 8000564:	2180      	movs	r1, #128	; 0x80
 8000566:	0149      	lsls	r1, r1, #5
 8000568:	430a      	orrs	r2, r1
 800056a:	619a      	str	r2, [r3, #24]
 800056c:	4b2a      	ldr	r3, [pc, #168]	; (8000618 <HAL_SPI_MspInit+0xdc>)
 800056e:	699a      	ldr	r2, [r3, #24]
 8000570:	2380      	movs	r3, #128	; 0x80
 8000572:	015b      	lsls	r3, r3, #5
 8000574:	4013      	ands	r3, r2
 8000576:	613b      	str	r3, [r7, #16]
 8000578:	693b      	ldr	r3, [r7, #16]
 800057a:	4b27      	ldr	r3, [pc, #156]	; (8000618 <HAL_SPI_MspInit+0xdc>)
 800057c:	695a      	ldr	r2, [r3, #20]
 800057e:	4b26      	ldr	r3, [pc, #152]	; (8000618 <HAL_SPI_MspInit+0xdc>)
 8000580:	2180      	movs	r1, #128	; 0x80
 8000582:	0289      	lsls	r1, r1, #10
 8000584:	430a      	orrs	r2, r1
 8000586:	615a      	str	r2, [r3, #20]
 8000588:	4b23      	ldr	r3, [pc, #140]	; (8000618 <HAL_SPI_MspInit+0xdc>)
 800058a:	695a      	ldr	r2, [r3, #20]
 800058c:	2380      	movs	r3, #128	; 0x80
 800058e:	029b      	lsls	r3, r3, #10
 8000590:	4013      	ands	r3, r2
 8000592:	60fb      	str	r3, [r7, #12]
 8000594:	68fb      	ldr	r3, [r7, #12]
 8000596:	4b20      	ldr	r3, [pc, #128]	; (8000618 <HAL_SPI_MspInit+0xdc>)
 8000598:	695a      	ldr	r2, [r3, #20]
 800059a:	4b1f      	ldr	r3, [pc, #124]	; (8000618 <HAL_SPI_MspInit+0xdc>)
 800059c:	2180      	movs	r1, #128	; 0x80
 800059e:	02c9      	lsls	r1, r1, #11
 80005a0:	430a      	orrs	r2, r1
 80005a2:	615a      	str	r2, [r3, #20]
 80005a4:	4b1c      	ldr	r3, [pc, #112]	; (8000618 <HAL_SPI_MspInit+0xdc>)
 80005a6:	695a      	ldr	r2, [r3, #20]
 80005a8:	2380      	movs	r3, #128	; 0x80
 80005aa:	02db      	lsls	r3, r3, #11
 80005ac:	4013      	ands	r3, r2
 80005ae:	60bb      	str	r3, [r7, #8]
 80005b0:	68bb      	ldr	r3, [r7, #8]
 80005b2:	193b      	adds	r3, r7, r4
 80005b4:	22c0      	movs	r2, #192	; 0xc0
 80005b6:	601a      	str	r2, [r3, #0]
 80005b8:	193b      	adds	r3, r7, r4
 80005ba:	2202      	movs	r2, #2
 80005bc:	605a      	str	r2, [r3, #4]
 80005be:	193b      	adds	r3, r7, r4
 80005c0:	2200      	movs	r2, #0
 80005c2:	609a      	str	r2, [r3, #8]
 80005c4:	193b      	adds	r3, r7, r4
 80005c6:	2203      	movs	r2, #3
 80005c8:	60da      	str	r2, [r3, #12]
 80005ca:	193b      	adds	r3, r7, r4
 80005cc:	2200      	movs	r2, #0
 80005ce:	611a      	str	r2, [r3, #16]
 80005d0:	193a      	adds	r2, r7, r4
 80005d2:	2390      	movs	r3, #144	; 0x90
 80005d4:	05db      	lsls	r3, r3, #23
 80005d6:	0011      	movs	r1, r2
 80005d8:	0018      	movs	r0, r3
 80005da:	f000 fb59 	bl	8000c90 <HAL_GPIO_Init>
 80005de:	0021      	movs	r1, r4
 80005e0:	187b      	adds	r3, r7, r1
 80005e2:	2208      	movs	r2, #8
 80005e4:	601a      	str	r2, [r3, #0]
 80005e6:	187b      	adds	r3, r7, r1
 80005e8:	2202      	movs	r2, #2
 80005ea:	605a      	str	r2, [r3, #4]
 80005ec:	187b      	adds	r3, r7, r1
 80005ee:	2200      	movs	r2, #0
 80005f0:	609a      	str	r2, [r3, #8]
 80005f2:	187b      	adds	r3, r7, r1
 80005f4:	2203      	movs	r2, #3
 80005f6:	60da      	str	r2, [r3, #12]
 80005f8:	187b      	adds	r3, r7, r1
 80005fa:	2200      	movs	r2, #0
 80005fc:	611a      	str	r2, [r3, #16]
 80005fe:	187b      	adds	r3, r7, r1
 8000600:	4a06      	ldr	r2, [pc, #24]	; (800061c <HAL_SPI_MspInit+0xe0>)
 8000602:	0019      	movs	r1, r3
 8000604:	0010      	movs	r0, r2
 8000606:	f000 fb43 	bl	8000c90 <HAL_GPIO_Init>
 800060a:	46c0      	nop			; (mov r8, r8)
 800060c:	46bd      	mov	sp, r7
 800060e:	b00b      	add	sp, #44	; 0x2c
 8000610:	bd90      	pop	{r4, r7, pc}
 8000612:	46c0      	nop			; (mov r8, r8)
 8000614:	40013000 	.word	0x40013000
 8000618:	40021000 	.word	0x40021000
 800061c:	48000400 	.word	0x48000400

08000620 <HAL_MspInit>:
 8000620:	b580      	push	{r7, lr}
 8000622:	b082      	sub	sp, #8
 8000624:	af00      	add	r7, sp, #0
 8000626:	4b0f      	ldr	r3, [pc, #60]	; (8000664 <HAL_MspInit+0x44>)
 8000628:	699a      	ldr	r2, [r3, #24]
 800062a:	4b0e      	ldr	r3, [pc, #56]	; (8000664 <HAL_MspInit+0x44>)
 800062c:	2101      	movs	r1, #1
 800062e:	430a      	orrs	r2, r1
 8000630:	619a      	str	r2, [r3, #24]
 8000632:	4b0c      	ldr	r3, [pc, #48]	; (8000664 <HAL_MspInit+0x44>)
 8000634:	699b      	ldr	r3, [r3, #24]
 8000636:	2201      	movs	r2, #1
 8000638:	4013      	ands	r3, r2
 800063a:	607b      	str	r3, [r7, #4]
 800063c:	687b      	ldr	r3, [r7, #4]
 800063e:	4b09      	ldr	r3, [pc, #36]	; (8000664 <HAL_MspInit+0x44>)
 8000640:	69da      	ldr	r2, [r3, #28]
 8000642:	4b08      	ldr	r3, [pc, #32]	; (8000664 <HAL_MspInit+0x44>)
 8000644:	2180      	movs	r1, #128	; 0x80
 8000646:	0549      	lsls	r1, r1, #21
 8000648:	430a      	orrs	r2, r1
 800064a:	61da      	str	r2, [r3, #28]
 800064c:	4b05      	ldr	r3, [pc, #20]	; (8000664 <HAL_MspInit+0x44>)
 800064e:	69da      	ldr	r2, [r3, #28]
 8000650:	2380      	movs	r3, #128	; 0x80
 8000652:	055b      	lsls	r3, r3, #21
 8000654:	4013      	ands	r3, r2
 8000656:	603b      	str	r3, [r7, #0]
 8000658:	683b      	ldr	r3, [r7, #0]
 800065a:	46c0      	nop			; (mov r8, r8)
 800065c:	46bd      	mov	sp, r7
 800065e:	b002      	add	sp, #8
 8000660:	bd80      	pop	{r7, pc}
 8000662:	46c0      	nop			; (mov r8, r8)
 8000664:	40021000 	.word	0x40021000

08000668 <NMI_Handler>:
 8000668:	b580      	push	{r7, lr}
 800066a:	af00      	add	r7, sp, #0
 800066c:	e7fe      	b.n	800066c <NMI_Handler+0x4>

0800066e <HardFault_Handler>:
 800066e:	b580      	push	{r7, lr}
 8000670:	af00      	add	r7, sp, #0
 8000672:	e7fe      	b.n	8000672 <HardFault_Handler+0x4>

08000674 <SVC_Handler>:
 8000674:	b580      	push	{r7, lr}
 8000676:	af00      	add	r7, sp, #0
 8000678:	46c0      	nop			; (mov r8, r8)
 800067a:	46bd      	mov	sp, r7
 800067c:	bd80      	pop	{r7, pc}

0800067e <PendSV_Handler>:
 800067e:	b580      	push	{r7, lr}
 8000680:	af00      	add	r7, sp, #0
 8000682:	46c0      	nop			; (mov r8, r8)
 8000684:	46bd      	mov	sp, r7
 8000686:	bd80      	pop	{r7, pc}

08000688 <SysTick_Handler>:
 8000688:	b580      	push	{r7, lr}
 800068a:	af00      	add	r7, sp, #0
 800068c:	f000 fa0c 	bl	8000aa8 <HAL_IncTick>
 8000690:	46c0      	nop			; (mov r8, r8)
 8000692:	46bd      	mov	sp, r7
 8000694:	bd80      	pop	{r7, pc}

08000696 <SystemInit>:
 8000696:	b580      	push	{r7, lr}
 8000698:	af00      	add	r7, sp, #0
 800069a:	46c0      	nop			; (mov r8, r8)
 800069c:	46bd      	mov	sp, r7
 800069e:	bd80      	pop	{r7, pc}

080006a0 <MX_TIM1_Init>:
 80006a0:	b580      	push	{r7, lr}
 80006a2:	b096      	sub	sp, #88	; 0x58
 80006a4:	af00      	add	r7, sp, #0
 80006a6:	2348      	movs	r3, #72	; 0x48
 80006a8:	18fb      	adds	r3, r7, r3
 80006aa:	0018      	movs	r0, r3
 80006ac:	2310      	movs	r3, #16
 80006ae:	001a      	movs	r2, r3
 80006b0:	2100      	movs	r1, #0
 80006b2:	f003 f90d 	bl	80038d0 <memset>
 80006b6:	2340      	movs	r3, #64	; 0x40
 80006b8:	18fb      	adds	r3, r7, r3
 80006ba:	0018      	movs	r0, r3
 80006bc:	2308      	movs	r3, #8
 80006be:	001a      	movs	r2, r3
 80006c0:	2100      	movs	r1, #0
 80006c2:	f003 f905 	bl	80038d0 <memset>
 80006c6:	2324      	movs	r3, #36	; 0x24
 80006c8:	18fb      	adds	r3, r7, r3
 80006ca:	0018      	movs	r0, r3
 80006cc:	231c      	movs	r3, #28
 80006ce:	001a      	movs	r2, r3
 80006d0:	2100      	movs	r1, #0
 80006d2:	f003 f8fd 	bl	80038d0 <memset>
 80006d6:	1d3b      	adds	r3, r7, #4
 80006d8:	0018      	movs	r0, r3
 80006da:	2320      	movs	r3, #32
 80006dc:	001a      	movs	r2, r3
 80006de:	2100      	movs	r1, #0
 80006e0:	f003 f8f6 	bl	80038d0 <memset>
 80006e4:	4b46      	ldr	r3, [pc, #280]	; (8000800 <MX_TIM1_Init+0x160>)
 80006e6:	4a47      	ldr	r2, [pc, #284]	; (8000804 <MX_TIM1_Init+0x164>)
 80006e8:	601a      	str	r2, [r3, #0]
 80006ea:	4b45      	ldr	r3, [pc, #276]	; (8000800 <MX_TIM1_Init+0x160>)
 80006ec:	2200      	movs	r2, #0
 80006ee:	605a      	str	r2, [r3, #4]
 80006f0:	4b43      	ldr	r3, [pc, #268]	; (8000800 <MX_TIM1_Init+0x160>)
 80006f2:	2200      	movs	r2, #0
 80006f4:	609a      	str	r2, [r3, #8]
 80006f6:	4b42      	ldr	r3, [pc, #264]	; (8000800 <MX_TIM1_Init+0x160>)
 80006f8:	4a43      	ldr	r2, [pc, #268]	; (8000808 <MX_TIM1_Init+0x168>)
 80006fa:	60da      	str	r2, [r3, #12]
 80006fc:	4b40      	ldr	r3, [pc, #256]	; (8000800 <MX_TIM1_Init+0x160>)
 80006fe:	2200      	movs	r2, #0
 8000700:	611a      	str	r2, [r3, #16]
 8000702:	4b3f      	ldr	r3, [pc, #252]	; (8000800 <MX_TIM1_Init+0x160>)
 8000704:	2200      	movs	r2, #0
 8000706:	615a      	str	r2, [r3, #20]
 8000708:	4b3d      	ldr	r3, [pc, #244]	; (8000800 <MX_TIM1_Init+0x160>)
 800070a:	2200      	movs	r2, #0
 800070c:	619a      	str	r2, [r3, #24]
 800070e:	4b3c      	ldr	r3, [pc, #240]	; (8000800 <MX_TIM1_Init+0x160>)
 8000710:	0018      	movs	r0, r3
 8000712:	f001 fe51 	bl	80023b8 <HAL_TIM_Base_Init>
 8000716:	1e03      	subs	r3, r0, #0
 8000718:	d001      	beq.n	800071e <MX_TIM1_Init+0x7e>
 800071a:	f7ff fecc 	bl	80004b6 <Error_Handler>
 800071e:	2148      	movs	r1, #72	; 0x48
 8000720:	187b      	adds	r3, r7, r1
 8000722:	2280      	movs	r2, #128	; 0x80
 8000724:	0152      	lsls	r2, r2, #5
 8000726:	601a      	str	r2, [r3, #0]
 8000728:	187a      	adds	r2, r7, r1
 800072a:	4b35      	ldr	r3, [pc, #212]	; (8000800 <MX_TIM1_Init+0x160>)
 800072c:	0011      	movs	r1, r2
 800072e:	0018      	movs	r0, r3
 8000730:	f002 f868 	bl	8002804 <HAL_TIM_ConfigClockSource>
 8000734:	1e03      	subs	r3, r0, #0
 8000736:	d001      	beq.n	800073c <MX_TIM1_Init+0x9c>
 8000738:	f7ff febd 	bl	80004b6 <Error_Handler>
 800073c:	4b30      	ldr	r3, [pc, #192]	; (8000800 <MX_TIM1_Init+0x160>)
 800073e:	0018      	movs	r0, r3
 8000740:	f001 fe8a 	bl	8002458 <HAL_TIM_PWM_Init>
 8000744:	1e03      	subs	r3, r0, #0
 8000746:	d001      	beq.n	800074c <MX_TIM1_Init+0xac>
 8000748:	f7ff feb5 	bl	80004b6 <Error_Handler>
 800074c:	2140      	movs	r1, #64	; 0x40
 800074e:	187b      	adds	r3, r7, r1
 8000750:	2200      	movs	r2, #0
 8000752:	601a      	str	r2, [r3, #0]
 8000754:	187b      	adds	r3, r7, r1
 8000756:	2200      	movs	r2, #0
 8000758:	605a      	str	r2, [r3, #4]
 800075a:	187a      	adds	r2, r7, r1
 800075c:	4b28      	ldr	r3, [pc, #160]	; (8000800 <MX_TIM1_Init+0x160>)
 800075e:	0011      	movs	r1, r2
 8000760:	0018      	movs	r0, r3
 8000762:	f002 fc5d 	bl	8003020 <HAL_TIMEx_MasterConfigSynchronization>
 8000766:	1e03      	subs	r3, r0, #0
 8000768:	d001      	beq.n	800076e <MX_TIM1_Init+0xce>
 800076a:	f7ff fea4 	bl	80004b6 <Error_Handler>
 800076e:	2124      	movs	r1, #36	; 0x24
 8000770:	187b      	adds	r3, r7, r1
 8000772:	2260      	movs	r2, #96	; 0x60
 8000774:	601a      	str	r2, [r3, #0]
 8000776:	187b      	adds	r3, r7, r1
 8000778:	2200      	movs	r2, #0
 800077a:	605a      	str	r2, [r3, #4]
 800077c:	187b      	adds	r3, r7, r1
 800077e:	2200      	movs	r2, #0
 8000780:	609a      	str	r2, [r3, #8]
 8000782:	187b      	adds	r3, r7, r1
 8000784:	2200      	movs	r2, #0
 8000786:	60da      	str	r2, [r3, #12]
 8000788:	187b      	adds	r3, r7, r1
 800078a:	2200      	movs	r2, #0
 800078c:	611a      	str	r2, [r3, #16]
 800078e:	187b      	adds	r3, r7, r1
 8000790:	2200      	movs	r2, #0
 8000792:	615a      	str	r2, [r3, #20]
 8000794:	187b      	adds	r3, r7, r1
 8000796:	2200      	movs	r2, #0
 8000798:	619a      	str	r2, [r3, #24]
 800079a:	1879      	adds	r1, r7, r1
 800079c:	4b18      	ldr	r3, [pc, #96]	; (8000800 <MX_TIM1_Init+0x160>)
 800079e:	2200      	movs	r2, #0
 80007a0:	0018      	movs	r0, r3
 80007a2:	f001 ff69 	bl	8002678 <HAL_TIM_PWM_ConfigChannel>
 80007a6:	1e03      	subs	r3, r0, #0
 80007a8:	d001      	beq.n	80007ae <MX_TIM1_Init+0x10e>
 80007aa:	f7ff fe84 	bl	80004b6 <Error_Handler>
 80007ae:	1d3b      	adds	r3, r7, #4
 80007b0:	2200      	movs	r2, #0
 80007b2:	601a      	str	r2, [r3, #0]
 80007b4:	1d3b      	adds	r3, r7, #4
 80007b6:	2200      	movs	r2, #0
 80007b8:	605a      	str	r2, [r3, #4]
 80007ba:	1d3b      	adds	r3, r7, #4
 80007bc:	2200      	movs	r2, #0
 80007be:	609a      	str	r2, [r3, #8]
 80007c0:	1d3b      	adds	r3, r7, #4
 80007c2:	2200      	movs	r2, #0
 80007c4:	60da      	str	r2, [r3, #12]
 80007c6:	1d3b      	adds	r3, r7, #4
 80007c8:	2200      	movs	r2, #0
 80007ca:	611a      	str	r2, [r3, #16]
 80007cc:	1d3b      	adds	r3, r7, #4
 80007ce:	2280      	movs	r2, #128	; 0x80
 80007d0:	0192      	lsls	r2, r2, #6
 80007d2:	615a      	str	r2, [r3, #20]
 80007d4:	1d3b      	adds	r3, r7, #4
 80007d6:	2200      	movs	r2, #0
 80007d8:	61da      	str	r2, [r3, #28]
 80007da:	1d3a      	adds	r2, r7, #4
 80007dc:	4b08      	ldr	r3, [pc, #32]	; (8000800 <MX_TIM1_Init+0x160>)
 80007de:	0011      	movs	r1, r2
 80007e0:	0018      	movs	r0, r3
 80007e2:	f002 fc7b 	bl	80030dc <HAL_TIMEx_ConfigBreakDeadTime>
 80007e6:	1e03      	subs	r3, r0, #0
 80007e8:	d001      	beq.n	80007ee <MX_TIM1_Init+0x14e>
 80007ea:	f7ff fe64 	bl	80004b6 <Error_Handler>
 80007ee:	4b04      	ldr	r3, [pc, #16]	; (8000800 <MX_TIM1_Init+0x160>)
 80007f0:	0018      	movs	r0, r3
 80007f2:	f000 f82b 	bl	800084c <HAL_TIM_MspPostInit>
 80007f6:	46c0      	nop			; (mov r8, r8)
 80007f8:	46bd      	mov	sp, r7
 80007fa:	b016      	add	sp, #88	; 0x58
 80007fc:	bd80      	pop	{r7, pc}
 80007fe:	46c0      	nop			; (mov r8, r8)
 8000800:	2000008c 	.word	0x2000008c
 8000804:	40012c00 	.word	0x40012c00
 8000808:	0000ffff 	.word	0x0000ffff

0800080c <HAL_TIM_Base_MspInit>:
 800080c:	b580      	push	{r7, lr}
 800080e:	b084      	sub	sp, #16
 8000810:	af00      	add	r7, sp, #0
 8000812:	6078      	str	r0, [r7, #4]
 8000814:	687b      	ldr	r3, [r7, #4]
 8000816:	681b      	ldr	r3, [r3, #0]
 8000818:	4a0a      	ldr	r2, [pc, #40]	; (8000844 <HAL_TIM_Base_MspInit+0x38>)
 800081a:	4293      	cmp	r3, r2
 800081c:	d10d      	bne.n	800083a <HAL_TIM_Base_MspInit+0x2e>
 800081e:	4b0a      	ldr	r3, [pc, #40]	; (8000848 <HAL_TIM_Base_MspInit+0x3c>)
 8000820:	699a      	ldr	r2, [r3, #24]
 8000822:	4b09      	ldr	r3, [pc, #36]	; (8000848 <HAL_TIM_Base_MspInit+0x3c>)
 8000824:	2180      	movs	r1, #128	; 0x80
 8000826:	0109      	lsls	r1, r1, #4
 8000828:	430a      	orrs	r2, r1
 800082a:	619a      	str	r2, [r3, #24]
 800082c:	4b06      	ldr	r3, [pc, #24]	; (8000848 <HAL_TIM_Base_MspInit+0x3c>)
 800082e:	699a      	ldr	r2, [r3, #24]
 8000830:	2380      	movs	r3, #128	; 0x80
 8000832:	011b      	lsls	r3, r3, #4
 8000834:	4013      	ands	r3, r2
 8000836:	60fb      	str	r3, [r7, #12]
 8000838:	68fb      	ldr	r3, [r7, #12]
 800083a:	46c0      	nop			; (mov r8, r8)
 800083c:	46bd      	mov	sp, r7
 800083e:	b004      	add	sp, #16
 8000840:	bd80      	pop	{r7, pc}
 8000842:	46c0      	nop			; (mov r8, r8)
 8000844:	40012c00 	.word	0x40012c00
 8000848:	40021000 	.word	0x40021000

0800084c <HAL_TIM_MspPostInit>:
 800084c:	b590      	push	{r4, r7, lr}
 800084e:	b089      	sub	sp, #36	; 0x24
 8000850:	af00      	add	r7, sp, #0
 8000852:	6078      	str	r0, [r7, #4]
 8000854:	240c      	movs	r4, #12
 8000856:	193b      	adds	r3, r7, r4
 8000858:	0018      	movs	r0, r3
 800085a:	2314      	movs	r3, #20
 800085c:	001a      	movs	r2, r3
 800085e:	2100      	movs	r1, #0
 8000860:	f003 f836 	bl	80038d0 <memset>
 8000864:	687b      	ldr	r3, [r7, #4]
 8000866:	681b      	ldr	r3, [r3, #0]
 8000868:	4a16      	ldr	r2, [pc, #88]	; (80008c4 <HAL_TIM_MspPostInit+0x78>)
 800086a:	4293      	cmp	r3, r2
 800086c:	d125      	bne.n	80008ba <HAL_TIM_MspPostInit+0x6e>
 800086e:	4b16      	ldr	r3, [pc, #88]	; (80008c8 <HAL_TIM_MspPostInit+0x7c>)
 8000870:	695a      	ldr	r2, [r3, #20]
 8000872:	4b15      	ldr	r3, [pc, #84]	; (80008c8 <HAL_TIM_MspPostInit+0x7c>)
 8000874:	2180      	movs	r1, #128	; 0x80
 8000876:	0289      	lsls	r1, r1, #10
 8000878:	430a      	orrs	r2, r1
 800087a:	615a      	str	r2, [r3, #20]
 800087c:	4b12      	ldr	r3, [pc, #72]	; (80008c8 <HAL_TIM_MspPostInit+0x7c>)
 800087e:	695a      	ldr	r2, [r3, #20]
 8000880:	2380      	movs	r3, #128	; 0x80
 8000882:	029b      	lsls	r3, r3, #10
 8000884:	4013      	ands	r3, r2
 8000886:	60bb      	str	r3, [r7, #8]
 8000888:	68bb      	ldr	r3, [r7, #8]
 800088a:	193b      	adds	r3, r7, r4
 800088c:	2280      	movs	r2, #128	; 0x80
 800088e:	0052      	lsls	r2, r2, #1
 8000890:	601a      	str	r2, [r3, #0]
 8000892:	0021      	movs	r1, r4
 8000894:	187b      	adds	r3, r7, r1
 8000896:	2202      	movs	r2, #2
 8000898:	605a      	str	r2, [r3, #4]
 800089a:	187b      	adds	r3, r7, r1
 800089c:	2200      	movs	r2, #0
 800089e:	609a      	str	r2, [r3, #8]
 80008a0:	187b      	adds	r3, r7, r1
 80008a2:	2200      	movs	r2, #0
 80008a4:	60da      	str	r2, [r3, #12]
 80008a6:	187b      	adds	r3, r7, r1
 80008a8:	2202      	movs	r2, #2
 80008aa:	611a      	str	r2, [r3, #16]
 80008ac:	187a      	adds	r2, r7, r1
 80008ae:	2390      	movs	r3, #144	; 0x90
 80008b0:	05db      	lsls	r3, r3, #23
 80008b2:	0011      	movs	r1, r2
 80008b4:	0018      	movs	r0, r3
 80008b6:	f000 f9eb 	bl	8000c90 <HAL_GPIO_Init>
 80008ba:	46c0      	nop			; (mov r8, r8)
 80008bc:	46bd      	mov	sp, r7
 80008be:	b009      	add	sp, #36	; 0x24
 80008c0:	bd90      	pop	{r4, r7, pc}
 80008c2:	46c0      	nop			; (mov r8, r8)
 80008c4:	40012c00 	.word	0x40012c00
 80008c8:	40021000 	.word	0x40021000

080008cc <MX_USART2_UART_Init>:
 80008cc:	b580      	push	{r7, lr}
 80008ce:	af00      	add	r7, sp, #0
 80008d0:	4b14      	ldr	r3, [pc, #80]	; (8000924 <MX_USART2_UART_Init+0x58>)
 80008d2:	4a15      	ldr	r2, [pc, #84]	; (8000928 <MX_USART2_UART_Init+0x5c>)
 80008d4:	601a      	str	r2, [r3, #0]
 80008d6:	4b13      	ldr	r3, [pc, #76]	; (8000924 <MX_USART2_UART_Init+0x58>)
 80008d8:	2296      	movs	r2, #150	; 0x96
 80008da:	0212      	lsls	r2, r2, #8
 80008dc:	605a      	str	r2, [r3, #4]
 80008de:	4b11      	ldr	r3, [pc, #68]	; (8000924 <MX_USART2_UART_Init+0x58>)
 80008e0:	2200      	movs	r2, #0
 80008e2:	609a      	str	r2, [r3, #8]
 80008e4:	4b0f      	ldr	r3, [pc, #60]	; (8000924 <MX_USART2_UART_Init+0x58>)
 80008e6:	2200      	movs	r2, #0
 80008e8:	60da      	str	r2, [r3, #12]
 80008ea:	4b0e      	ldr	r3, [pc, #56]	; (8000924 <MX_USART2_UART_Init+0x58>)
 80008ec:	2200      	movs	r2, #0
 80008ee:	611a      	str	r2, [r3, #16]
 80008f0:	4b0c      	ldr	r3, [pc, #48]	; (8000924 <MX_USART2_UART_Init+0x58>)
 80008f2:	220c      	movs	r2, #12
 80008f4:	615a      	str	r2, [r3, #20]
 80008f6:	4b0b      	ldr	r3, [pc, #44]	; (8000924 <MX_USART2_UART_Init+0x58>)
 80008f8:	2200      	movs	r2, #0
 80008fa:	619a      	str	r2, [r3, #24]
 80008fc:	4b09      	ldr	r3, [pc, #36]	; (8000924 <MX_USART2_UART_Init+0x58>)
 80008fe:	2200      	movs	r2, #0
 8000900:	61da      	str	r2, [r3, #28]
 8000902:	4b08      	ldr	r3, [pc, #32]	; (8000924 <MX_USART2_UART_Init+0x58>)
 8000904:	2200      	movs	r2, #0
 8000906:	621a      	str	r2, [r3, #32]
 8000908:	4b06      	ldr	r3, [pc, #24]	; (8000924 <MX_USART2_UART_Init+0x58>)
 800090a:	2200      	movs	r2, #0
 800090c:	625a      	str	r2, [r3, #36]	; 0x24
 800090e:	4b05      	ldr	r3, [pc, #20]	; (8000924 <MX_USART2_UART_Init+0x58>)
 8000910:	0018      	movs	r0, r3
 8000912:	f002 fc41 	bl	8003198 <HAL_UART_Init>
 8000916:	1e03      	subs	r3, r0, #0
 8000918:	d001      	beq.n	800091e <MX_USART2_UART_Init+0x52>
 800091a:	f7ff fdcc 	bl	80004b6 <Error_Handler>
 800091e:	46c0      	nop			; (mov r8, r8)
 8000920:	46bd      	mov	sp, r7
 8000922:	bd80      	pop	{r7, pc}
 8000924:	200000d4 	.word	0x200000d4
 8000928:	40004400 	.word	0x40004400

0800092c <HAL_UART_MspInit>:
 800092c:	b590      	push	{r4, r7, lr}
 800092e:	b08b      	sub	sp, #44	; 0x2c
 8000930:	af00      	add	r7, sp, #0
 8000932:	6078      	str	r0, [r7, #4]
 8000934:	2414      	movs	r4, #20
 8000936:	193b      	adds	r3, r7, r4
 8000938:	0018      	movs	r0, r3
 800093a:	2314      	movs	r3, #20
 800093c:	001a      	movs	r2, r3
 800093e:	2100      	movs	r1, #0
 8000940:	f002 ffc6 	bl	80038d0 <memset>
 8000944:	687b      	ldr	r3, [r7, #4]
 8000946:	681b      	ldr	r3, [r3, #0]
 8000948:	4a1c      	ldr	r2, [pc, #112]	; (80009bc <HAL_UART_MspInit+0x90>)
 800094a:	4293      	cmp	r3, r2
 800094c:	d132      	bne.n	80009b4 <HAL_UART_MspInit+0x88>
 800094e:	4b1c      	ldr	r3, [pc, #112]	; (80009c0 <HAL_UART_MspInit+0x94>)
 8000950:	69da      	ldr	r2, [r3, #28]
 8000952:	4b1b      	ldr	r3, [pc, #108]	; (80009c0 <HAL_UART_MspInit+0x94>)
 8000954:	2180      	movs	r1, #128	; 0x80
 8000956:	0289      	lsls	r1, r1, #10
 8000958:	430a      	orrs	r2, r1
 800095a:	61da      	str	r2, [r3, #28]
 800095c:	4b18      	ldr	r3, [pc, #96]	; (80009c0 <HAL_UART_MspInit+0x94>)
 800095e:	69da      	ldr	r2, [r3, #28]
 8000960:	2380      	movs	r3, #128	; 0x80
 8000962:	029b      	lsls	r3, r3, #10
 8000964:	4013      	ands	r3, r2
 8000966:	613b      	str	r3, [r7, #16]
 8000968:	693b      	ldr	r3, [r7, #16]
 800096a:	4b15      	ldr	r3, [pc, #84]	; (80009c0 <HAL_UART_MspInit+0x94>)
 800096c:	695a      	ldr	r2, [r3, #20]
 800096e:	4b14      	ldr	r3, [pc, #80]	; (80009c0 <HAL_UART_MspInit+0x94>)
 8000970:	2180      	movs	r1, #128	; 0x80
 8000972:	0289      	lsls	r1, r1, #10
 8000974:	430a      	orrs	r2, r1
 8000976:	615a      	str	r2, [r3, #20]
 8000978:	4b11      	ldr	r3, [pc, #68]	; (80009c0 <HAL_UART_MspInit+0x94>)
 800097a:	695a      	ldr	r2, [r3, #20]
 800097c:	2380      	movs	r3, #128	; 0x80
 800097e:	029b      	lsls	r3, r3, #10
 8000980:	4013      	ands	r3, r2
 8000982:	60fb      	str	r3, [r7, #12]
 8000984:	68fb      	ldr	r3, [r7, #12]
 8000986:	0021      	movs	r1, r4
 8000988:	187b      	adds	r3, r7, r1
 800098a:	220c      	movs	r2, #12
 800098c:	601a      	str	r2, [r3, #0]
 800098e:	187b      	adds	r3, r7, r1
 8000990:	2202      	movs	r2, #2
 8000992:	605a      	str	r2, [r3, #4]
 8000994:	187b      	adds	r3, r7, r1
 8000996:	2200      	movs	r2, #0
 8000998:	609a      	str	r2, [r3, #8]
 800099a:	187b      	adds	r3, r7, r1
 800099c:	2200      	movs	r2, #0
 800099e:	60da      	str	r2, [r3, #12]
 80009a0:	187b      	adds	r3, r7, r1
 80009a2:	2201      	movs	r2, #1
 80009a4:	611a      	str	r2, [r3, #16]
 80009a6:	187a      	adds	r2, r7, r1
 80009a8:	2390      	movs	r3, #144	; 0x90
 80009aa:	05db      	lsls	r3, r3, #23
 80009ac:	0011      	movs	r1, r2
 80009ae:	0018      	movs	r0, r3
 80009b0:	f000 f96e 	bl	8000c90 <HAL_GPIO_Init>
 80009b4:	46c0      	nop			; (mov r8, r8)
 80009b6:	46bd      	mov	sp, r7
 80009b8:	b00b      	add	sp, #44	; 0x2c
 80009ba:	bd90      	pop	{r4, r7, pc}
 80009bc:	40004400 	.word	0x40004400
 80009c0:	40021000 	.word	0x40021000

080009c4 <Reset_Handler>:
 80009c4:	480d      	ldr	r0, [pc, #52]	; (80009fc <LoopForever+0x2>)
 80009c6:	4685      	mov	sp, r0
 80009c8:	480d      	ldr	r0, [pc, #52]	; (8000a00 <LoopForever+0x6>)
 80009ca:	490e      	ldr	r1, [pc, #56]	; (8000a04 <LoopForever+0xa>)
 80009cc:	4a0e      	ldr	r2, [pc, #56]	; (8000a08 <LoopForever+0xe>)
 80009ce:	2300      	movs	r3, #0
 80009d0:	e002      	b.n	80009d8 <LoopCopyDataInit>

080009d2 <CopyDataInit>:
 80009d2:	58d4      	ldr	r4, [r2, r3]
 80009d4:	50c4      	str	r4, [r0, r3]
 80009d6:	3304      	adds	r3, #4

080009d8 <LoopCopyDataInit>:
 80009d8:	18c4      	adds	r4, r0, r3
 80009da:	428c      	cmp	r4, r1
 80009dc:	d3f9      	bcc.n	80009d2 <CopyDataInit>
 80009de:	4a0b      	ldr	r2, [pc, #44]	; (8000a0c <LoopForever+0x12>)
 80009e0:	4c0b      	ldr	r4, [pc, #44]	; (8000a10 <LoopForever+0x16>)
 80009e2:	2300      	movs	r3, #0
 80009e4:	e001      	b.n	80009ea <LoopFillZerobss>

080009e6 <FillZerobss>:
 80009e6:	6013      	str	r3, [r2, #0]
 80009e8:	3204      	adds	r2, #4

080009ea <LoopFillZerobss>:
 80009ea:	42a2      	cmp	r2, r4
 80009ec:	d3fb      	bcc.n	80009e6 <FillZerobss>
 80009ee:	f7ff fe52 	bl	8000696 <SystemInit>
 80009f2:	f002 ff75 	bl	80038e0 <__libc_init_array>
 80009f6:	f7ff fca7 	bl	8000348 <main>

080009fa <LoopForever>:
 80009fa:	e7fe      	b.n	80009fa <LoopForever>
 80009fc:	20004000 	.word	0x20004000
 8000a00:	20000000 	.word	0x20000000
 8000a04:	2000000c 	.word	0x2000000c
 8000a08:	08003980 	.word	0x08003980
 8000a0c:	2000000c 	.word	0x2000000c
 8000a10:	2000015c 	.word	0x2000015c

08000a14 <ADC1_COMP_IRQHandler>:
 8000a14:	e7fe      	b.n	8000a14 <ADC1_COMP_IRQHandler>
	...

08000a18 <HAL_Init>:
 8000a18:	b580      	push	{r7, lr}
 8000a1a:	af00      	add	r7, sp, #0
 8000a1c:	4b07      	ldr	r3, [pc, #28]	; (8000a3c <HAL_Init+0x24>)
 8000a1e:	681a      	ldr	r2, [r3, #0]
 8000a20:	4b06      	ldr	r3, [pc, #24]	; (8000a3c <HAL_Init+0x24>)
 8000a22:	2110      	movs	r1, #16
 8000a24:	430a      	orrs	r2, r1
 8000a26:	601a      	str	r2, [r3, #0]
 8000a28:	2000      	movs	r0, #0
 8000a2a:	f000 f809 	bl	8000a40 <HAL_InitTick>
 8000a2e:	f7ff fdf7 	bl	8000620 <HAL_MspInit>
 8000a32:	2300      	movs	r3, #0
 8000a34:	0018      	movs	r0, r3
 8000a36:	46bd      	mov	sp, r7
 8000a38:	bd80      	pop	{r7, pc}
 8000a3a:	46c0      	nop			; (mov r8, r8)
 8000a3c:	40022000 	.word	0x40022000

08000a40 <HAL_InitTick>:
 8000a40:	b590      	push	{r4, r7, lr}
 8000a42:	b083      	sub	sp, #12
 8000a44:	af00      	add	r7, sp, #0
 8000a46:	6078      	str	r0, [r7, #4]
 8000a48:	4b14      	ldr	r3, [pc, #80]	; (8000a9c <HAL_InitTick+0x5c>)
 8000a4a:	681c      	ldr	r4, [r3, #0]
 8000a4c:	4b14      	ldr	r3, [pc, #80]	; (8000aa0 <HAL_InitTick+0x60>)
 8000a4e:	781b      	ldrb	r3, [r3, #0]
 8000a50:	0019      	movs	r1, r3
 8000a52:	23fa      	movs	r3, #250	; 0xfa
 8000a54:	0098      	lsls	r0, r3, #2
 8000a56:	f7ff fb57 	bl	8000108 <__udivsi3>
 8000a5a:	0003      	movs	r3, r0
 8000a5c:	0019      	movs	r1, r3
 8000a5e:	0020      	movs	r0, r4
 8000a60:	f7ff fb52 	bl	8000108 <__udivsi3>
 8000a64:	0003      	movs	r3, r0
 8000a66:	0018      	movs	r0, r3
 8000a68:	f000 f905 	bl	8000c76 <HAL_SYSTICK_Config>
 8000a6c:	1e03      	subs	r3, r0, #0
 8000a6e:	d001      	beq.n	8000a74 <HAL_InitTick+0x34>
 8000a70:	2301      	movs	r3, #1
 8000a72:	e00f      	b.n	8000a94 <HAL_InitTick+0x54>
 8000a74:	687b      	ldr	r3, [r7, #4]
 8000a76:	2b03      	cmp	r3, #3
 8000a78:	d80b      	bhi.n	8000a92 <HAL_InitTick+0x52>
 8000a7a:	6879      	ldr	r1, [r7, #4]
 8000a7c:	2301      	movs	r3, #1
 8000a7e:	425b      	negs	r3, r3
 8000a80:	2200      	movs	r2, #0
 8000a82:	0018      	movs	r0, r3
 8000a84:	f000 f8e2 	bl	8000c4c <HAL_NVIC_SetPriority>
 8000a88:	4b06      	ldr	r3, [pc, #24]	; (8000aa4 <HAL_InitTick+0x64>)
 8000a8a:	687a      	ldr	r2, [r7, #4]
 8000a8c:	601a      	str	r2, [r3, #0]
 8000a8e:	2300      	movs	r3, #0
 8000a90:	e000      	b.n	8000a94 <HAL_InitTick+0x54>
 8000a92:	2301      	movs	r3, #1
 8000a94:	0018      	movs	r0, r3
 8000a96:	46bd      	mov	sp, r7
 8000a98:	b003      	add	sp, #12
 8000a9a:	bd90      	pop	{r4, r7, pc}
 8000a9c:	20000000 	.word	0x20000000
 8000aa0:	20000008 	.word	0x20000008
 8000aa4:	20000004 	.word	0x20000004

08000aa8 <HAL_IncTick>:
 8000aa8:	b580      	push	{r7, lr}
 8000aaa:	af00      	add	r7, sp, #0
 8000aac:	4b05      	ldr	r3, [pc, #20]	; (8000ac4 <HAL_IncTick+0x1c>)
 8000aae:	781b      	ldrb	r3, [r3, #0]
 8000ab0:	001a      	movs	r2, r3
 8000ab2:	4b05      	ldr	r3, [pc, #20]	; (8000ac8 <HAL_IncTick+0x20>)
 8000ab4:	681b      	ldr	r3, [r3, #0]
 8000ab6:	18d2      	adds	r2, r2, r3
 8000ab8:	4b03      	ldr	r3, [pc, #12]	; (8000ac8 <HAL_IncTick+0x20>)
 8000aba:	601a      	str	r2, [r3, #0]
 8000abc:	46c0      	nop			; (mov r8, r8)
 8000abe:	46bd      	mov	sp, r7
 8000ac0:	bd80      	pop	{r7, pc}
 8000ac2:	46c0      	nop			; (mov r8, r8)
 8000ac4:	20000008 	.word	0x20000008
 8000ac8:	20000158 	.word	0x20000158

08000acc <HAL_GetTick>:
 8000acc:	b580      	push	{r7, lr}
 8000ace:	af00      	add	r7, sp, #0
 8000ad0:	4b02      	ldr	r3, [pc, #8]	; (8000adc <HAL_GetTick+0x10>)
 8000ad2:	681b      	ldr	r3, [r3, #0]
 8000ad4:	0018      	movs	r0, r3
 8000ad6:	46bd      	mov	sp, r7
 8000ad8:	bd80      	pop	{r7, pc}
 8000ada:	46c0      	nop			; (mov r8, r8)
 8000adc:	20000158 	.word	0x20000158

08000ae0 <HAL_Delay>:
 8000ae0:	b580      	push	{r7, lr}
 8000ae2:	b084      	sub	sp, #16
 8000ae4:	af00      	add	r7, sp, #0
 8000ae6:	6078      	str	r0, [r7, #4]
 8000ae8:	f7ff fff0 	bl	8000acc <HAL_GetTick>
 8000aec:	0003      	movs	r3, r0
 8000aee:	60bb      	str	r3, [r7, #8]
 8000af0:	687b      	ldr	r3, [r7, #4]
 8000af2:	60fb      	str	r3, [r7, #12]
 8000af4:	68fb      	ldr	r3, [r7, #12]
 8000af6:	3301      	adds	r3, #1
 8000af8:	d005      	beq.n	8000b06 <HAL_Delay+0x26>
 8000afa:	4b0a      	ldr	r3, [pc, #40]	; (8000b24 <HAL_Delay+0x44>)
 8000afc:	781b      	ldrb	r3, [r3, #0]
 8000afe:	001a      	movs	r2, r3
 8000b00:	68fb      	ldr	r3, [r7, #12]
 8000b02:	189b      	adds	r3, r3, r2
 8000b04:	60fb      	str	r3, [r7, #12]
 8000b06:	46c0      	nop			; (mov r8, r8)
 8000b08:	f7ff ffe0 	bl	8000acc <HAL_GetTick>
 8000b0c:	0002      	movs	r2, r0
 8000b0e:	68bb      	ldr	r3, [r7, #8]
 8000b10:	1ad3      	subs	r3, r2, r3
 8000b12:	68fa      	ldr	r2, [r7, #12]
 8000b14:	429a      	cmp	r2, r3
 8000b16:	d8f7      	bhi.n	8000b08 <HAL_Delay+0x28>
 8000b18:	46c0      	nop			; (mov r8, r8)
 8000b1a:	46c0      	nop			; (mov r8, r8)
 8000b1c:	46bd      	mov	sp, r7
 8000b1e:	b004      	add	sp, #16
 8000b20:	bd80      	pop	{r7, pc}
 8000b22:	46c0      	nop			; (mov r8, r8)
 8000b24:	20000008 	.word	0x20000008

08000b28 <__NVIC_SetPriority>:
 8000b28:	b590      	push	{r4, r7, lr}
 8000b2a:	b083      	sub	sp, #12
 8000b2c:	af00      	add	r7, sp, #0
 8000b2e:	0002      	movs	r2, r0
 8000b30:	6039      	str	r1, [r7, #0]
 8000b32:	1dfb      	adds	r3, r7, #7
 8000b34:	701a      	strb	r2, [r3, #0]
 8000b36:	1dfb      	adds	r3, r7, #7
 8000b38:	781b      	ldrb	r3, [r3, #0]
 8000b3a:	2b7f      	cmp	r3, #127	; 0x7f
 8000b3c:	d828      	bhi.n	8000b90 <__NVIC_SetPriority+0x68>
 8000b3e:	4a2f      	ldr	r2, [pc, #188]	; (8000bfc <__NVIC_SetPriority+0xd4>)
 8000b40:	1dfb      	adds	r3, r7, #7
 8000b42:	781b      	ldrb	r3, [r3, #0]
 8000b44:	b25b      	sxtb	r3, r3
 8000b46:	089b      	lsrs	r3, r3, #2
 8000b48:	33c0      	adds	r3, #192	; 0xc0
 8000b4a:	009b      	lsls	r3, r3, #2
 8000b4c:	589b      	ldr	r3, [r3, r2]
 8000b4e:	1dfa      	adds	r2, r7, #7
 8000b50:	7812      	ldrb	r2, [r2, #0]
 8000b52:	0011      	movs	r1, r2
 8000b54:	2203      	movs	r2, #3
 8000b56:	400a      	ands	r2, r1
 8000b58:	00d2      	lsls	r2, r2, #3
 8000b5a:	21ff      	movs	r1, #255	; 0xff
 8000b5c:	4091      	lsls	r1, r2
 8000b5e:	000a      	movs	r2, r1
 8000b60:	43d2      	mvns	r2, r2
 8000b62:	401a      	ands	r2, r3
 8000b64:	0011      	movs	r1, r2
 8000b66:	683b      	ldr	r3, [r7, #0]
 8000b68:	019b      	lsls	r3, r3, #6
 8000b6a:	22ff      	movs	r2, #255	; 0xff
 8000b6c:	401a      	ands	r2, r3
 8000b6e:	1dfb      	adds	r3, r7, #7
 8000b70:	781b      	ldrb	r3, [r3, #0]
 8000b72:	0018      	movs	r0, r3
 8000b74:	2303      	movs	r3, #3
 8000b76:	4003      	ands	r3, r0
 8000b78:	00db      	lsls	r3, r3, #3
 8000b7a:	409a      	lsls	r2, r3
 8000b7c:	481f      	ldr	r0, [pc, #124]	; (8000bfc <__NVIC_SetPriority+0xd4>)
 8000b7e:	1dfb      	adds	r3, r7, #7
 8000b80:	781b      	ldrb	r3, [r3, #0]
 8000b82:	b25b      	sxtb	r3, r3
 8000b84:	089b      	lsrs	r3, r3, #2
 8000b86:	430a      	orrs	r2, r1
 8000b88:	33c0      	adds	r3, #192	; 0xc0
 8000b8a:	009b      	lsls	r3, r3, #2
 8000b8c:	501a      	str	r2, [r3, r0]
 8000b8e:	e031      	b.n	8000bf4 <__NVIC_SetPriority+0xcc>
 8000b90:	4a1b      	ldr	r2, [pc, #108]	; (8000c00 <__NVIC_SetPriority+0xd8>)
 8000b92:	1dfb      	adds	r3, r7, #7
 8000b94:	781b      	ldrb	r3, [r3, #0]
 8000b96:	0019      	movs	r1, r3
 8000b98:	230f      	movs	r3, #15
 8000b9a:	400b      	ands	r3, r1
 8000b9c:	3b08      	subs	r3, #8
 8000b9e:	089b      	lsrs	r3, r3, #2
 8000ba0:	3306      	adds	r3, #6
 8000ba2:	009b      	lsls	r3, r3, #2
 8000ba4:	18d3      	adds	r3, r2, r3
 8000ba6:	3304      	adds	r3, #4
 8000ba8:	681b      	ldr	r3, [r3, #0]
 8000baa:	1dfa      	adds	r2, r7, #7
 8000bac:	7812      	ldrb	r2, [r2, #0]
 8000bae:	0011      	movs	r1, r2
 8000bb0:	2203      	movs	r2, #3
 8000bb2:	400a      	ands	r2, r1
 8000bb4:	00d2      	lsls	r2, r2, #3
 8000bb6:	21ff      	movs	r1, #255	; 0xff
 8000bb8:	4091      	lsls	r1, r2
 8000bba:	000a      	movs	r2, r1
 8000bbc:	43d2      	mvns	r2, r2
 8000bbe:	401a      	ands	r2, r3
 8000bc0:	0011      	movs	r1, r2
 8000bc2:	683b      	ldr	r3, [r7, #0]
 8000bc4:	019b      	lsls	r3, r3, #6
 8000bc6:	22ff      	movs	r2, #255	; 0xff
 8000bc8:	401a      	ands	r2, r3
 8000bca:	1dfb      	adds	r3, r7, #7
 8000bcc:	781b      	ldrb	r3, [r3, #0]
 8000bce:	0018      	movs	r0, r3
 8000bd0:	2303      	movs	r3, #3
 8000bd2:	4003      	ands	r3, r0
 8000bd4:	00db      	lsls	r3, r3, #3
 8000bd6:	409a      	lsls	r2, r3
 8000bd8:	4809      	ldr	r0, [pc, #36]	; (8000c00 <__NVIC_SetPriority+0xd8>)
 8000bda:	1dfb      	adds	r3, r7, #7
 8000bdc:	781b      	ldrb	r3, [r3, #0]
 8000bde:	001c      	movs	r4, r3
 8000be0:	230f      	movs	r3, #15
 8000be2:	4023      	ands	r3, r4
 8000be4:	3b08      	subs	r3, #8
 8000be6:	089b      	lsrs	r3, r3, #2
 8000be8:	430a      	orrs	r2, r1
 8000bea:	3306      	adds	r3, #6
 8000bec:	009b      	lsls	r3, r3, #2
 8000bee:	18c3      	adds	r3, r0, r3
 8000bf0:	3304      	adds	r3, #4
 8000bf2:	601a      	str	r2, [r3, #0]
 8000bf4:	46c0      	nop			; (mov r8, r8)
 8000bf6:	46bd      	mov	sp, r7
 8000bf8:	b003      	add	sp, #12
 8000bfa:	bd90      	pop	{r4, r7, pc}
 8000bfc:	e000e100 	.word	0xe000e100
 8000c00:	e000ed00 	.word	0xe000ed00

08000c04 <SysTick_Config>:
 8000c04:	b580      	push	{r7, lr}
 8000c06:	b082      	sub	sp, #8
 8000c08:	af00      	add	r7, sp, #0
 8000c0a:	6078      	str	r0, [r7, #4]
 8000c0c:	687b      	ldr	r3, [r7, #4]
 8000c0e:	1e5a      	subs	r2, r3, #1
 8000c10:	2380      	movs	r3, #128	; 0x80
 8000c12:	045b      	lsls	r3, r3, #17
 8000c14:	429a      	cmp	r2, r3
 8000c16:	d301      	bcc.n	8000c1c <SysTick_Config+0x18>
 8000c18:	2301      	movs	r3, #1
 8000c1a:	e010      	b.n	8000c3e <SysTick_Config+0x3a>
 8000c1c:	4b0a      	ldr	r3, [pc, #40]	; (8000c48 <SysTick_Config+0x44>)
 8000c1e:	687a      	ldr	r2, [r7, #4]
 8000c20:	3a01      	subs	r2, #1
 8000c22:	605a      	str	r2, [r3, #4]
 8000c24:	2301      	movs	r3, #1
 8000c26:	425b      	negs	r3, r3
 8000c28:	2103      	movs	r1, #3
 8000c2a:	0018      	movs	r0, r3
 8000c2c:	f7ff ff7c 	bl	8000b28 <__NVIC_SetPriority>
 8000c30:	4b05      	ldr	r3, [pc, #20]	; (8000c48 <SysTick_Config+0x44>)
 8000c32:	2200      	movs	r2, #0
 8000c34:	609a      	str	r2, [r3, #8]
 8000c36:	4b04      	ldr	r3, [pc, #16]	; (8000c48 <SysTick_Config+0x44>)
 8000c38:	2207      	movs	r2, #7
 8000c3a:	601a      	str	r2, [r3, #0]
 8000c3c:	2300      	movs	r3, #0
 8000c3e:	0018      	movs	r0, r3
 8000c40:	46bd      	mov	sp, r7
 8000c42:	b002      	add	sp, #8
 8000c44:	bd80      	pop	{r7, pc}
 8000c46:	46c0      	nop			; (mov r8, r8)
 8000c48:	e000e010 	.word	0xe000e010

08000c4c <HAL_NVIC_SetPriority>:
 8000c4c:	b580      	push	{r7, lr}
 8000c4e:	b084      	sub	sp, #16
 8000c50:	af00      	add	r7, sp, #0
 8000c52:	60b9      	str	r1, [r7, #8]
 8000c54:	607a      	str	r2, [r7, #4]
 8000c56:	210f      	movs	r1, #15
 8000c58:	187b      	adds	r3, r7, r1
 8000c5a:	1c02      	adds	r2, r0, #0
 8000c5c:	701a      	strb	r2, [r3, #0]
 8000c5e:	68ba      	ldr	r2, [r7, #8]
 8000c60:	187b      	adds	r3, r7, r1
 8000c62:	781b      	ldrb	r3, [r3, #0]
 8000c64:	b25b      	sxtb	r3, r3
 8000c66:	0011      	movs	r1, r2
 8000c68:	0018      	movs	r0, r3
 8000c6a:	f7ff ff5d 	bl	8000b28 <__NVIC_SetPriority>
 8000c6e:	46c0      	nop			; (mov r8, r8)
 8000c70:	46bd      	mov	sp, r7
 8000c72:	b004      	add	sp, #16
 8000c74:	bd80      	pop	{r7, pc}

08000c76 <HAL_SYSTICK_Config>:
 8000c76:	b580      	push	{r7, lr}
 8000c78:	b082      	sub	sp, #8
 8000c7a:	af00      	add	r7, sp, #0
 8000c7c:	6078      	str	r0, [r7, #4]
 8000c7e:	687b      	ldr	r3, [r7, #4]
 8000c80:	0018      	movs	r0, r3
 8000c82:	f7ff ffbf 	bl	8000c04 <SysTick_Config>
 8000c86:	0003      	movs	r3, r0
 8000c88:	0018      	movs	r0, r3
 8000c8a:	46bd      	mov	sp, r7
 8000c8c:	b002      	add	sp, #8
 8000c8e:	bd80      	pop	{r7, pc}

08000c90 <HAL_GPIO_Init>:
 8000c90:	b580      	push	{r7, lr}
 8000c92:	b086      	sub	sp, #24
 8000c94:	af00      	add	r7, sp, #0
 8000c96:	6078      	str	r0, [r7, #4]
 8000c98:	6039      	str	r1, [r7, #0]
 8000c9a:	2300      	movs	r3, #0
 8000c9c:	617b      	str	r3, [r7, #20]
 8000c9e:	e155      	b.n	8000f4c <HAL_GPIO_Init+0x2bc>
 8000ca0:	683b      	ldr	r3, [r7, #0]
 8000ca2:	681b      	ldr	r3, [r3, #0]
 8000ca4:	2101      	movs	r1, #1
 8000ca6:	697a      	ldr	r2, [r7, #20]
 8000ca8:	4091      	lsls	r1, r2
 8000caa:	000a      	movs	r2, r1
 8000cac:	4013      	ands	r3, r2
 8000cae:	60fb      	str	r3, [r7, #12]
 8000cb0:	68fb      	ldr	r3, [r7, #12]
 8000cb2:	2b00      	cmp	r3, #0
 8000cb4:	d100      	bne.n	8000cb8 <HAL_GPIO_Init+0x28>
 8000cb6:	e146      	b.n	8000f46 <HAL_GPIO_Init+0x2b6>
 8000cb8:	683b      	ldr	r3, [r7, #0]
 8000cba:	685b      	ldr	r3, [r3, #4]
 8000cbc:	2203      	movs	r2, #3
 8000cbe:	4013      	ands	r3, r2
 8000cc0:	2b01      	cmp	r3, #1
 8000cc2:	d005      	beq.n	8000cd0 <HAL_GPIO_Init+0x40>
 8000cc4:	683b      	ldr	r3, [r7, #0]
 8000cc6:	685b      	ldr	r3, [r3, #4]
 8000cc8:	2203      	movs	r2, #3
 8000cca:	4013      	ands	r3, r2
 8000ccc:	2b02      	cmp	r3, #2
 8000cce:	d130      	bne.n	8000d32 <HAL_GPIO_Init+0xa2>
 8000cd0:	687b      	ldr	r3, [r7, #4]
 8000cd2:	689b      	ldr	r3, [r3, #8]
 8000cd4:	613b      	str	r3, [r7, #16]
 8000cd6:	697b      	ldr	r3, [r7, #20]
 8000cd8:	005b      	lsls	r3, r3, #1
 8000cda:	2203      	movs	r2, #3
 8000cdc:	409a      	lsls	r2, r3
 8000cde:	0013      	movs	r3, r2
 8000ce0:	43da      	mvns	r2, r3
 8000ce2:	693b      	ldr	r3, [r7, #16]
 8000ce4:	4013      	ands	r3, r2
 8000ce6:	613b      	str	r3, [r7, #16]
 8000ce8:	683b      	ldr	r3, [r7, #0]
 8000cea:	68da      	ldr	r2, [r3, #12]
 8000cec:	697b      	ldr	r3, [r7, #20]
 8000cee:	005b      	lsls	r3, r3, #1
 8000cf0:	409a      	lsls	r2, r3
 8000cf2:	0013      	movs	r3, r2
 8000cf4:	693a      	ldr	r2, [r7, #16]
 8000cf6:	4313      	orrs	r3, r2
 8000cf8:	613b      	str	r3, [r7, #16]
 8000cfa:	687b      	ldr	r3, [r7, #4]
 8000cfc:	693a      	ldr	r2, [r7, #16]
 8000cfe:	609a      	str	r2, [r3, #8]
 8000d00:	687b      	ldr	r3, [r7, #4]
 8000d02:	685b      	ldr	r3, [r3, #4]
 8000d04:	613b      	str	r3, [r7, #16]
 8000d06:	2201      	movs	r2, #1
 8000d08:	697b      	ldr	r3, [r7, #20]
 8000d0a:	409a      	lsls	r2, r3
 8000d0c:	0013      	movs	r3, r2
 8000d0e:	43da      	mvns	r2, r3
 8000d10:	693b      	ldr	r3, [r7, #16]
 8000d12:	4013      	ands	r3, r2
 8000d14:	613b      	str	r3, [r7, #16]
 8000d16:	683b      	ldr	r3, [r7, #0]
 8000d18:	685b      	ldr	r3, [r3, #4]
 8000d1a:	091b      	lsrs	r3, r3, #4
 8000d1c:	2201      	movs	r2, #1
 8000d1e:	401a      	ands	r2, r3
 8000d20:	697b      	ldr	r3, [r7, #20]
 8000d22:	409a      	lsls	r2, r3
 8000d24:	0013      	movs	r3, r2
 8000d26:	693a      	ldr	r2, [r7, #16]
 8000d28:	4313      	orrs	r3, r2
 8000d2a:	613b      	str	r3, [r7, #16]
 8000d2c:	687b      	ldr	r3, [r7, #4]
 8000d2e:	693a      	ldr	r2, [r7, #16]
 8000d30:	605a      	str	r2, [r3, #4]
 8000d32:	683b      	ldr	r3, [r7, #0]
 8000d34:	685b      	ldr	r3, [r3, #4]
 8000d36:	2203      	movs	r2, #3
 8000d38:	4013      	ands	r3, r2
 8000d3a:	2b03      	cmp	r3, #3
 8000d3c:	d017      	beq.n	8000d6e <HAL_GPIO_Init+0xde>
 8000d3e:	687b      	ldr	r3, [r7, #4]
 8000d40:	68db      	ldr	r3, [r3, #12]
 8000d42:	613b      	str	r3, [r7, #16]
 8000d44:	697b      	ldr	r3, [r7, #20]
 8000d46:	005b      	lsls	r3, r3, #1
 8000d48:	2203      	movs	r2, #3
 8000d4a:	409a      	lsls	r2, r3
 8000d4c:	0013      	movs	r3, r2
 8000d4e:	43da      	mvns	r2, r3
 8000d50:	693b      	ldr	r3, [r7, #16]
 8000d52:	4013      	ands	r3, r2
 8000d54:	613b      	str	r3, [r7, #16]
 8000d56:	683b      	ldr	r3, [r7, #0]
 8000d58:	689a      	ldr	r2, [r3, #8]
 8000d5a:	697b      	ldr	r3, [r7, #20]
 8000d5c:	005b      	lsls	r3, r3, #1
 8000d5e:	409a      	lsls	r2, r3
 8000d60:	0013      	movs	r3, r2
 8000d62:	693a      	ldr	r2, [r7, #16]
 8000d64:	4313      	orrs	r3, r2
 8000d66:	613b      	str	r3, [r7, #16]
 8000d68:	687b      	ldr	r3, [r7, #4]
 8000d6a:	693a      	ldr	r2, [r7, #16]
 8000d6c:	60da      	str	r2, [r3, #12]
 8000d6e:	683b      	ldr	r3, [r7, #0]
 8000d70:	685b      	ldr	r3, [r3, #4]
 8000d72:	2203      	movs	r2, #3
 8000d74:	4013      	ands	r3, r2
 8000d76:	2b02      	cmp	r3, #2
 8000d78:	d123      	bne.n	8000dc2 <HAL_GPIO_Init+0x132>
 8000d7a:	697b      	ldr	r3, [r7, #20]
 8000d7c:	08da      	lsrs	r2, r3, #3
 8000d7e:	687b      	ldr	r3, [r7, #4]
 8000d80:	3208      	adds	r2, #8
 8000d82:	0092      	lsls	r2, r2, #2
 8000d84:	58d3      	ldr	r3, [r2, r3]
 8000d86:	613b      	str	r3, [r7, #16]
 8000d88:	697b      	ldr	r3, [r7, #20]
 8000d8a:	2207      	movs	r2, #7
 8000d8c:	4013      	ands	r3, r2
 8000d8e:	009b      	lsls	r3, r3, #2
 8000d90:	220f      	movs	r2, #15
 8000d92:	409a      	lsls	r2, r3
 8000d94:	0013      	movs	r3, r2
 8000d96:	43da      	mvns	r2, r3
 8000d98:	693b      	ldr	r3, [r7, #16]
 8000d9a:	4013      	ands	r3, r2
 8000d9c:	613b      	str	r3, [r7, #16]
 8000d9e:	683b      	ldr	r3, [r7, #0]
 8000da0:	691a      	ldr	r2, [r3, #16]
 8000da2:	697b      	ldr	r3, [r7, #20]
 8000da4:	2107      	movs	r1, #7
 8000da6:	400b      	ands	r3, r1
 8000da8:	009b      	lsls	r3, r3, #2
 8000daa:	409a      	lsls	r2, r3
 8000dac:	0013      	movs	r3, r2
 8000dae:	693a      	ldr	r2, [r7, #16]
 8000db0:	4313      	orrs	r3, r2
 8000db2:	613b      	str	r3, [r7, #16]
 8000db4:	697b      	ldr	r3, [r7, #20]
 8000db6:	08da      	lsrs	r2, r3, #3
 8000db8:	687b      	ldr	r3, [r7, #4]
 8000dba:	3208      	adds	r2, #8
 8000dbc:	0092      	lsls	r2, r2, #2
 8000dbe:	6939      	ldr	r1, [r7, #16]
 8000dc0:	50d1      	str	r1, [r2, r3]
 8000dc2:	687b      	ldr	r3, [r7, #4]
 8000dc4:	681b      	ldr	r3, [r3, #0]
 8000dc6:	613b      	str	r3, [r7, #16]
 8000dc8:	697b      	ldr	r3, [r7, #20]
 8000dca:	005b      	lsls	r3, r3, #1
 8000dcc:	2203      	movs	r2, #3
 8000dce:	409a      	lsls	r2, r3
 8000dd0:	0013      	movs	r3, r2
 8000dd2:	43da      	mvns	r2, r3
 8000dd4:	693b      	ldr	r3, [r7, #16]
 8000dd6:	4013      	ands	r3, r2
 8000dd8:	613b      	str	r3, [r7, #16]
 8000dda:	683b      	ldr	r3, [r7, #0]
 8000ddc:	685b      	ldr	r3, [r3, #4]
 8000dde:	2203      	movs	r2, #3
 8000de0:	401a      	ands	r2, r3
 8000de2:	697b      	ldr	r3, [r7, #20]
 8000de4:	005b      	lsls	r3, r3, #1
 8000de6:	409a      	lsls	r2, r3
 8000de8:	0013      	movs	r3, r2
 8000dea:	693a      	ldr	r2, [r7, #16]
 8000dec:	4313      	orrs	r3, r2
 8000dee:	613b      	str	r3, [r7, #16]
 8000df0:	687b      	ldr	r3, [r7, #4]
 8000df2:	693a      	ldr	r2, [r7, #16]
 8000df4:	601a      	str	r2, [r3, #0]
 8000df6:	683b      	ldr	r3, [r7, #0]
 8000df8:	685a      	ldr	r2, [r3, #4]
 8000dfa:	23c0      	movs	r3, #192	; 0xc0
 8000dfc:	029b      	lsls	r3, r3, #10
 8000dfe:	4013      	ands	r3, r2
 8000e00:	d100      	bne.n	8000e04 <HAL_GPIO_Init+0x174>
 8000e02:	e0a0      	b.n	8000f46 <HAL_GPIO_Init+0x2b6>
 8000e04:	4b57      	ldr	r3, [pc, #348]	; (8000f64 <HAL_GPIO_Init+0x2d4>)
 8000e06:	699a      	ldr	r2, [r3, #24]
 8000e08:	4b56      	ldr	r3, [pc, #344]	; (8000f64 <HAL_GPIO_Init+0x2d4>)
 8000e0a:	2101      	movs	r1, #1
 8000e0c:	430a      	orrs	r2, r1
 8000e0e:	619a      	str	r2, [r3, #24]
 8000e10:	4b54      	ldr	r3, [pc, #336]	; (8000f64 <HAL_GPIO_Init+0x2d4>)
 8000e12:	699b      	ldr	r3, [r3, #24]
 8000e14:	2201      	movs	r2, #1
 8000e16:	4013      	ands	r3, r2
 8000e18:	60bb      	str	r3, [r7, #8]
 8000e1a:	68bb      	ldr	r3, [r7, #8]
 8000e1c:	4a52      	ldr	r2, [pc, #328]	; (8000f68 <HAL_GPIO_Init+0x2d8>)
 8000e1e:	697b      	ldr	r3, [r7, #20]
 8000e20:	089b      	lsrs	r3, r3, #2
 8000e22:	3302      	adds	r3, #2
 8000e24:	009b      	lsls	r3, r3, #2
 8000e26:	589b      	ldr	r3, [r3, r2]
 8000e28:	613b      	str	r3, [r7, #16]
 8000e2a:	697b      	ldr	r3, [r7, #20]
 8000e2c:	2203      	movs	r2, #3
 8000e2e:	4013      	ands	r3, r2
 8000e30:	009b      	lsls	r3, r3, #2
 8000e32:	220f      	movs	r2, #15
 8000e34:	409a      	lsls	r2, r3
 8000e36:	0013      	movs	r3, r2
 8000e38:	43da      	mvns	r2, r3
 8000e3a:	693b      	ldr	r3, [r7, #16]
 8000e3c:	4013      	ands	r3, r2
 8000e3e:	613b      	str	r3, [r7, #16]
 8000e40:	687a      	ldr	r2, [r7, #4]
 8000e42:	2390      	movs	r3, #144	; 0x90
 8000e44:	05db      	lsls	r3, r3, #23
 8000e46:	429a      	cmp	r2, r3
 8000e48:	d019      	beq.n	8000e7e <HAL_GPIO_Init+0x1ee>
 8000e4a:	687b      	ldr	r3, [r7, #4]
 8000e4c:	4a47      	ldr	r2, [pc, #284]	; (8000f6c <HAL_GPIO_Init+0x2dc>)
 8000e4e:	4293      	cmp	r3, r2
 8000e50:	d013      	beq.n	8000e7a <HAL_GPIO_Init+0x1ea>
 8000e52:	687b      	ldr	r3, [r7, #4]
 8000e54:	4a46      	ldr	r2, [pc, #280]	; (8000f70 <HAL_GPIO_Init+0x2e0>)
 8000e56:	4293      	cmp	r3, r2
 8000e58:	d00d      	beq.n	8000e76 <HAL_GPIO_Init+0x1e6>
 8000e5a:	687b      	ldr	r3, [r7, #4]
 8000e5c:	4a45      	ldr	r2, [pc, #276]	; (8000f74 <HAL_GPIO_Init+0x2e4>)
 8000e5e:	4293      	cmp	r3, r2
 8000e60:	d007      	beq.n	8000e72 <HAL_GPIO_Init+0x1e2>
 8000e62:	687b      	ldr	r3, [r7, #4]
 8000e64:	4a44      	ldr	r2, [pc, #272]	; (8000f78 <HAL_GPIO_Init+0x2e8>)
 8000e66:	4293      	cmp	r3, r2
 8000e68:	d101      	bne.n	8000e6e <HAL_GPIO_Init+0x1de>
 8000e6a:	2304      	movs	r3, #4
 8000e6c:	e008      	b.n	8000e80 <HAL_GPIO_Init+0x1f0>
 8000e6e:	2305      	movs	r3, #5
 8000e70:	e006      	b.n	8000e80 <HAL_GPIO_Init+0x1f0>
 8000e72:	2303      	movs	r3, #3
 8000e74:	e004      	b.n	8000e80 <HAL_GPIO_Init+0x1f0>
 8000e76:	2302      	movs	r3, #2
 8000e78:	e002      	b.n	8000e80 <HAL_GPIO_Init+0x1f0>
 8000e7a:	2301      	movs	r3, #1
 8000e7c:	e000      	b.n	8000e80 <HAL_GPIO_Init+0x1f0>
 8000e7e:	2300      	movs	r3, #0
 8000e80:	697a      	ldr	r2, [r7, #20]
 8000e82:	2103      	movs	r1, #3
 8000e84:	400a      	ands	r2, r1
 8000e86:	0092      	lsls	r2, r2, #2
 8000e88:	4093      	lsls	r3, r2
 8000e8a:	693a      	ldr	r2, [r7, #16]
 8000e8c:	4313      	orrs	r3, r2
 8000e8e:	613b      	str	r3, [r7, #16]
 8000e90:	4935      	ldr	r1, [pc, #212]	; (8000f68 <HAL_GPIO_Init+0x2d8>)
 8000e92:	697b      	ldr	r3, [r7, #20]
 8000e94:	089b      	lsrs	r3, r3, #2
 8000e96:	3302      	adds	r3, #2
 8000e98:	009b      	lsls	r3, r3, #2
 8000e9a:	693a      	ldr	r2, [r7, #16]
 8000e9c:	505a      	str	r2, [r3, r1]
 8000e9e:	4b37      	ldr	r3, [pc, #220]	; (8000f7c <HAL_GPIO_Init+0x2ec>)
 8000ea0:	681b      	ldr	r3, [r3, #0]
 8000ea2:	613b      	str	r3, [r7, #16]
 8000ea4:	68fb      	ldr	r3, [r7, #12]
 8000ea6:	43da      	mvns	r2, r3
 8000ea8:	693b      	ldr	r3, [r7, #16]
 8000eaa:	4013      	ands	r3, r2
 8000eac:	613b      	str	r3, [r7, #16]
 8000eae:	683b      	ldr	r3, [r7, #0]
 8000eb0:	685a      	ldr	r2, [r3, #4]
 8000eb2:	2380      	movs	r3, #128	; 0x80
 8000eb4:	025b      	lsls	r3, r3, #9
 8000eb6:	4013      	ands	r3, r2
 8000eb8:	d003      	beq.n	8000ec2 <HAL_GPIO_Init+0x232>
 8000eba:	693a      	ldr	r2, [r7, #16]
 8000ebc:	68fb      	ldr	r3, [r7, #12]
 8000ebe:	4313      	orrs	r3, r2
 8000ec0:	613b      	str	r3, [r7, #16]
 8000ec2:	4b2e      	ldr	r3, [pc, #184]	; (8000f7c <HAL_GPIO_Init+0x2ec>)
 8000ec4:	693a      	ldr	r2, [r7, #16]
 8000ec6:	601a      	str	r2, [r3, #0]
 8000ec8:	4b2c      	ldr	r3, [pc, #176]	; (8000f7c <HAL_GPIO_Init+0x2ec>)
 8000eca:	685b      	ldr	r3, [r3, #4]
 8000ecc:	613b      	str	r3, [r7, #16]
 8000ece:	68fb      	ldr	r3, [r7, #12]
 8000ed0:	43da      	mvns	r2, r3
 8000ed2:	693b      	ldr	r3, [r7, #16]
 8000ed4:	4013      	ands	r3, r2
 8000ed6:	613b      	str	r3, [r7, #16]
 8000ed8:	683b      	ldr	r3, [r7, #0]
 8000eda:	685a      	ldr	r2, [r3, #4]
 8000edc:	2380      	movs	r3, #128	; 0x80
 8000ede:	029b      	lsls	r3, r3, #10
 8000ee0:	4013      	ands	r3, r2
 8000ee2:	d003      	beq.n	8000eec <HAL_GPIO_Init+0x25c>
 8000ee4:	693a      	ldr	r2, [r7, #16]
 8000ee6:	68fb      	ldr	r3, [r7, #12]
 8000ee8:	4313      	orrs	r3, r2
 8000eea:	613b      	str	r3, [r7, #16]
 8000eec:	4b23      	ldr	r3, [pc, #140]	; (8000f7c <HAL_GPIO_Init+0x2ec>)
 8000eee:	693a      	ldr	r2, [r7, #16]
 8000ef0:	605a      	str	r2, [r3, #4]
 8000ef2:	4b22      	ldr	r3, [pc, #136]	; (8000f7c <HAL_GPIO_Init+0x2ec>)
 8000ef4:	689b      	ldr	r3, [r3, #8]
 8000ef6:	613b      	str	r3, [r7, #16]
 8000ef8:	68fb      	ldr	r3, [r7, #12]
 8000efa:	43da      	mvns	r2, r3
 8000efc:	693b      	ldr	r3, [r7, #16]
 8000efe:	4013      	ands	r3, r2
 8000f00:	613b      	str	r3, [r7, #16]
 8000f02:	683b      	ldr	r3, [r7, #0]
 8000f04:	685a      	ldr	r2, [r3, #4]
 8000f06:	2380      	movs	r3, #128	; 0x80
 8000f08:	035b      	lsls	r3, r3, #13
 8000f0a:	4013      	ands	r3, r2
 8000f0c:	d003      	beq.n	8000f16 <HAL_GPIO_Init+0x286>
 8000f0e:	693a      	ldr	r2, [r7, #16]
 8000f10:	68fb      	ldr	r3, [r7, #12]
 8000f12:	4313      	orrs	r3, r2
 8000f14:	613b      	str	r3, [r7, #16]
 8000f16:	4b19      	ldr	r3, [pc, #100]	; (8000f7c <HAL_GPIO_Init+0x2ec>)
 8000f18:	693a      	ldr	r2, [r7, #16]
 8000f1a:	609a      	str	r2, [r3, #8]
 8000f1c:	4b17      	ldr	r3, [pc, #92]	; (8000f7c <HAL_GPIO_Init+0x2ec>)
 8000f1e:	68db      	ldr	r3, [r3, #12]
 8000f20:	613b      	str	r3, [r7, #16]
 8000f22:	68fb      	ldr	r3, [r7, #12]
 8000f24:	43da      	mvns	r2, r3
 8000f26:	693b      	ldr	r3, [r7, #16]
 8000f28:	4013      	ands	r3, r2
 8000f2a:	613b      	str	r3, [r7, #16]
 8000f2c:	683b      	ldr	r3, [r7, #0]
 8000f2e:	685a      	ldr	r2, [r3, #4]
 8000f30:	2380      	movs	r3, #128	; 0x80
 8000f32:	039b      	lsls	r3, r3, #14
 8000f34:	4013      	ands	r3, r2
 8000f36:	d003      	beq.n	8000f40 <HAL_GPIO_Init+0x2b0>
 8000f38:	693a      	ldr	r2, [r7, #16]
 8000f3a:	68fb      	ldr	r3, [r7, #12]
 8000f3c:	4313      	orrs	r3, r2
 8000f3e:	613b      	str	r3, [r7, #16]
 8000f40:	4b0e      	ldr	r3, [pc, #56]	; (8000f7c <HAL_GPIO_Init+0x2ec>)
 8000f42:	693a      	ldr	r2, [r7, #16]
 8000f44:	60da      	str	r2, [r3, #12]
 8000f46:	697b      	ldr	r3, [r7, #20]
 8000f48:	3301      	adds	r3, #1
 8000f4a:	617b      	str	r3, [r7, #20]
 8000f4c:	683b      	ldr	r3, [r7, #0]
 8000f4e:	681a      	ldr	r2, [r3, #0]
 8000f50:	697b      	ldr	r3, [r7, #20]
 8000f52:	40da      	lsrs	r2, r3
 8000f54:	1e13      	subs	r3, r2, #0
 8000f56:	d000      	beq.n	8000f5a <HAL_GPIO_Init+0x2ca>
 8000f58:	e6a2      	b.n	8000ca0 <HAL_GPIO_Init+0x10>
 8000f5a:	46c0      	nop			; (mov r8, r8)
 8000f5c:	46c0      	nop			; (mov r8, r8)
 8000f5e:	46bd      	mov	sp, r7
 8000f60:	b006      	add	sp, #24
 8000f62:	bd80      	pop	{r7, pc}
 8000f64:	40021000 	.word	0x40021000
 8000f68:	40010000 	.word	0x40010000
 8000f6c:	48000400 	.word	0x48000400
 8000f70:	48000800 	.word	0x48000800
 8000f74:	48000c00 	.word	0x48000c00
 8000f78:	48001000 	.word	0x48001000
 8000f7c:	40010400 	.word	0x40010400

08000f80 <HAL_GPIO_WritePin>:
 8000f80:	b580      	push	{r7, lr}
 8000f82:	b082      	sub	sp, #8
 8000f84:	af00      	add	r7, sp, #0
 8000f86:	6078      	str	r0, [r7, #4]
 8000f88:	0008      	movs	r0, r1
 8000f8a:	0011      	movs	r1, r2
 8000f8c:	1cbb      	adds	r3, r7, #2
 8000f8e:	1c02      	adds	r2, r0, #0
 8000f90:	801a      	strh	r2, [r3, #0]
 8000f92:	1c7b      	adds	r3, r7, #1
 8000f94:	1c0a      	adds	r2, r1, #0
 8000f96:	701a      	strb	r2, [r3, #0]
 8000f98:	1c7b      	adds	r3, r7, #1
 8000f9a:	781b      	ldrb	r3, [r3, #0]
 8000f9c:	2b00      	cmp	r3, #0
 8000f9e:	d004      	beq.n	8000faa <HAL_GPIO_WritePin+0x2a>
 8000fa0:	1cbb      	adds	r3, r7, #2
 8000fa2:	881a      	ldrh	r2, [r3, #0]
 8000fa4:	687b      	ldr	r3, [r7, #4]
 8000fa6:	619a      	str	r2, [r3, #24]
 8000fa8:	e003      	b.n	8000fb2 <HAL_GPIO_WritePin+0x32>
 8000faa:	1cbb      	adds	r3, r7, #2
 8000fac:	881a      	ldrh	r2, [r3, #0]
 8000fae:	687b      	ldr	r3, [r7, #4]
 8000fb0:	629a      	str	r2, [r3, #40]	; 0x28
 8000fb2:	46c0      	nop			; (mov r8, r8)
 8000fb4:	46bd      	mov	sp, r7
 8000fb6:	b002      	add	sp, #8
 8000fb8:	bd80      	pop	{r7, pc}
	...

08000fbc <HAL_RCC_OscConfig>:
 8000fbc:	b580      	push	{r7, lr}
 8000fbe:	b088      	sub	sp, #32
 8000fc0:	af00      	add	r7, sp, #0
 8000fc2:	6078      	str	r0, [r7, #4]
 8000fc4:	687b      	ldr	r3, [r7, #4]
 8000fc6:	2b00      	cmp	r3, #0
 8000fc8:	d102      	bne.n	8000fd0 <HAL_RCC_OscConfig+0x14>
 8000fca:	2301      	movs	r3, #1
 8000fcc:	f000 fb76 	bl	80016bc <HAL_RCC_OscConfig+0x700>
 8000fd0:	687b      	ldr	r3, [r7, #4]
 8000fd2:	681b      	ldr	r3, [r3, #0]
 8000fd4:	2201      	movs	r2, #1
 8000fd6:	4013      	ands	r3, r2
 8000fd8:	d100      	bne.n	8000fdc <HAL_RCC_OscConfig+0x20>
 8000fda:	e08e      	b.n	80010fa <HAL_RCC_OscConfig+0x13e>
 8000fdc:	4bc5      	ldr	r3, [pc, #788]	; (80012f4 <HAL_RCC_OscConfig+0x338>)
 8000fde:	685b      	ldr	r3, [r3, #4]
 8000fe0:	220c      	movs	r2, #12
 8000fe2:	4013      	ands	r3, r2
 8000fe4:	2b04      	cmp	r3, #4
 8000fe6:	d00e      	beq.n	8001006 <HAL_RCC_OscConfig+0x4a>
 8000fe8:	4bc2      	ldr	r3, [pc, #776]	; (80012f4 <HAL_RCC_OscConfig+0x338>)
 8000fea:	685b      	ldr	r3, [r3, #4]
 8000fec:	220c      	movs	r2, #12
 8000fee:	4013      	ands	r3, r2
 8000ff0:	2b08      	cmp	r3, #8
 8000ff2:	d117      	bne.n	8001024 <HAL_RCC_OscConfig+0x68>
 8000ff4:	4bbf      	ldr	r3, [pc, #764]	; (80012f4 <HAL_RCC_OscConfig+0x338>)
 8000ff6:	685a      	ldr	r2, [r3, #4]
 8000ff8:	23c0      	movs	r3, #192	; 0xc0
 8000ffa:	025b      	lsls	r3, r3, #9
 8000ffc:	401a      	ands	r2, r3
 8000ffe:	2380      	movs	r3, #128	; 0x80
 8001000:	025b      	lsls	r3, r3, #9
 8001002:	429a      	cmp	r2, r3
 8001004:	d10e      	bne.n	8001024 <HAL_RCC_OscConfig+0x68>
 8001006:	4bbb      	ldr	r3, [pc, #748]	; (80012f4 <HAL_RCC_OscConfig+0x338>)
 8001008:	681a      	ldr	r2, [r3, #0]
 800100a:	2380      	movs	r3, #128	; 0x80
 800100c:	029b      	lsls	r3, r3, #10
 800100e:	4013      	ands	r3, r2
 8001010:	d100      	bne.n	8001014 <HAL_RCC_OscConfig+0x58>
 8001012:	e071      	b.n	80010f8 <HAL_RCC_OscConfig+0x13c>
 8001014:	687b      	ldr	r3, [r7, #4]
 8001016:	685b      	ldr	r3, [r3, #4]
 8001018:	2b00      	cmp	r3, #0
 800101a:	d000      	beq.n	800101e <HAL_RCC_OscConfig+0x62>
 800101c:	e06c      	b.n	80010f8 <HAL_RCC_OscConfig+0x13c>
 800101e:	2301      	movs	r3, #1
 8001020:	f000 fb4c 	bl	80016bc <HAL_RCC_OscConfig+0x700>
 8001024:	687b      	ldr	r3, [r7, #4]
 8001026:	685b      	ldr	r3, [r3, #4]
 8001028:	2b01      	cmp	r3, #1
 800102a:	d107      	bne.n	800103c <HAL_RCC_OscConfig+0x80>
 800102c:	4bb1      	ldr	r3, [pc, #708]	; (80012f4 <HAL_RCC_OscConfig+0x338>)
 800102e:	681a      	ldr	r2, [r3, #0]
 8001030:	4bb0      	ldr	r3, [pc, #704]	; (80012f4 <HAL_RCC_OscConfig+0x338>)
 8001032:	2180      	movs	r1, #128	; 0x80
 8001034:	0249      	lsls	r1, r1, #9
 8001036:	430a      	orrs	r2, r1
 8001038:	601a      	str	r2, [r3, #0]
 800103a:	e02f      	b.n	800109c <HAL_RCC_OscConfig+0xe0>
 800103c:	687b      	ldr	r3, [r7, #4]
 800103e:	685b      	ldr	r3, [r3, #4]
 8001040:	2b00      	cmp	r3, #0
 8001042:	d10c      	bne.n	800105e <HAL_RCC_OscConfig+0xa2>
 8001044:	4bab      	ldr	r3, [pc, #684]	; (80012f4 <HAL_RCC_OscConfig+0x338>)
 8001046:	681a      	ldr	r2, [r3, #0]
 8001048:	4baa      	ldr	r3, [pc, #680]	; (80012f4 <HAL_RCC_OscConfig+0x338>)
 800104a:	49ab      	ldr	r1, [pc, #684]	; (80012f8 <HAL_RCC_OscConfig+0x33c>)
 800104c:	400a      	ands	r2, r1
 800104e:	601a      	str	r2, [r3, #0]
 8001050:	4ba8      	ldr	r3, [pc, #672]	; (80012f4 <HAL_RCC_OscConfig+0x338>)
 8001052:	681a      	ldr	r2, [r3, #0]
 8001054:	4ba7      	ldr	r3, [pc, #668]	; (80012f4 <HAL_RCC_OscConfig+0x338>)
 8001056:	49a9      	ldr	r1, [pc, #676]	; (80012fc <HAL_RCC_OscConfig+0x340>)
 8001058:	400a      	ands	r2, r1
 800105a:	601a      	str	r2, [r3, #0]
 800105c:	e01e      	b.n	800109c <HAL_RCC_OscConfig+0xe0>
 800105e:	687b      	ldr	r3, [r7, #4]
 8001060:	685b      	ldr	r3, [r3, #4]
 8001062:	2b05      	cmp	r3, #5
 8001064:	d10e      	bne.n	8001084 <HAL_RCC_OscConfig+0xc8>
 8001066:	4ba3      	ldr	r3, [pc, #652]	; (80012f4 <HAL_RCC_OscConfig+0x338>)
 8001068:	681a      	ldr	r2, [r3, #0]
 800106a:	4ba2      	ldr	r3, [pc, #648]	; (80012f4 <HAL_RCC_OscConfig+0x338>)
 800106c:	2180      	movs	r1, #128	; 0x80
 800106e:	02c9      	lsls	r1, r1, #11
 8001070:	430a      	orrs	r2, r1
 8001072:	601a      	str	r2, [r3, #0]
 8001074:	4b9f      	ldr	r3, [pc, #636]	; (80012f4 <HAL_RCC_OscConfig+0x338>)
 8001076:	681a      	ldr	r2, [r3, #0]
 8001078:	4b9e      	ldr	r3, [pc, #632]	; (80012f4 <HAL_RCC_OscConfig+0x338>)
 800107a:	2180      	movs	r1, #128	; 0x80
 800107c:	0249      	lsls	r1, r1, #9
 800107e:	430a      	orrs	r2, r1
 8001080:	601a      	str	r2, [r3, #0]
 8001082:	e00b      	b.n	800109c <HAL_RCC_OscConfig+0xe0>
 8001084:	4b9b      	ldr	r3, [pc, #620]	; (80012f4 <HAL_RCC_OscConfig+0x338>)
 8001086:	681a      	ldr	r2, [r3, #0]
 8001088:	4b9a      	ldr	r3, [pc, #616]	; (80012f4 <HAL_RCC_OscConfig+0x338>)
 800108a:	499b      	ldr	r1, [pc, #620]	; (80012f8 <HAL_RCC_OscConfig+0x33c>)
 800108c:	400a      	ands	r2, r1
 800108e:	601a      	str	r2, [r3, #0]
 8001090:	4b98      	ldr	r3, [pc, #608]	; (80012f4 <HAL_RCC_OscConfig+0x338>)
 8001092:	681a      	ldr	r2, [r3, #0]
 8001094:	4b97      	ldr	r3, [pc, #604]	; (80012f4 <HAL_RCC_OscConfig+0x338>)
 8001096:	4999      	ldr	r1, [pc, #612]	; (80012fc <HAL_RCC_OscConfig+0x340>)
 8001098:	400a      	ands	r2, r1
 800109a:	601a      	str	r2, [r3, #0]
 800109c:	687b      	ldr	r3, [r7, #4]
 800109e:	685b      	ldr	r3, [r3, #4]
 80010a0:	2b00      	cmp	r3, #0
 80010a2:	d014      	beq.n	80010ce <HAL_RCC_OscConfig+0x112>
 80010a4:	f7ff fd12 	bl	8000acc <HAL_GetTick>
 80010a8:	0003      	movs	r3, r0
 80010aa:	61bb      	str	r3, [r7, #24]
 80010ac:	e008      	b.n	80010c0 <HAL_RCC_OscConfig+0x104>
 80010ae:	f7ff fd0d 	bl	8000acc <HAL_GetTick>
 80010b2:	0002      	movs	r2, r0
 80010b4:	69bb      	ldr	r3, [r7, #24]
 80010b6:	1ad3      	subs	r3, r2, r3
 80010b8:	2b64      	cmp	r3, #100	; 0x64
 80010ba:	d901      	bls.n	80010c0 <HAL_RCC_OscConfig+0x104>
 80010bc:	2303      	movs	r3, #3
 80010be:	e2fd      	b.n	80016bc <HAL_RCC_OscConfig+0x700>
 80010c0:	4b8c      	ldr	r3, [pc, #560]	; (80012f4 <HAL_RCC_OscConfig+0x338>)
 80010c2:	681a      	ldr	r2, [r3, #0]
 80010c4:	2380      	movs	r3, #128	; 0x80
 80010c6:	029b      	lsls	r3, r3, #10
 80010c8:	4013      	ands	r3, r2
 80010ca:	d0f0      	beq.n	80010ae <HAL_RCC_OscConfig+0xf2>
 80010cc:	e015      	b.n	80010fa <HAL_RCC_OscConfig+0x13e>
 80010ce:	f7ff fcfd 	bl	8000acc <HAL_GetTick>
 80010d2:	0003      	movs	r3, r0
 80010d4:	61bb      	str	r3, [r7, #24]
 80010d6:	e008      	b.n	80010ea <HAL_RCC_OscConfig+0x12e>
 80010d8:	f7ff fcf8 	bl	8000acc <HAL_GetTick>
 80010dc:	0002      	movs	r2, r0
 80010de:	69bb      	ldr	r3, [r7, #24]
 80010e0:	1ad3      	subs	r3, r2, r3
 80010e2:	2b64      	cmp	r3, #100	; 0x64
 80010e4:	d901      	bls.n	80010ea <HAL_RCC_OscConfig+0x12e>
 80010e6:	2303      	movs	r3, #3
 80010e8:	e2e8      	b.n	80016bc <HAL_RCC_OscConfig+0x700>
 80010ea:	4b82      	ldr	r3, [pc, #520]	; (80012f4 <HAL_RCC_OscConfig+0x338>)
 80010ec:	681a      	ldr	r2, [r3, #0]
 80010ee:	2380      	movs	r3, #128	; 0x80
 80010f0:	029b      	lsls	r3, r3, #10
 80010f2:	4013      	ands	r3, r2
 80010f4:	d1f0      	bne.n	80010d8 <HAL_RCC_OscConfig+0x11c>
 80010f6:	e000      	b.n	80010fa <HAL_RCC_OscConfig+0x13e>
 80010f8:	46c0      	nop			; (mov r8, r8)
 80010fa:	687b      	ldr	r3, [r7, #4]
 80010fc:	681b      	ldr	r3, [r3, #0]
 80010fe:	2202      	movs	r2, #2
 8001100:	4013      	ands	r3, r2
 8001102:	d100      	bne.n	8001106 <HAL_RCC_OscConfig+0x14a>
 8001104:	e06c      	b.n	80011e0 <HAL_RCC_OscConfig+0x224>
 8001106:	4b7b      	ldr	r3, [pc, #492]	; (80012f4 <HAL_RCC_OscConfig+0x338>)
 8001108:	685b      	ldr	r3, [r3, #4]
 800110a:	220c      	movs	r2, #12
 800110c:	4013      	ands	r3, r2
 800110e:	d00e      	beq.n	800112e <HAL_RCC_OscConfig+0x172>
 8001110:	4b78      	ldr	r3, [pc, #480]	; (80012f4 <HAL_RCC_OscConfig+0x338>)
 8001112:	685b      	ldr	r3, [r3, #4]
 8001114:	220c      	movs	r2, #12
 8001116:	4013      	ands	r3, r2
 8001118:	2b08      	cmp	r3, #8
 800111a:	d11f      	bne.n	800115c <HAL_RCC_OscConfig+0x1a0>
 800111c:	4b75      	ldr	r3, [pc, #468]	; (80012f4 <HAL_RCC_OscConfig+0x338>)
 800111e:	685a      	ldr	r2, [r3, #4]
 8001120:	23c0      	movs	r3, #192	; 0xc0
 8001122:	025b      	lsls	r3, r3, #9
 8001124:	401a      	ands	r2, r3
 8001126:	2380      	movs	r3, #128	; 0x80
 8001128:	021b      	lsls	r3, r3, #8
 800112a:	429a      	cmp	r2, r3
 800112c:	d116      	bne.n	800115c <HAL_RCC_OscConfig+0x1a0>
 800112e:	4b71      	ldr	r3, [pc, #452]	; (80012f4 <HAL_RCC_OscConfig+0x338>)
 8001130:	681b      	ldr	r3, [r3, #0]
 8001132:	2202      	movs	r2, #2
 8001134:	4013      	ands	r3, r2
 8001136:	d005      	beq.n	8001144 <HAL_RCC_OscConfig+0x188>
 8001138:	687b      	ldr	r3, [r7, #4]
 800113a:	68db      	ldr	r3, [r3, #12]
 800113c:	2b01      	cmp	r3, #1
 800113e:	d001      	beq.n	8001144 <HAL_RCC_OscConfig+0x188>
 8001140:	2301      	movs	r3, #1
 8001142:	e2bb      	b.n	80016bc <HAL_RCC_OscConfig+0x700>
 8001144:	4b6b      	ldr	r3, [pc, #428]	; (80012f4 <HAL_RCC_OscConfig+0x338>)
 8001146:	681b      	ldr	r3, [r3, #0]
 8001148:	22f8      	movs	r2, #248	; 0xf8
 800114a:	4393      	bics	r3, r2
 800114c:	0019      	movs	r1, r3
 800114e:	687b      	ldr	r3, [r7, #4]
 8001150:	691b      	ldr	r3, [r3, #16]
 8001152:	00da      	lsls	r2, r3, #3
 8001154:	4b67      	ldr	r3, [pc, #412]	; (80012f4 <HAL_RCC_OscConfig+0x338>)
 8001156:	430a      	orrs	r2, r1
 8001158:	601a      	str	r2, [r3, #0]
 800115a:	e041      	b.n	80011e0 <HAL_RCC_OscConfig+0x224>
 800115c:	687b      	ldr	r3, [r7, #4]
 800115e:	68db      	ldr	r3, [r3, #12]
 8001160:	2b00      	cmp	r3, #0
 8001162:	d024      	beq.n	80011ae <HAL_RCC_OscConfig+0x1f2>
 8001164:	4b63      	ldr	r3, [pc, #396]	; (80012f4 <HAL_RCC_OscConfig+0x338>)
 8001166:	681a      	ldr	r2, [r3, #0]
 8001168:	4b62      	ldr	r3, [pc, #392]	; (80012f4 <HAL_RCC_OscConfig+0x338>)
 800116a:	2101      	movs	r1, #1
 800116c:	430a      	orrs	r2, r1
 800116e:	601a      	str	r2, [r3, #0]
 8001170:	f7ff fcac 	bl	8000acc <HAL_GetTick>
 8001174:	0003      	movs	r3, r0
 8001176:	61bb      	str	r3, [r7, #24]
 8001178:	e008      	b.n	800118c <HAL_RCC_OscConfig+0x1d0>
 800117a:	f7ff fca7 	bl	8000acc <HAL_GetTick>
 800117e:	0002      	movs	r2, r0
 8001180:	69bb      	ldr	r3, [r7, #24]
 8001182:	1ad3      	subs	r3, r2, r3
 8001184:	2b02      	cmp	r3, #2
 8001186:	d901      	bls.n	800118c <HAL_RCC_OscConfig+0x1d0>
 8001188:	2303      	movs	r3, #3
 800118a:	e297      	b.n	80016bc <HAL_RCC_OscConfig+0x700>
 800118c:	4b59      	ldr	r3, [pc, #356]	; (80012f4 <HAL_RCC_OscConfig+0x338>)
 800118e:	681b      	ldr	r3, [r3, #0]
 8001190:	2202      	movs	r2, #2
 8001192:	4013      	ands	r3, r2
 8001194:	d0f1      	beq.n	800117a <HAL_RCC_OscConfig+0x1be>
 8001196:	4b57      	ldr	r3, [pc, #348]	; (80012f4 <HAL_RCC_OscConfig+0x338>)
 8001198:	681b      	ldr	r3, [r3, #0]
 800119a:	22f8      	movs	r2, #248	; 0xf8
 800119c:	4393      	bics	r3, r2
 800119e:	0019      	movs	r1, r3
 80011a0:	687b      	ldr	r3, [r7, #4]
 80011a2:	691b      	ldr	r3, [r3, #16]
 80011a4:	00da      	lsls	r2, r3, #3
 80011a6:	4b53      	ldr	r3, [pc, #332]	; (80012f4 <HAL_RCC_OscConfig+0x338>)
 80011a8:	430a      	orrs	r2, r1
 80011aa:	601a      	str	r2, [r3, #0]
 80011ac:	e018      	b.n	80011e0 <HAL_RCC_OscConfig+0x224>
 80011ae:	4b51      	ldr	r3, [pc, #324]	; (80012f4 <HAL_RCC_OscConfig+0x338>)
 80011b0:	681a      	ldr	r2, [r3, #0]
 80011b2:	4b50      	ldr	r3, [pc, #320]	; (80012f4 <HAL_RCC_OscConfig+0x338>)
 80011b4:	2101      	movs	r1, #1
 80011b6:	438a      	bics	r2, r1
 80011b8:	601a      	str	r2, [r3, #0]
 80011ba:	f7ff fc87 	bl	8000acc <HAL_GetTick>
 80011be:	0003      	movs	r3, r0
 80011c0:	61bb      	str	r3, [r7, #24]
 80011c2:	e008      	b.n	80011d6 <HAL_RCC_OscConfig+0x21a>
 80011c4:	f7ff fc82 	bl	8000acc <HAL_GetTick>
 80011c8:	0002      	movs	r2, r0
 80011ca:	69bb      	ldr	r3, [r7, #24]
 80011cc:	1ad3      	subs	r3, r2, r3
 80011ce:	2b02      	cmp	r3, #2
 80011d0:	d901      	bls.n	80011d6 <HAL_RCC_OscConfig+0x21a>
 80011d2:	2303      	movs	r3, #3
 80011d4:	e272      	b.n	80016bc <HAL_RCC_OscConfig+0x700>
 80011d6:	4b47      	ldr	r3, [pc, #284]	; (80012f4 <HAL_RCC_OscConfig+0x338>)
 80011d8:	681b      	ldr	r3, [r3, #0]
 80011da:	2202      	movs	r2, #2
 80011dc:	4013      	ands	r3, r2
 80011de:	d1f1      	bne.n	80011c4 <HAL_RCC_OscConfig+0x208>
 80011e0:	687b      	ldr	r3, [r7, #4]
 80011e2:	681b      	ldr	r3, [r3, #0]
 80011e4:	2208      	movs	r2, #8
 80011e6:	4013      	ands	r3, r2
 80011e8:	d036      	beq.n	8001258 <HAL_RCC_OscConfig+0x29c>
 80011ea:	687b      	ldr	r3, [r7, #4]
 80011ec:	69db      	ldr	r3, [r3, #28]
 80011ee:	2b00      	cmp	r3, #0
 80011f0:	d019      	beq.n	8001226 <HAL_RCC_OscConfig+0x26a>
 80011f2:	4b40      	ldr	r3, [pc, #256]	; (80012f4 <HAL_RCC_OscConfig+0x338>)
 80011f4:	6a5a      	ldr	r2, [r3, #36]	; 0x24
 80011f6:	4b3f      	ldr	r3, [pc, #252]	; (80012f4 <HAL_RCC_OscConfig+0x338>)
 80011f8:	2101      	movs	r1, #1
 80011fa:	430a      	orrs	r2, r1
 80011fc:	625a      	str	r2, [r3, #36]	; 0x24
 80011fe:	f7ff fc65 	bl	8000acc <HAL_GetTick>
 8001202:	0003      	movs	r3, r0
 8001204:	61bb      	str	r3, [r7, #24]
 8001206:	e008      	b.n	800121a <HAL_RCC_OscConfig+0x25e>
 8001208:	f7ff fc60 	bl	8000acc <HAL_GetTick>
 800120c:	0002      	movs	r2, r0
 800120e:	69bb      	ldr	r3, [r7, #24]
 8001210:	1ad3      	subs	r3, r2, r3
 8001212:	2b02      	cmp	r3, #2
 8001214:	d901      	bls.n	800121a <HAL_RCC_OscConfig+0x25e>
 8001216:	2303      	movs	r3, #3
 8001218:	e250      	b.n	80016bc <HAL_RCC_OscConfig+0x700>
 800121a:	4b36      	ldr	r3, [pc, #216]	; (80012f4 <HAL_RCC_OscConfig+0x338>)
 800121c:	6a5b      	ldr	r3, [r3, #36]	; 0x24
 800121e:	2202      	movs	r2, #2
 8001220:	4013      	ands	r3, r2
 8001222:	d0f1      	beq.n	8001208 <HAL_RCC_OscConfig+0x24c>
 8001224:	e018      	b.n	8001258 <HAL_RCC_OscConfig+0x29c>
 8001226:	4b33      	ldr	r3, [pc, #204]	; (80012f4 <HAL_RCC_OscConfig+0x338>)
 8001228:	6a5a      	ldr	r2, [r3, #36]	; 0x24
 800122a:	4b32      	ldr	r3, [pc, #200]	; (80012f4 <HAL_RCC_OscConfig+0x338>)
 800122c:	2101      	movs	r1, #1
 800122e:	438a      	bics	r2, r1
 8001230:	625a      	str	r2, [r3, #36]	; 0x24
 8001232:	f7ff fc4b 	bl	8000acc <HAL_GetTick>
 8001236:	0003      	movs	r3, r0
 8001238:	61bb      	str	r3, [r7, #24]
 800123a:	e008      	b.n	800124e <HAL_RCC_OscConfig+0x292>
 800123c:	f7ff fc46 	bl	8000acc <HAL_GetTick>
 8001240:	0002      	movs	r2, r0
 8001242:	69bb      	ldr	r3, [r7, #24]
 8001244:	1ad3      	subs	r3, r2, r3
 8001246:	2b02      	cmp	r3, #2
 8001248:	d901      	bls.n	800124e <HAL_RCC_OscConfig+0x292>
 800124a:	2303      	movs	r3, #3
 800124c:	e236      	b.n	80016bc <HAL_RCC_OscConfig+0x700>
 800124e:	4b29      	ldr	r3, [pc, #164]	; (80012f4 <HAL_RCC_OscConfig+0x338>)
 8001250:	6a5b      	ldr	r3, [r3, #36]	; 0x24
 8001252:	2202      	movs	r2, #2
 8001254:	4013      	ands	r3, r2
 8001256:	d1f1      	bne.n	800123c <HAL_RCC_OscConfig+0x280>
 8001258:	687b      	ldr	r3, [r7, #4]
 800125a:	681b      	ldr	r3, [r3, #0]
 800125c:	2204      	movs	r2, #4
 800125e:	4013      	ands	r3, r2
 8001260:	d100      	bne.n	8001264 <HAL_RCC_OscConfig+0x2a8>
 8001262:	e0b5      	b.n	80013d0 <HAL_RCC_OscConfig+0x414>
 8001264:	201f      	movs	r0, #31
 8001266:	183b      	adds	r3, r7, r0
 8001268:	2200      	movs	r2, #0
 800126a:	701a      	strb	r2, [r3, #0]
 800126c:	4b21      	ldr	r3, [pc, #132]	; (80012f4 <HAL_RCC_OscConfig+0x338>)
 800126e:	69da      	ldr	r2, [r3, #28]
 8001270:	2380      	movs	r3, #128	; 0x80
 8001272:	055b      	lsls	r3, r3, #21
 8001274:	4013      	ands	r3, r2
 8001276:	d110      	bne.n	800129a <HAL_RCC_OscConfig+0x2de>
 8001278:	4b1e      	ldr	r3, [pc, #120]	; (80012f4 <HAL_RCC_OscConfig+0x338>)
 800127a:	69da      	ldr	r2, [r3, #28]
 800127c:	4b1d      	ldr	r3, [pc, #116]	; (80012f4 <HAL_RCC_OscConfig+0x338>)
 800127e:	2180      	movs	r1, #128	; 0x80
 8001280:	0549      	lsls	r1, r1, #21
 8001282:	430a      	orrs	r2, r1
 8001284:	61da      	str	r2, [r3, #28]
 8001286:	4b1b      	ldr	r3, [pc, #108]	; (80012f4 <HAL_RCC_OscConfig+0x338>)
 8001288:	69da      	ldr	r2, [r3, #28]
 800128a:	2380      	movs	r3, #128	; 0x80
 800128c:	055b      	lsls	r3, r3, #21
 800128e:	4013      	ands	r3, r2
 8001290:	60fb      	str	r3, [r7, #12]
 8001292:	68fb      	ldr	r3, [r7, #12]
 8001294:	183b      	adds	r3, r7, r0
 8001296:	2201      	movs	r2, #1
 8001298:	701a      	strb	r2, [r3, #0]
 800129a:	4b19      	ldr	r3, [pc, #100]	; (8001300 <HAL_RCC_OscConfig+0x344>)
 800129c:	681a      	ldr	r2, [r3, #0]
 800129e:	2380      	movs	r3, #128	; 0x80
 80012a0:	005b      	lsls	r3, r3, #1
 80012a2:	4013      	ands	r3, r2
 80012a4:	d11a      	bne.n	80012dc <HAL_RCC_OscConfig+0x320>
 80012a6:	4b16      	ldr	r3, [pc, #88]	; (8001300 <HAL_RCC_OscConfig+0x344>)
 80012a8:	681a      	ldr	r2, [r3, #0]
 80012aa:	4b15      	ldr	r3, [pc, #84]	; (8001300 <HAL_RCC_OscConfig+0x344>)
 80012ac:	2180      	movs	r1, #128	; 0x80
 80012ae:	0049      	lsls	r1, r1, #1
 80012b0:	430a      	orrs	r2, r1
 80012b2:	601a      	str	r2, [r3, #0]
 80012b4:	f7ff fc0a 	bl	8000acc <HAL_GetTick>
 80012b8:	0003      	movs	r3, r0
 80012ba:	61bb      	str	r3, [r7, #24]
 80012bc:	e008      	b.n	80012d0 <HAL_RCC_OscConfig+0x314>
 80012be:	f7ff fc05 	bl	8000acc <HAL_GetTick>
 80012c2:	0002      	movs	r2, r0
 80012c4:	69bb      	ldr	r3, [r7, #24]
 80012c6:	1ad3      	subs	r3, r2, r3
 80012c8:	2b64      	cmp	r3, #100	; 0x64
 80012ca:	d901      	bls.n	80012d0 <HAL_RCC_OscConfig+0x314>
 80012cc:	2303      	movs	r3, #3
 80012ce:	e1f5      	b.n	80016bc <HAL_RCC_OscConfig+0x700>
 80012d0:	4b0b      	ldr	r3, [pc, #44]	; (8001300 <HAL_RCC_OscConfig+0x344>)
 80012d2:	681a      	ldr	r2, [r3, #0]
 80012d4:	2380      	movs	r3, #128	; 0x80
 80012d6:	005b      	lsls	r3, r3, #1
 80012d8:	4013      	ands	r3, r2
 80012da:	d0f0      	beq.n	80012be <HAL_RCC_OscConfig+0x302>
 80012dc:	687b      	ldr	r3, [r7, #4]
 80012de:	689b      	ldr	r3, [r3, #8]
 80012e0:	2b01      	cmp	r3, #1
 80012e2:	d10f      	bne.n	8001304 <HAL_RCC_OscConfig+0x348>
 80012e4:	4b03      	ldr	r3, [pc, #12]	; (80012f4 <HAL_RCC_OscConfig+0x338>)
 80012e6:	6a1a      	ldr	r2, [r3, #32]
 80012e8:	4b02      	ldr	r3, [pc, #8]	; (80012f4 <HAL_RCC_OscConfig+0x338>)
 80012ea:	2101      	movs	r1, #1
 80012ec:	430a      	orrs	r2, r1
 80012ee:	621a      	str	r2, [r3, #32]
 80012f0:	e036      	b.n	8001360 <HAL_RCC_OscConfig+0x3a4>
 80012f2:	46c0      	nop			; (mov r8, r8)
 80012f4:	40021000 	.word	0x40021000
 80012f8:	fffeffff 	.word	0xfffeffff
 80012fc:	fffbffff 	.word	0xfffbffff
 8001300:	40007000 	.word	0x40007000
 8001304:	687b      	ldr	r3, [r7, #4]
 8001306:	689b      	ldr	r3, [r3, #8]
 8001308:	2b00      	cmp	r3, #0
 800130a:	d10c      	bne.n	8001326 <HAL_RCC_OscConfig+0x36a>
 800130c:	4bca      	ldr	r3, [pc, #808]	; (8001638 <HAL_RCC_OscConfig+0x67c>)
 800130e:	6a1a      	ldr	r2, [r3, #32]
 8001310:	4bc9      	ldr	r3, [pc, #804]	; (8001638 <HAL_RCC_OscConfig+0x67c>)
 8001312:	2101      	movs	r1, #1
 8001314:	438a      	bics	r2, r1
 8001316:	621a      	str	r2, [r3, #32]
 8001318:	4bc7      	ldr	r3, [pc, #796]	; (8001638 <HAL_RCC_OscConfig+0x67c>)
 800131a:	6a1a      	ldr	r2, [r3, #32]
 800131c:	4bc6      	ldr	r3, [pc, #792]	; (8001638 <HAL_RCC_OscConfig+0x67c>)
 800131e:	2104      	movs	r1, #4
 8001320:	438a      	bics	r2, r1
 8001322:	621a      	str	r2, [r3, #32]
 8001324:	e01c      	b.n	8001360 <HAL_RCC_OscConfig+0x3a4>
 8001326:	687b      	ldr	r3, [r7, #4]
 8001328:	689b      	ldr	r3, [r3, #8]
 800132a:	2b05      	cmp	r3, #5
 800132c:	d10c      	bne.n	8001348 <HAL_RCC_OscConfig+0x38c>
 800132e:	4bc2      	ldr	r3, [pc, #776]	; (8001638 <HAL_RCC_OscConfig+0x67c>)
 8001330:	6a1a      	ldr	r2, [r3, #32]
 8001332:	4bc1      	ldr	r3, [pc, #772]	; (8001638 <HAL_RCC_OscConfig+0x67c>)
 8001334:	2104      	movs	r1, #4
 8001336:	430a      	orrs	r2, r1
 8001338:	621a      	str	r2, [r3, #32]
 800133a:	4bbf      	ldr	r3, [pc, #764]	; (8001638 <HAL_RCC_OscConfig+0x67c>)
 800133c:	6a1a      	ldr	r2, [r3, #32]
 800133e:	4bbe      	ldr	r3, [pc, #760]	; (8001638 <HAL_RCC_OscConfig+0x67c>)
 8001340:	2101      	movs	r1, #1
 8001342:	430a      	orrs	r2, r1
 8001344:	621a      	str	r2, [r3, #32]
 8001346:	e00b      	b.n	8001360 <HAL_RCC_OscConfig+0x3a4>
 8001348:	4bbb      	ldr	r3, [pc, #748]	; (8001638 <HAL_RCC_OscConfig+0x67c>)
 800134a:	6a1a      	ldr	r2, [r3, #32]
 800134c:	4bba      	ldr	r3, [pc, #744]	; (8001638 <HAL_RCC_OscConfig+0x67c>)
 800134e:	2101      	movs	r1, #1
 8001350:	438a      	bics	r2, r1
 8001352:	621a      	str	r2, [r3, #32]
 8001354:	4bb8      	ldr	r3, [pc, #736]	; (8001638 <HAL_RCC_OscConfig+0x67c>)
 8001356:	6a1a      	ldr	r2, [r3, #32]
 8001358:	4bb7      	ldr	r3, [pc, #732]	; (8001638 <HAL_RCC_OscConfig+0x67c>)
 800135a:	2104      	movs	r1, #4
 800135c:	438a      	bics	r2, r1
 800135e:	621a      	str	r2, [r3, #32]
 8001360:	687b      	ldr	r3, [r7, #4]
 8001362:	689b      	ldr	r3, [r3, #8]
 8001364:	2b00      	cmp	r3, #0
 8001366:	d014      	beq.n	8001392 <HAL_RCC_OscConfig+0x3d6>
 8001368:	f7ff fbb0 	bl	8000acc <HAL_GetTick>
 800136c:	0003      	movs	r3, r0
 800136e:	61bb      	str	r3, [r7, #24]
 8001370:	e009      	b.n	8001386 <HAL_RCC_OscConfig+0x3ca>
 8001372:	f7ff fbab 	bl	8000acc <HAL_GetTick>
 8001376:	0002      	movs	r2, r0
 8001378:	69bb      	ldr	r3, [r7, #24]
 800137a:	1ad3      	subs	r3, r2, r3
 800137c:	4aaf      	ldr	r2, [pc, #700]	; (800163c <HAL_RCC_OscConfig+0x680>)
 800137e:	4293      	cmp	r3, r2
 8001380:	d901      	bls.n	8001386 <HAL_RCC_OscConfig+0x3ca>
 8001382:	2303      	movs	r3, #3
 8001384:	e19a      	b.n	80016bc <HAL_RCC_OscConfig+0x700>
 8001386:	4bac      	ldr	r3, [pc, #688]	; (8001638 <HAL_RCC_OscConfig+0x67c>)
 8001388:	6a1b      	ldr	r3, [r3, #32]
 800138a:	2202      	movs	r2, #2
 800138c:	4013      	ands	r3, r2
 800138e:	d0f0      	beq.n	8001372 <HAL_RCC_OscConfig+0x3b6>
 8001390:	e013      	b.n	80013ba <HAL_RCC_OscConfig+0x3fe>
 8001392:	f7ff fb9b 	bl	8000acc <HAL_GetTick>
 8001396:	0003      	movs	r3, r0
 8001398:	61bb      	str	r3, [r7, #24]
 800139a:	e009      	b.n	80013b0 <HAL_RCC_OscConfig+0x3f4>
 800139c:	f7ff fb96 	bl	8000acc <HAL_GetTick>
 80013a0:	0002      	movs	r2, r0
 80013a2:	69bb      	ldr	r3, [r7, #24]
 80013a4:	1ad3      	subs	r3, r2, r3
 80013a6:	4aa5      	ldr	r2, [pc, #660]	; (800163c <HAL_RCC_OscConfig+0x680>)
 80013a8:	4293      	cmp	r3, r2
 80013aa:	d901      	bls.n	80013b0 <HAL_RCC_OscConfig+0x3f4>
 80013ac:	2303      	movs	r3, #3
 80013ae:	e185      	b.n	80016bc <HAL_RCC_OscConfig+0x700>
 80013b0:	4ba1      	ldr	r3, [pc, #644]	; (8001638 <HAL_RCC_OscConfig+0x67c>)
 80013b2:	6a1b      	ldr	r3, [r3, #32]
 80013b4:	2202      	movs	r2, #2
 80013b6:	4013      	ands	r3, r2
 80013b8:	d1f0      	bne.n	800139c <HAL_RCC_OscConfig+0x3e0>
 80013ba:	231f      	movs	r3, #31
 80013bc:	18fb      	adds	r3, r7, r3
 80013be:	781b      	ldrb	r3, [r3, #0]
 80013c0:	2b01      	cmp	r3, #1
 80013c2:	d105      	bne.n	80013d0 <HAL_RCC_OscConfig+0x414>
 80013c4:	4b9c      	ldr	r3, [pc, #624]	; (8001638 <HAL_RCC_OscConfig+0x67c>)
 80013c6:	69da      	ldr	r2, [r3, #28]
 80013c8:	4b9b      	ldr	r3, [pc, #620]	; (8001638 <HAL_RCC_OscConfig+0x67c>)
 80013ca:	499d      	ldr	r1, [pc, #628]	; (8001640 <HAL_RCC_OscConfig+0x684>)
 80013cc:	400a      	ands	r2, r1
 80013ce:	61da      	str	r2, [r3, #28]
 80013d0:	687b      	ldr	r3, [r7, #4]
 80013d2:	681b      	ldr	r3, [r3, #0]
 80013d4:	2210      	movs	r2, #16
 80013d6:	4013      	ands	r3, r2
 80013d8:	d063      	beq.n	80014a2 <HAL_RCC_OscConfig+0x4e6>
 80013da:	687b      	ldr	r3, [r7, #4]
 80013dc:	695b      	ldr	r3, [r3, #20]
 80013de:	2b01      	cmp	r3, #1
 80013e0:	d12a      	bne.n	8001438 <HAL_RCC_OscConfig+0x47c>
 80013e2:	4b95      	ldr	r3, [pc, #596]	; (8001638 <HAL_RCC_OscConfig+0x67c>)
 80013e4:	6b5a      	ldr	r2, [r3, #52]	; 0x34
 80013e6:	4b94      	ldr	r3, [pc, #592]	; (8001638 <HAL_RCC_OscConfig+0x67c>)
 80013e8:	2104      	movs	r1, #4
 80013ea:	430a      	orrs	r2, r1
 80013ec:	635a      	str	r2, [r3, #52]	; 0x34
 80013ee:	4b92      	ldr	r3, [pc, #584]	; (8001638 <HAL_RCC_OscConfig+0x67c>)
 80013f0:	6b5a      	ldr	r2, [r3, #52]	; 0x34
 80013f2:	4b91      	ldr	r3, [pc, #580]	; (8001638 <HAL_RCC_OscConfig+0x67c>)
 80013f4:	2101      	movs	r1, #1
 80013f6:	430a      	orrs	r2, r1
 80013f8:	635a      	str	r2, [r3, #52]	; 0x34
 80013fa:	f7ff fb67 	bl	8000acc <HAL_GetTick>
 80013fe:	0003      	movs	r3, r0
 8001400:	61bb      	str	r3, [r7, #24]
 8001402:	e008      	b.n	8001416 <HAL_RCC_OscConfig+0x45a>
 8001404:	f7ff fb62 	bl	8000acc <HAL_GetTick>
 8001408:	0002      	movs	r2, r0
 800140a:	69bb      	ldr	r3, [r7, #24]
 800140c:	1ad3      	subs	r3, r2, r3
 800140e:	2b02      	cmp	r3, #2
 8001410:	d901      	bls.n	8001416 <HAL_RCC_OscConfig+0x45a>
 8001412:	2303      	movs	r3, #3
 8001414:	e152      	b.n	80016bc <HAL_RCC_OscConfig+0x700>
 8001416:	4b88      	ldr	r3, [pc, #544]	; (8001638 <HAL_RCC_OscConfig+0x67c>)
 8001418:	6b5b      	ldr	r3, [r3, #52]	; 0x34
 800141a:	2202      	movs	r2, #2
 800141c:	4013      	ands	r3, r2
 800141e:	d0f1      	beq.n	8001404 <HAL_RCC_OscConfig+0x448>
 8001420:	4b85      	ldr	r3, [pc, #532]	; (8001638 <HAL_RCC_OscConfig+0x67c>)
 8001422:	6b5b      	ldr	r3, [r3, #52]	; 0x34
 8001424:	22f8      	movs	r2, #248	; 0xf8
 8001426:	4393      	bics	r3, r2
 8001428:	0019      	movs	r1, r3
 800142a:	687b      	ldr	r3, [r7, #4]
 800142c:	699b      	ldr	r3, [r3, #24]
 800142e:	00da      	lsls	r2, r3, #3
 8001430:	4b81      	ldr	r3, [pc, #516]	; (8001638 <HAL_RCC_OscConfig+0x67c>)
 8001432:	430a      	orrs	r2, r1
 8001434:	635a      	str	r2, [r3, #52]	; 0x34
 8001436:	e034      	b.n	80014a2 <HAL_RCC_OscConfig+0x4e6>
 8001438:	687b      	ldr	r3, [r7, #4]
 800143a:	695b      	ldr	r3, [r3, #20]
 800143c:	3305      	adds	r3, #5
 800143e:	d111      	bne.n	8001464 <HAL_RCC_OscConfig+0x4a8>
 8001440:	4b7d      	ldr	r3, [pc, #500]	; (8001638 <HAL_RCC_OscConfig+0x67c>)
 8001442:	6b5a      	ldr	r2, [r3, #52]	; 0x34
 8001444:	4b7c      	ldr	r3, [pc, #496]	; (8001638 <HAL_RCC_OscConfig+0x67c>)
 8001446:	2104      	movs	r1, #4
 8001448:	438a      	bics	r2, r1
 800144a:	635a      	str	r2, [r3, #52]	; 0x34
 800144c:	4b7a      	ldr	r3, [pc, #488]	; (8001638 <HAL_RCC_OscConfig+0x67c>)
 800144e:	6b5b      	ldr	r3, [r3, #52]	; 0x34
 8001450:	22f8      	movs	r2, #248	; 0xf8
 8001452:	4393      	bics	r3, r2
 8001454:	0019      	movs	r1, r3
 8001456:	687b      	ldr	r3, [r7, #4]
 8001458:	699b      	ldr	r3, [r3, #24]
 800145a:	00da      	lsls	r2, r3, #3
 800145c:	4b76      	ldr	r3, [pc, #472]	; (8001638 <HAL_RCC_OscConfig+0x67c>)
 800145e:	430a      	orrs	r2, r1
 8001460:	635a      	str	r2, [r3, #52]	; 0x34
 8001462:	e01e      	b.n	80014a2 <HAL_RCC_OscConfig+0x4e6>
 8001464:	4b74      	ldr	r3, [pc, #464]	; (8001638 <HAL_RCC_OscConfig+0x67c>)
 8001466:	6b5a      	ldr	r2, [r3, #52]	; 0x34
 8001468:	4b73      	ldr	r3, [pc, #460]	; (8001638 <HAL_RCC_OscConfig+0x67c>)
 800146a:	2104      	movs	r1, #4
 800146c:	430a      	orrs	r2, r1
 800146e:	635a      	str	r2, [r3, #52]	; 0x34
 8001470:	4b71      	ldr	r3, [pc, #452]	; (8001638 <HAL_RCC_OscConfig+0x67c>)
 8001472:	6b5a      	ldr	r2, [r3, #52]	; 0x34
 8001474:	4b70      	ldr	r3, [pc, #448]	; (8001638 <HAL_RCC_OscConfig+0x67c>)
 8001476:	2101      	movs	r1, #1
 8001478:	438a      	bics	r2, r1
 800147a:	635a      	str	r2, [r3, #52]	; 0x34
 800147c:	f7ff fb26 	bl	8000acc <HAL_GetTick>
 8001480:	0003      	movs	r3, r0
 8001482:	61bb      	str	r3, [r7, #24]
 8001484:	e008      	b.n	8001498 <HAL_RCC_OscConfig+0x4dc>
 8001486:	f7ff fb21 	bl	8000acc <HAL_GetTick>
 800148a:	0002      	movs	r2, r0
 800148c:	69bb      	ldr	r3, [r7, #24]
 800148e:	1ad3      	subs	r3, r2, r3
 8001490:	2b02      	cmp	r3, #2
 8001492:	d901      	bls.n	8001498 <HAL_RCC_OscConfig+0x4dc>
 8001494:	2303      	movs	r3, #3
 8001496:	e111      	b.n	80016bc <HAL_RCC_OscConfig+0x700>
 8001498:	4b67      	ldr	r3, [pc, #412]	; (8001638 <HAL_RCC_OscConfig+0x67c>)
 800149a:	6b5b      	ldr	r3, [r3, #52]	; 0x34
 800149c:	2202      	movs	r2, #2
 800149e:	4013      	ands	r3, r2
 80014a0:	d1f1      	bne.n	8001486 <HAL_RCC_OscConfig+0x4ca>
 80014a2:	687b      	ldr	r3, [r7, #4]
 80014a4:	681b      	ldr	r3, [r3, #0]
 80014a6:	2220      	movs	r2, #32
 80014a8:	4013      	ands	r3, r2
 80014aa:	d05c      	beq.n	8001566 <HAL_RCC_OscConfig+0x5aa>
 80014ac:	4b62      	ldr	r3, [pc, #392]	; (8001638 <HAL_RCC_OscConfig+0x67c>)
 80014ae:	685b      	ldr	r3, [r3, #4]
 80014b0:	220c      	movs	r2, #12
 80014b2:	4013      	ands	r3, r2
 80014b4:	2b0c      	cmp	r3, #12
 80014b6:	d00e      	beq.n	80014d6 <HAL_RCC_OscConfig+0x51a>
 80014b8:	4b5f      	ldr	r3, [pc, #380]	; (8001638 <HAL_RCC_OscConfig+0x67c>)
 80014ba:	685b      	ldr	r3, [r3, #4]
 80014bc:	220c      	movs	r2, #12
 80014be:	4013      	ands	r3, r2
 80014c0:	2b08      	cmp	r3, #8
 80014c2:	d114      	bne.n	80014ee <HAL_RCC_OscConfig+0x532>
 80014c4:	4b5c      	ldr	r3, [pc, #368]	; (8001638 <HAL_RCC_OscConfig+0x67c>)
 80014c6:	685a      	ldr	r2, [r3, #4]
 80014c8:	23c0      	movs	r3, #192	; 0xc0
 80014ca:	025b      	lsls	r3, r3, #9
 80014cc:	401a      	ands	r2, r3
 80014ce:	23c0      	movs	r3, #192	; 0xc0
 80014d0:	025b      	lsls	r3, r3, #9
 80014d2:	429a      	cmp	r2, r3
 80014d4:	d10b      	bne.n	80014ee <HAL_RCC_OscConfig+0x532>
 80014d6:	4b58      	ldr	r3, [pc, #352]	; (8001638 <HAL_RCC_OscConfig+0x67c>)
 80014d8:	6b5a      	ldr	r2, [r3, #52]	; 0x34
 80014da:	2380      	movs	r3, #128	; 0x80
 80014dc:	025b      	lsls	r3, r3, #9
 80014de:	4013      	ands	r3, r2
 80014e0:	d040      	beq.n	8001564 <HAL_RCC_OscConfig+0x5a8>
 80014e2:	687b      	ldr	r3, [r7, #4]
 80014e4:	6a1b      	ldr	r3, [r3, #32]
 80014e6:	2b01      	cmp	r3, #1
 80014e8:	d03c      	beq.n	8001564 <HAL_RCC_OscConfig+0x5a8>
 80014ea:	2301      	movs	r3, #1
 80014ec:	e0e6      	b.n	80016bc <HAL_RCC_OscConfig+0x700>
 80014ee:	687b      	ldr	r3, [r7, #4]
 80014f0:	6a1b      	ldr	r3, [r3, #32]
 80014f2:	2b00      	cmp	r3, #0
 80014f4:	d01b      	beq.n	800152e <HAL_RCC_OscConfig+0x572>
 80014f6:	4b50      	ldr	r3, [pc, #320]	; (8001638 <HAL_RCC_OscConfig+0x67c>)
 80014f8:	6b5a      	ldr	r2, [r3, #52]	; 0x34
 80014fa:	4b4f      	ldr	r3, [pc, #316]	; (8001638 <HAL_RCC_OscConfig+0x67c>)
 80014fc:	2180      	movs	r1, #128	; 0x80
 80014fe:	0249      	lsls	r1, r1, #9
 8001500:	430a      	orrs	r2, r1
 8001502:	635a      	str	r2, [r3, #52]	; 0x34
 8001504:	f7ff fae2 	bl	8000acc <HAL_GetTick>
 8001508:	0003      	movs	r3, r0
 800150a:	61bb      	str	r3, [r7, #24]
 800150c:	e008      	b.n	8001520 <HAL_RCC_OscConfig+0x564>
 800150e:	f7ff fadd 	bl	8000acc <HAL_GetTick>
 8001512:	0002      	movs	r2, r0
 8001514:	69bb      	ldr	r3, [r7, #24]
 8001516:	1ad3      	subs	r3, r2, r3
 8001518:	2b02      	cmp	r3, #2
 800151a:	d901      	bls.n	8001520 <HAL_RCC_OscConfig+0x564>
 800151c:	2303      	movs	r3, #3
 800151e:	e0cd      	b.n	80016bc <HAL_RCC_OscConfig+0x700>
 8001520:	4b45      	ldr	r3, [pc, #276]	; (8001638 <HAL_RCC_OscConfig+0x67c>)
 8001522:	6b5a      	ldr	r2, [r3, #52]	; 0x34
 8001524:	2380      	movs	r3, #128	; 0x80
 8001526:	025b      	lsls	r3, r3, #9
 8001528:	4013      	ands	r3, r2
 800152a:	d0f0      	beq.n	800150e <HAL_RCC_OscConfig+0x552>
 800152c:	e01b      	b.n	8001566 <HAL_RCC_OscConfig+0x5aa>
 800152e:	4b42      	ldr	r3, [pc, #264]	; (8001638 <HAL_RCC_OscConfig+0x67c>)
 8001530:	6b5a      	ldr	r2, [r3, #52]	; 0x34
 8001532:	4b41      	ldr	r3, [pc, #260]	; (8001638 <HAL_RCC_OscConfig+0x67c>)
 8001534:	4943      	ldr	r1, [pc, #268]	; (8001644 <HAL_RCC_OscConfig+0x688>)
 8001536:	400a      	ands	r2, r1
 8001538:	635a      	str	r2, [r3, #52]	; 0x34
 800153a:	f7ff fac7 	bl	8000acc <HAL_GetTick>
 800153e:	0003      	movs	r3, r0
 8001540:	61bb      	str	r3, [r7, #24]
 8001542:	e008      	b.n	8001556 <HAL_RCC_OscConfig+0x59a>
 8001544:	f7ff fac2 	bl	8000acc <HAL_GetTick>
 8001548:	0002      	movs	r2, r0
 800154a:	69bb      	ldr	r3, [r7, #24]
 800154c:	1ad3      	subs	r3, r2, r3
 800154e:	2b02      	cmp	r3, #2
 8001550:	d901      	bls.n	8001556 <HAL_RCC_OscConfig+0x59a>
 8001552:	2303      	movs	r3, #3
 8001554:	e0b2      	b.n	80016bc <HAL_RCC_OscConfig+0x700>
 8001556:	4b38      	ldr	r3, [pc, #224]	; (8001638 <HAL_RCC_OscConfig+0x67c>)
 8001558:	6b5a      	ldr	r2, [r3, #52]	; 0x34
 800155a:	2380      	movs	r3, #128	; 0x80
 800155c:	025b      	lsls	r3, r3, #9
 800155e:	4013      	ands	r3, r2
 8001560:	d1f0      	bne.n	8001544 <HAL_RCC_OscConfig+0x588>
 8001562:	e000      	b.n	8001566 <HAL_RCC_OscConfig+0x5aa>
 8001564:	46c0      	nop			; (mov r8, r8)
 8001566:	687b      	ldr	r3, [r7, #4]
 8001568:	6a5b      	ldr	r3, [r3, #36]	; 0x24
 800156a:	2b00      	cmp	r3, #0
 800156c:	d100      	bne.n	8001570 <HAL_RCC_OscConfig+0x5b4>
 800156e:	e0a4      	b.n	80016ba <HAL_RCC_OscConfig+0x6fe>
 8001570:	4b31      	ldr	r3, [pc, #196]	; (8001638 <HAL_RCC_OscConfig+0x67c>)
 8001572:	685b      	ldr	r3, [r3, #4]
 8001574:	220c      	movs	r2, #12
 8001576:	4013      	ands	r3, r2
 8001578:	2b08      	cmp	r3, #8
 800157a:	d100      	bne.n	800157e <HAL_RCC_OscConfig+0x5c2>
 800157c:	e078      	b.n	8001670 <HAL_RCC_OscConfig+0x6b4>
 800157e:	687b      	ldr	r3, [r7, #4]
 8001580:	6a5b      	ldr	r3, [r3, #36]	; 0x24
 8001582:	2b02      	cmp	r3, #2
 8001584:	d14c      	bne.n	8001620 <HAL_RCC_OscConfig+0x664>
 8001586:	4b2c      	ldr	r3, [pc, #176]	; (8001638 <HAL_RCC_OscConfig+0x67c>)
 8001588:	681a      	ldr	r2, [r3, #0]
 800158a:	4b2b      	ldr	r3, [pc, #172]	; (8001638 <HAL_RCC_OscConfig+0x67c>)
 800158c:	492e      	ldr	r1, [pc, #184]	; (8001648 <HAL_RCC_OscConfig+0x68c>)
 800158e:	400a      	ands	r2, r1
 8001590:	601a      	str	r2, [r3, #0]
 8001592:	f7ff fa9b 	bl	8000acc <HAL_GetTick>
 8001596:	0003      	movs	r3, r0
 8001598:	61bb      	str	r3, [r7, #24]
 800159a:	e008      	b.n	80015ae <HAL_RCC_OscConfig+0x5f2>
 800159c:	f7ff fa96 	bl	8000acc <HAL_GetTick>
 80015a0:	0002      	movs	r2, r0
 80015a2:	69bb      	ldr	r3, [r7, #24]
 80015a4:	1ad3      	subs	r3, r2, r3
 80015a6:	2b02      	cmp	r3, #2
 80015a8:	d901      	bls.n	80015ae <HAL_RCC_OscConfig+0x5f2>
 80015aa:	2303      	movs	r3, #3
 80015ac:	e086      	b.n	80016bc <HAL_RCC_OscConfig+0x700>
 80015ae:	4b22      	ldr	r3, [pc, #136]	; (8001638 <HAL_RCC_OscConfig+0x67c>)
 80015b0:	681a      	ldr	r2, [r3, #0]
 80015b2:	2380      	movs	r3, #128	; 0x80
 80015b4:	049b      	lsls	r3, r3, #18
 80015b6:	4013      	ands	r3, r2
 80015b8:	d1f0      	bne.n	800159c <HAL_RCC_OscConfig+0x5e0>
 80015ba:	4b1f      	ldr	r3, [pc, #124]	; (8001638 <HAL_RCC_OscConfig+0x67c>)
 80015bc:	6adb      	ldr	r3, [r3, #44]	; 0x2c
 80015be:	220f      	movs	r2, #15
 80015c0:	4393      	bics	r3, r2
 80015c2:	0019      	movs	r1, r3
 80015c4:	687b      	ldr	r3, [r7, #4]
 80015c6:	6b1a      	ldr	r2, [r3, #48]	; 0x30
 80015c8:	4b1b      	ldr	r3, [pc, #108]	; (8001638 <HAL_RCC_OscConfig+0x67c>)
 80015ca:	430a      	orrs	r2, r1
 80015cc:	62da      	str	r2, [r3, #44]	; 0x2c
 80015ce:	4b1a      	ldr	r3, [pc, #104]	; (8001638 <HAL_RCC_OscConfig+0x67c>)
 80015d0:	685b      	ldr	r3, [r3, #4]
 80015d2:	4a1e      	ldr	r2, [pc, #120]	; (800164c <HAL_RCC_OscConfig+0x690>)
 80015d4:	4013      	ands	r3, r2
 80015d6:	0019      	movs	r1, r3
 80015d8:	687b      	ldr	r3, [r7, #4]
 80015da:	6ada      	ldr	r2, [r3, #44]	; 0x2c
 80015dc:	687b      	ldr	r3, [r7, #4]
 80015de:	6a9b      	ldr	r3, [r3, #40]	; 0x28
 80015e0:	431a      	orrs	r2, r3
 80015e2:	4b15      	ldr	r3, [pc, #84]	; (8001638 <HAL_RCC_OscConfig+0x67c>)
 80015e4:	430a      	orrs	r2, r1
 80015e6:	605a      	str	r2, [r3, #4]
 80015e8:	4b13      	ldr	r3, [pc, #76]	; (8001638 <HAL_RCC_OscConfig+0x67c>)
 80015ea:	681a      	ldr	r2, [r3, #0]
 80015ec:	4b12      	ldr	r3, [pc, #72]	; (8001638 <HAL_RCC_OscConfig+0x67c>)
 80015ee:	2180      	movs	r1, #128	; 0x80
 80015f0:	0449      	lsls	r1, r1, #17
 80015f2:	430a      	orrs	r2, r1
 80015f4:	601a      	str	r2, [r3, #0]
 80015f6:	f7ff fa69 	bl	8000acc <HAL_GetTick>
 80015fa:	0003      	movs	r3, r0
 80015fc:	61bb      	str	r3, [r7, #24]
 80015fe:	e008      	b.n	8001612 <HAL_RCC_OscConfig+0x656>
 8001600:	f7ff fa64 	bl	8000acc <HAL_GetTick>
 8001604:	0002      	movs	r2, r0
 8001606:	69bb      	ldr	r3, [r7, #24]
 8001608:	1ad3      	subs	r3, r2, r3
 800160a:	2b02      	cmp	r3, #2
 800160c:	d901      	bls.n	8001612 <HAL_RCC_OscConfig+0x656>
 800160e:	2303      	movs	r3, #3
 8001610:	e054      	b.n	80016bc <HAL_RCC_OscConfig+0x700>
 8001612:	4b09      	ldr	r3, [pc, #36]	; (8001638 <HAL_RCC_OscConfig+0x67c>)
 8001614:	681a      	ldr	r2, [r3, #0]
 8001616:	2380      	movs	r3, #128	; 0x80
 8001618:	049b      	lsls	r3, r3, #18
 800161a:	4013      	ands	r3, r2
 800161c:	d0f0      	beq.n	8001600 <HAL_RCC_OscConfig+0x644>
 800161e:	e04c      	b.n	80016ba <HAL_RCC_OscConfig+0x6fe>
 8001620:	4b05      	ldr	r3, [pc, #20]	; (8001638 <HAL_RCC_OscConfig+0x67c>)
 8001622:	681a      	ldr	r2, [r3, #0]
 8001624:	4b04      	ldr	r3, [pc, #16]	; (8001638 <HAL_RCC_OscConfig+0x67c>)
 8001626:	4908      	ldr	r1, [pc, #32]	; (8001648 <HAL_RCC_OscConfig+0x68c>)
 8001628:	400a      	ands	r2, r1
 800162a:	601a      	str	r2, [r3, #0]
 800162c:	f7ff fa4e 	bl	8000acc <HAL_GetTick>
 8001630:	0003      	movs	r3, r0
 8001632:	61bb      	str	r3, [r7, #24]
 8001634:	e015      	b.n	8001662 <HAL_RCC_OscConfig+0x6a6>
 8001636:	46c0      	nop			; (mov r8, r8)
 8001638:	40021000 	.word	0x40021000
 800163c:	00001388 	.word	0x00001388
 8001640:	efffffff 	.word	0xefffffff
 8001644:	fffeffff 	.word	0xfffeffff
 8001648:	feffffff 	.word	0xfeffffff
 800164c:	ffc27fff 	.word	0xffc27fff
 8001650:	f7ff fa3c 	bl	8000acc <HAL_GetTick>
 8001654:	0002      	movs	r2, r0
 8001656:	69bb      	ldr	r3, [r7, #24]
 8001658:	1ad3      	subs	r3, r2, r3
 800165a:	2b02      	cmp	r3, #2
 800165c:	d901      	bls.n	8001662 <HAL_RCC_OscConfig+0x6a6>
 800165e:	2303      	movs	r3, #3
 8001660:	e02c      	b.n	80016bc <HAL_RCC_OscConfig+0x700>
 8001662:	4b18      	ldr	r3, [pc, #96]	; (80016c4 <HAL_RCC_OscConfig+0x708>)
 8001664:	681a      	ldr	r2, [r3, #0]
 8001666:	2380      	movs	r3, #128	; 0x80
 8001668:	049b      	lsls	r3, r3, #18
 800166a:	4013      	ands	r3, r2
 800166c:	d1f0      	bne.n	8001650 <HAL_RCC_OscConfig+0x694>
 800166e:	e024      	b.n	80016ba <HAL_RCC_OscConfig+0x6fe>
 8001670:	687b      	ldr	r3, [r7, #4]
 8001672:	6a5b      	ldr	r3, [r3, #36]	; 0x24
 8001674:	2b01      	cmp	r3, #1
 8001676:	d101      	bne.n	800167c <HAL_RCC_OscConfig+0x6c0>
 8001678:	2301      	movs	r3, #1
 800167a:	e01f      	b.n	80016bc <HAL_RCC_OscConfig+0x700>
 800167c:	4b11      	ldr	r3, [pc, #68]	; (80016c4 <HAL_RCC_OscConfig+0x708>)
 800167e:	685b      	ldr	r3, [r3, #4]
 8001680:	617b      	str	r3, [r7, #20]
 8001682:	4b10      	ldr	r3, [pc, #64]	; (80016c4 <HAL_RCC_OscConfig+0x708>)
 8001684:	6adb      	ldr	r3, [r3, #44]	; 0x2c
 8001686:	613b      	str	r3, [r7, #16]
 8001688:	697a      	ldr	r2, [r7, #20]
 800168a:	23c0      	movs	r3, #192	; 0xc0
 800168c:	025b      	lsls	r3, r3, #9
 800168e:	401a      	ands	r2, r3
 8001690:	687b      	ldr	r3, [r7, #4]
 8001692:	6a9b      	ldr	r3, [r3, #40]	; 0x28
 8001694:	429a      	cmp	r2, r3
 8001696:	d10e      	bne.n	80016b6 <HAL_RCC_OscConfig+0x6fa>
 8001698:	693b      	ldr	r3, [r7, #16]
 800169a:	220f      	movs	r2, #15
 800169c:	401a      	ands	r2, r3
 800169e:	687b      	ldr	r3, [r7, #4]
 80016a0:	6b1b      	ldr	r3, [r3, #48]	; 0x30
 80016a2:	429a      	cmp	r2, r3
 80016a4:	d107      	bne.n	80016b6 <HAL_RCC_OscConfig+0x6fa>
 80016a6:	697a      	ldr	r2, [r7, #20]
 80016a8:	23f0      	movs	r3, #240	; 0xf0
 80016aa:	039b      	lsls	r3, r3, #14
 80016ac:	401a      	ands	r2, r3
 80016ae:	687b      	ldr	r3, [r7, #4]
 80016b0:	6adb      	ldr	r3, [r3, #44]	; 0x2c
 80016b2:	429a      	cmp	r2, r3
 80016b4:	d001      	beq.n	80016ba <HAL_RCC_OscConfig+0x6fe>
 80016b6:	2301      	movs	r3, #1
 80016b8:	e000      	b.n	80016bc <HAL_RCC_OscConfig+0x700>
 80016ba:	2300      	movs	r3, #0
 80016bc:	0018      	movs	r0, r3
 80016be:	46bd      	mov	sp, r7
 80016c0:	b008      	add	sp, #32
 80016c2:	bd80      	pop	{r7, pc}
 80016c4:	40021000 	.word	0x40021000

080016c8 <HAL_RCC_ClockConfig>:
 80016c8:	b580      	push	{r7, lr}
 80016ca:	b084      	sub	sp, #16
 80016cc:	af00      	add	r7, sp, #0
 80016ce:	6078      	str	r0, [r7, #4]
 80016d0:	6039      	str	r1, [r7, #0]
 80016d2:	687b      	ldr	r3, [r7, #4]
 80016d4:	2b00      	cmp	r3, #0
 80016d6:	d101      	bne.n	80016dc <HAL_RCC_ClockConfig+0x14>
 80016d8:	2301      	movs	r3, #1
 80016da:	e0bf      	b.n	800185c <HAL_RCC_ClockConfig+0x194>
 80016dc:	4b61      	ldr	r3, [pc, #388]	; (8001864 <HAL_RCC_ClockConfig+0x19c>)
 80016de:	681b      	ldr	r3, [r3, #0]
 80016e0:	2201      	movs	r2, #1
 80016e2:	4013      	ands	r3, r2
 80016e4:	683a      	ldr	r2, [r7, #0]
 80016e6:	429a      	cmp	r2, r3
 80016e8:	d911      	bls.n	800170e <HAL_RCC_ClockConfig+0x46>
 80016ea:	4b5e      	ldr	r3, [pc, #376]	; (8001864 <HAL_RCC_ClockConfig+0x19c>)
 80016ec:	681b      	ldr	r3, [r3, #0]
 80016ee:	2201      	movs	r2, #1
 80016f0:	4393      	bics	r3, r2
 80016f2:	0019      	movs	r1, r3
 80016f4:	4b5b      	ldr	r3, [pc, #364]	; (8001864 <HAL_RCC_ClockConfig+0x19c>)
 80016f6:	683a      	ldr	r2, [r7, #0]
 80016f8:	430a      	orrs	r2, r1
 80016fa:	601a      	str	r2, [r3, #0]
 80016fc:	4b59      	ldr	r3, [pc, #356]	; (8001864 <HAL_RCC_ClockConfig+0x19c>)
 80016fe:	681b      	ldr	r3, [r3, #0]
 8001700:	2201      	movs	r2, #1
 8001702:	4013      	ands	r3, r2
 8001704:	683a      	ldr	r2, [r7, #0]
 8001706:	429a      	cmp	r2, r3
 8001708:	d001      	beq.n	800170e <HAL_RCC_ClockConfig+0x46>
 800170a:	2301      	movs	r3, #1
 800170c:	e0a6      	b.n	800185c <HAL_RCC_ClockConfig+0x194>
 800170e:	687b      	ldr	r3, [r7, #4]
 8001710:	681b      	ldr	r3, [r3, #0]
 8001712:	2202      	movs	r2, #2
 8001714:	4013      	ands	r3, r2
 8001716:	d015      	beq.n	8001744 <HAL_RCC_ClockConfig+0x7c>
 8001718:	687b      	ldr	r3, [r7, #4]
 800171a:	681b      	ldr	r3, [r3, #0]
 800171c:	2204      	movs	r2, #4
 800171e:	4013      	ands	r3, r2
 8001720:	d006      	beq.n	8001730 <HAL_RCC_ClockConfig+0x68>
 8001722:	4b51      	ldr	r3, [pc, #324]	; (8001868 <HAL_RCC_ClockConfig+0x1a0>)
 8001724:	685a      	ldr	r2, [r3, #4]
 8001726:	4b50      	ldr	r3, [pc, #320]	; (8001868 <HAL_RCC_ClockConfig+0x1a0>)
 8001728:	21e0      	movs	r1, #224	; 0xe0
 800172a:	00c9      	lsls	r1, r1, #3
 800172c:	430a      	orrs	r2, r1
 800172e:	605a      	str	r2, [r3, #4]
 8001730:	4b4d      	ldr	r3, [pc, #308]	; (8001868 <HAL_RCC_ClockConfig+0x1a0>)
 8001732:	685b      	ldr	r3, [r3, #4]
 8001734:	22f0      	movs	r2, #240	; 0xf0
 8001736:	4393      	bics	r3, r2
 8001738:	0019      	movs	r1, r3
 800173a:	687b      	ldr	r3, [r7, #4]
 800173c:	689a      	ldr	r2, [r3, #8]
 800173e:	4b4a      	ldr	r3, [pc, #296]	; (8001868 <HAL_RCC_ClockConfig+0x1a0>)
 8001740:	430a      	orrs	r2, r1
 8001742:	605a      	str	r2, [r3, #4]
 8001744:	687b      	ldr	r3, [r7, #4]
 8001746:	681b      	ldr	r3, [r3, #0]
 8001748:	2201      	movs	r2, #1
 800174a:	4013      	ands	r3, r2
 800174c:	d04c      	beq.n	80017e8 <HAL_RCC_ClockConfig+0x120>
 800174e:	687b      	ldr	r3, [r7, #4]
 8001750:	685b      	ldr	r3, [r3, #4]
 8001752:	2b01      	cmp	r3, #1
 8001754:	d107      	bne.n	8001766 <HAL_RCC_ClockConfig+0x9e>
 8001756:	4b44      	ldr	r3, [pc, #272]	; (8001868 <HAL_RCC_ClockConfig+0x1a0>)
 8001758:	681a      	ldr	r2, [r3, #0]
 800175a:	2380      	movs	r3, #128	; 0x80
 800175c:	029b      	lsls	r3, r3, #10
 800175e:	4013      	ands	r3, r2
 8001760:	d120      	bne.n	80017a4 <HAL_RCC_ClockConfig+0xdc>
 8001762:	2301      	movs	r3, #1
 8001764:	e07a      	b.n	800185c <HAL_RCC_ClockConfig+0x194>
 8001766:	687b      	ldr	r3, [r7, #4]
 8001768:	685b      	ldr	r3, [r3, #4]
 800176a:	2b02      	cmp	r3, #2
 800176c:	d107      	bne.n	800177e <HAL_RCC_ClockConfig+0xb6>
 800176e:	4b3e      	ldr	r3, [pc, #248]	; (8001868 <HAL_RCC_ClockConfig+0x1a0>)
 8001770:	681a      	ldr	r2, [r3, #0]
 8001772:	2380      	movs	r3, #128	; 0x80
 8001774:	049b      	lsls	r3, r3, #18
 8001776:	4013      	ands	r3, r2
 8001778:	d114      	bne.n	80017a4 <HAL_RCC_ClockConfig+0xdc>
 800177a:	2301      	movs	r3, #1
 800177c:	e06e      	b.n	800185c <HAL_RCC_ClockConfig+0x194>
 800177e:	687b      	ldr	r3, [r7, #4]
 8001780:	685b      	ldr	r3, [r3, #4]
 8001782:	2b03      	cmp	r3, #3
 8001784:	d107      	bne.n	8001796 <HAL_RCC_ClockConfig+0xce>
 8001786:	4b38      	ldr	r3, [pc, #224]	; (8001868 <HAL_RCC_ClockConfig+0x1a0>)
 8001788:	6b5a      	ldr	r2, [r3, #52]	; 0x34
 800178a:	2380      	movs	r3, #128	; 0x80
 800178c:	025b      	lsls	r3, r3, #9
 800178e:	4013      	ands	r3, r2
 8001790:	d108      	bne.n	80017a4 <HAL_RCC_ClockConfig+0xdc>
 8001792:	2301      	movs	r3, #1
 8001794:	e062      	b.n	800185c <HAL_RCC_ClockConfig+0x194>
 8001796:	4b34      	ldr	r3, [pc, #208]	; (8001868 <HAL_RCC_ClockConfig+0x1a0>)
 8001798:	681b      	ldr	r3, [r3, #0]
 800179a:	2202      	movs	r2, #2
 800179c:	4013      	ands	r3, r2
 800179e:	d101      	bne.n	80017a4 <HAL_RCC_ClockConfig+0xdc>
 80017a0:	2301      	movs	r3, #1
 80017a2:	e05b      	b.n	800185c <HAL_RCC_ClockConfig+0x194>
 80017a4:	4b30      	ldr	r3, [pc, #192]	; (8001868 <HAL_RCC_ClockConfig+0x1a0>)
 80017a6:	685b      	ldr	r3, [r3, #4]
 80017a8:	2203      	movs	r2, #3
 80017aa:	4393      	bics	r3, r2
 80017ac:	0019      	movs	r1, r3
 80017ae:	687b      	ldr	r3, [r7, #4]
 80017b0:	685a      	ldr	r2, [r3, #4]
 80017b2:	4b2d      	ldr	r3, [pc, #180]	; (8001868 <HAL_RCC_ClockConfig+0x1a0>)
 80017b4:	430a      	orrs	r2, r1
 80017b6:	605a      	str	r2, [r3, #4]
 80017b8:	f7ff f988 	bl	8000acc <HAL_GetTick>
 80017bc:	0003      	movs	r3, r0
 80017be:	60fb      	str	r3, [r7, #12]
 80017c0:	e009      	b.n	80017d6 <HAL_RCC_ClockConfig+0x10e>
 80017c2:	f7ff f983 	bl	8000acc <HAL_GetTick>
 80017c6:	0002      	movs	r2, r0
 80017c8:	68fb      	ldr	r3, [r7, #12]
 80017ca:	1ad3      	subs	r3, r2, r3
 80017cc:	4a27      	ldr	r2, [pc, #156]	; (800186c <HAL_RCC_ClockConfig+0x1a4>)
 80017ce:	4293      	cmp	r3, r2
 80017d0:	d901      	bls.n	80017d6 <HAL_RCC_ClockConfig+0x10e>
 80017d2:	2303      	movs	r3, #3
 80017d4:	e042      	b.n	800185c <HAL_RCC_ClockConfig+0x194>
 80017d6:	4b24      	ldr	r3, [pc, #144]	; (8001868 <HAL_RCC_ClockConfig+0x1a0>)
 80017d8:	685b      	ldr	r3, [r3, #4]
 80017da:	220c      	movs	r2, #12
 80017dc:	401a      	ands	r2, r3
 80017de:	687b      	ldr	r3, [r7, #4]
 80017e0:	685b      	ldr	r3, [r3, #4]
 80017e2:	009b      	lsls	r3, r3, #2
 80017e4:	429a      	cmp	r2, r3
 80017e6:	d1ec      	bne.n	80017c2 <HAL_RCC_ClockConfig+0xfa>
 80017e8:	4b1e      	ldr	r3, [pc, #120]	; (8001864 <HAL_RCC_ClockConfig+0x19c>)
 80017ea:	681b      	ldr	r3, [r3, #0]
 80017ec:	2201      	movs	r2, #1
 80017ee:	4013      	ands	r3, r2
 80017f0:	683a      	ldr	r2, [r7, #0]
 80017f2:	429a      	cmp	r2, r3
 80017f4:	d211      	bcs.n	800181a <HAL_RCC_ClockConfig+0x152>
 80017f6:	4b1b      	ldr	r3, [pc, #108]	; (8001864 <HAL_RCC_ClockConfig+0x19c>)
 80017f8:	681b      	ldr	r3, [r3, #0]
 80017fa:	2201      	movs	r2, #1
 80017fc:	4393      	bics	r3, r2
 80017fe:	0019      	movs	r1, r3
 8001800:	4b18      	ldr	r3, [pc, #96]	; (8001864 <HAL_RCC_ClockConfig+0x19c>)
 8001802:	683a      	ldr	r2, [r7, #0]
 8001804:	430a      	orrs	r2, r1
 8001806:	601a      	str	r2, [r3, #0]
 8001808:	4b16      	ldr	r3, [pc, #88]	; (8001864 <HAL_RCC_ClockConfig+0x19c>)
 800180a:	681b      	ldr	r3, [r3, #0]
 800180c:	2201      	movs	r2, #1
 800180e:	4013      	ands	r3, r2
 8001810:	683a      	ldr	r2, [r7, #0]
 8001812:	429a      	cmp	r2, r3
 8001814:	d001      	beq.n	800181a <HAL_RCC_ClockConfig+0x152>
 8001816:	2301      	movs	r3, #1
 8001818:	e020      	b.n	800185c <HAL_RCC_ClockConfig+0x194>
 800181a:	687b      	ldr	r3, [r7, #4]
 800181c:	681b      	ldr	r3, [r3, #0]
 800181e:	2204      	movs	r2, #4
 8001820:	4013      	ands	r3, r2
 8001822:	d009      	beq.n	8001838 <HAL_RCC_ClockConfig+0x170>
 8001824:	4b10      	ldr	r3, [pc, #64]	; (8001868 <HAL_RCC_ClockConfig+0x1a0>)
 8001826:	685b      	ldr	r3, [r3, #4]
 8001828:	4a11      	ldr	r2, [pc, #68]	; (8001870 <HAL_RCC_ClockConfig+0x1a8>)
 800182a:	4013      	ands	r3, r2
 800182c:	0019      	movs	r1, r3
 800182e:	687b      	ldr	r3, [r7, #4]
 8001830:	68da      	ldr	r2, [r3, #12]
 8001832:	4b0d      	ldr	r3, [pc, #52]	; (8001868 <HAL_RCC_ClockConfig+0x1a0>)
 8001834:	430a      	orrs	r2, r1
 8001836:	605a      	str	r2, [r3, #4]
 8001838:	f000 f820 	bl	800187c <HAL_RCC_GetSysClockFreq>
 800183c:	0001      	movs	r1, r0
 800183e:	4b0a      	ldr	r3, [pc, #40]	; (8001868 <HAL_RCC_ClockConfig+0x1a0>)
 8001840:	685b      	ldr	r3, [r3, #4]
 8001842:	091b      	lsrs	r3, r3, #4
 8001844:	220f      	movs	r2, #15
 8001846:	4013      	ands	r3, r2
 8001848:	4a0a      	ldr	r2, [pc, #40]	; (8001874 <HAL_RCC_ClockConfig+0x1ac>)
 800184a:	5cd3      	ldrb	r3, [r2, r3]
 800184c:	000a      	movs	r2, r1
 800184e:	40da      	lsrs	r2, r3
 8001850:	4b09      	ldr	r3, [pc, #36]	; (8001878 <HAL_RCC_ClockConfig+0x1b0>)
 8001852:	601a      	str	r2, [r3, #0]
 8001854:	2000      	movs	r0, #0
 8001856:	f7ff f8f3 	bl	8000a40 <HAL_InitTick>
 800185a:	2300      	movs	r3, #0
 800185c:	0018      	movs	r0, r3
 800185e:	46bd      	mov	sp, r7
 8001860:	b004      	add	sp, #16
 8001862:	bd80      	pop	{r7, pc}
 8001864:	40022000 	.word	0x40022000
 8001868:	40021000 	.word	0x40021000
 800186c:	00001388 	.word	0x00001388
 8001870:	fffff8ff 	.word	0xfffff8ff
 8001874:	08003960 	.word	0x08003960
 8001878:	20000000 	.word	0x20000000

0800187c <HAL_RCC_GetSysClockFreq>:
 800187c:	b590      	push	{r4, r7, lr}
 800187e:	b08f      	sub	sp, #60	; 0x3c
 8001880:	af00      	add	r7, sp, #0
 8001882:	2314      	movs	r3, #20
 8001884:	18fb      	adds	r3, r7, r3
 8001886:	4a38      	ldr	r2, [pc, #224]	; (8001968 <HAL_RCC_GetSysClockFreq+0xec>)
 8001888:	ca13      	ldmia	r2!, {r0, r1, r4}
 800188a:	c313      	stmia	r3!, {r0, r1, r4}
 800188c:	6812      	ldr	r2, [r2, #0]
 800188e:	601a      	str	r2, [r3, #0]
 8001890:	1d3b      	adds	r3, r7, #4
 8001892:	4a36      	ldr	r2, [pc, #216]	; (800196c <HAL_RCC_GetSysClockFreq+0xf0>)
 8001894:	ca13      	ldmia	r2!, {r0, r1, r4}
 8001896:	c313      	stmia	r3!, {r0, r1, r4}
 8001898:	6812      	ldr	r2, [r2, #0]
 800189a:	601a      	str	r2, [r3, #0]
 800189c:	2300      	movs	r3, #0
 800189e:	62fb      	str	r3, [r7, #44]	; 0x2c
 80018a0:	2300      	movs	r3, #0
 80018a2:	62bb      	str	r3, [r7, #40]	; 0x28
 80018a4:	2300      	movs	r3, #0
 80018a6:	637b      	str	r3, [r7, #52]	; 0x34
 80018a8:	2300      	movs	r3, #0
 80018aa:	627b      	str	r3, [r7, #36]	; 0x24
 80018ac:	2300      	movs	r3, #0
 80018ae:	633b      	str	r3, [r7, #48]	; 0x30
 80018b0:	4b2f      	ldr	r3, [pc, #188]	; (8001970 <HAL_RCC_GetSysClockFreq+0xf4>)
 80018b2:	685b      	ldr	r3, [r3, #4]
 80018b4:	62fb      	str	r3, [r7, #44]	; 0x2c
 80018b6:	6afb      	ldr	r3, [r7, #44]	; 0x2c
 80018b8:	220c      	movs	r2, #12
 80018ba:	4013      	ands	r3, r2
 80018bc:	2b0c      	cmp	r3, #12
 80018be:	d047      	beq.n	8001950 <HAL_RCC_GetSysClockFreq+0xd4>
 80018c0:	d849      	bhi.n	8001956 <HAL_RCC_GetSysClockFreq+0xda>
 80018c2:	2b04      	cmp	r3, #4
 80018c4:	d002      	beq.n	80018cc <HAL_RCC_GetSysClockFreq+0x50>
 80018c6:	2b08      	cmp	r3, #8
 80018c8:	d003      	beq.n	80018d2 <HAL_RCC_GetSysClockFreq+0x56>
 80018ca:	e044      	b.n	8001956 <HAL_RCC_GetSysClockFreq+0xda>
 80018cc:	4b29      	ldr	r3, [pc, #164]	; (8001974 <HAL_RCC_GetSysClockFreq+0xf8>)
 80018ce:	633b      	str	r3, [r7, #48]	; 0x30
 80018d0:	e044      	b.n	800195c <HAL_RCC_GetSysClockFreq+0xe0>
 80018d2:	6afb      	ldr	r3, [r7, #44]	; 0x2c
 80018d4:	0c9b      	lsrs	r3, r3, #18
 80018d6:	220f      	movs	r2, #15
 80018d8:	4013      	ands	r3, r2
 80018da:	2214      	movs	r2, #20
 80018dc:	18ba      	adds	r2, r7, r2
 80018de:	5cd3      	ldrb	r3, [r2, r3]
 80018e0:	627b      	str	r3, [r7, #36]	; 0x24
 80018e2:	4b23      	ldr	r3, [pc, #140]	; (8001970 <HAL_RCC_GetSysClockFreq+0xf4>)
 80018e4:	6adb      	ldr	r3, [r3, #44]	; 0x2c
 80018e6:	220f      	movs	r2, #15
 80018e8:	4013      	ands	r3, r2
 80018ea:	1d3a      	adds	r2, r7, #4
 80018ec:	5cd3      	ldrb	r3, [r2, r3]
 80018ee:	62bb      	str	r3, [r7, #40]	; 0x28
 80018f0:	6afa      	ldr	r2, [r7, #44]	; 0x2c
 80018f2:	23c0      	movs	r3, #192	; 0xc0
 80018f4:	025b      	lsls	r3, r3, #9
 80018f6:	401a      	ands	r2, r3
 80018f8:	2380      	movs	r3, #128	; 0x80
 80018fa:	025b      	lsls	r3, r3, #9
 80018fc:	429a      	cmp	r2, r3
 80018fe:	d109      	bne.n	8001914 <HAL_RCC_GetSysClockFreq+0x98>
 8001900:	6ab9      	ldr	r1, [r7, #40]	; 0x28
 8001902:	481c      	ldr	r0, [pc, #112]	; (8001974 <HAL_RCC_GetSysClockFreq+0xf8>)
 8001904:	f7fe fc00 	bl	8000108 <__udivsi3>
 8001908:	0003      	movs	r3, r0
 800190a:	001a      	movs	r2, r3
 800190c:	6a7b      	ldr	r3, [r7, #36]	; 0x24
 800190e:	4353      	muls	r3, r2
 8001910:	637b      	str	r3, [r7, #52]	; 0x34
 8001912:	e01a      	b.n	800194a <HAL_RCC_GetSysClockFreq+0xce>
 8001914:	6afa      	ldr	r2, [r7, #44]	; 0x2c
 8001916:	23c0      	movs	r3, #192	; 0xc0
 8001918:	025b      	lsls	r3, r3, #9
 800191a:	401a      	ands	r2, r3
 800191c:	23c0      	movs	r3, #192	; 0xc0
 800191e:	025b      	lsls	r3, r3, #9
 8001920:	429a      	cmp	r2, r3
 8001922:	d109      	bne.n	8001938 <HAL_RCC_GetSysClockFreq+0xbc>
 8001924:	6ab9      	ldr	r1, [r7, #40]	; 0x28
 8001926:	4814      	ldr	r0, [pc, #80]	; (8001978 <HAL_RCC_GetSysClockFreq+0xfc>)
 8001928:	f7fe fbee 	bl	8000108 <__udivsi3>
 800192c:	0003      	movs	r3, r0
 800192e:	001a      	movs	r2, r3
 8001930:	6a7b      	ldr	r3, [r7, #36]	; 0x24
 8001932:	4353      	muls	r3, r2
 8001934:	637b      	str	r3, [r7, #52]	; 0x34
 8001936:	e008      	b.n	800194a <HAL_RCC_GetSysClockFreq+0xce>
 8001938:	6ab9      	ldr	r1, [r7, #40]	; 0x28
 800193a:	480e      	ldr	r0, [pc, #56]	; (8001974 <HAL_RCC_GetSysClockFreq+0xf8>)
 800193c:	f7fe fbe4 	bl	8000108 <__udivsi3>
 8001940:	0003      	movs	r3, r0
 8001942:	001a      	movs	r2, r3
 8001944:	6a7b      	ldr	r3, [r7, #36]	; 0x24
 8001946:	4353      	muls	r3, r2
 8001948:	637b      	str	r3, [r7, #52]	; 0x34
 800194a:	6b7b      	ldr	r3, [r7, #52]	; 0x34
 800194c:	633b      	str	r3, [r7, #48]	; 0x30
 800194e:	e005      	b.n	800195c <HAL_RCC_GetSysClockFreq+0xe0>
 8001950:	4b09      	ldr	r3, [pc, #36]	; (8001978 <HAL_RCC_GetSysClockFreq+0xfc>)
 8001952:	633b      	str	r3, [r7, #48]	; 0x30
 8001954:	e002      	b.n	800195c <HAL_RCC_GetSysClockFreq+0xe0>
 8001956:	4b07      	ldr	r3, [pc, #28]	; (8001974 <HAL_RCC_GetSysClockFreq+0xf8>)
 8001958:	633b      	str	r3, [r7, #48]	; 0x30
 800195a:	46c0      	nop			; (mov r8, r8)
 800195c:	6b3b      	ldr	r3, [r7, #48]	; 0x30
 800195e:	0018      	movs	r0, r3
 8001960:	46bd      	mov	sp, r7
 8001962:	b00f      	add	sp, #60	; 0x3c
 8001964:	bd90      	pop	{r4, r7, pc}
 8001966:	46c0      	nop			; (mov r8, r8)
 8001968:	08003940 	.word	0x08003940
 800196c:	08003950 	.word	0x08003950
 8001970:	40021000 	.word	0x40021000
 8001974:	007a1200 	.word	0x007a1200
 8001978:	02dc6c00 	.word	0x02dc6c00

0800197c <HAL_RCC_GetHCLKFreq>:
 800197c:	b580      	push	{r7, lr}
 800197e:	af00      	add	r7, sp, #0
 8001980:	4b02      	ldr	r3, [pc, #8]	; (800198c <HAL_RCC_GetHCLKFreq+0x10>)
 8001982:	681b      	ldr	r3, [r3, #0]
 8001984:	0018      	movs	r0, r3
 8001986:	46bd      	mov	sp, r7
 8001988:	bd80      	pop	{r7, pc}
 800198a:	46c0      	nop			; (mov r8, r8)
 800198c:	20000000 	.word	0x20000000

08001990 <HAL_RCC_GetPCLK1Freq>:
 8001990:	b580      	push	{r7, lr}
 8001992:	af00      	add	r7, sp, #0
 8001994:	f7ff fff2 	bl	800197c <HAL_RCC_GetHCLKFreq>
 8001998:	0001      	movs	r1, r0
 800199a:	4b06      	ldr	r3, [pc, #24]	; (80019b4 <HAL_RCC_GetPCLK1Freq+0x24>)
 800199c:	685b      	ldr	r3, [r3, #4]
 800199e:	0a1b      	lsrs	r3, r3, #8
 80019a0:	2207      	movs	r2, #7
 80019a2:	4013      	ands	r3, r2
 80019a4:	4a04      	ldr	r2, [pc, #16]	; (80019b8 <HAL_RCC_GetPCLK1Freq+0x28>)
 80019a6:	5cd3      	ldrb	r3, [r2, r3]
 80019a8:	40d9      	lsrs	r1, r3
 80019aa:	000b      	movs	r3, r1
 80019ac:	0018      	movs	r0, r3
 80019ae:	46bd      	mov	sp, r7
 80019b0:	bd80      	pop	{r7, pc}
 80019b2:	46c0      	nop			; (mov r8, r8)
 80019b4:	40021000 	.word	0x40021000
 80019b8:	08003970 	.word	0x08003970

080019bc <HAL_RCCEx_PeriphCLKConfig>:
 80019bc:	b580      	push	{r7, lr}
 80019be:	b086      	sub	sp, #24
 80019c0:	af00      	add	r7, sp, #0
 80019c2:	6078      	str	r0, [r7, #4]
 80019c4:	2300      	movs	r3, #0
 80019c6:	613b      	str	r3, [r7, #16]
 80019c8:	2300      	movs	r3, #0
 80019ca:	60fb      	str	r3, [r7, #12]
 80019cc:	687b      	ldr	r3, [r7, #4]
 80019ce:	681a      	ldr	r2, [r3, #0]
 80019d0:	2380      	movs	r3, #128	; 0x80
 80019d2:	025b      	lsls	r3, r3, #9
 80019d4:	4013      	ands	r3, r2
 80019d6:	d100      	bne.n	80019da <HAL_RCCEx_PeriphCLKConfig+0x1e>
 80019d8:	e08e      	b.n	8001af8 <HAL_RCCEx_PeriphCLKConfig+0x13c>
 80019da:	2017      	movs	r0, #23
 80019dc:	183b      	adds	r3, r7, r0
 80019de:	2200      	movs	r2, #0
 80019e0:	701a      	strb	r2, [r3, #0]
 80019e2:	4b6e      	ldr	r3, [pc, #440]	; (8001b9c <HAL_RCCEx_PeriphCLKConfig+0x1e0>)
 80019e4:	69da      	ldr	r2, [r3, #28]
 80019e6:	2380      	movs	r3, #128	; 0x80
 80019e8:	055b      	lsls	r3, r3, #21
 80019ea:	4013      	ands	r3, r2
 80019ec:	d110      	bne.n	8001a10 <HAL_RCCEx_PeriphCLKConfig+0x54>
 80019ee:	4b6b      	ldr	r3, [pc, #428]	; (8001b9c <HAL_RCCEx_PeriphCLKConfig+0x1e0>)
 80019f0:	69da      	ldr	r2, [r3, #28]
 80019f2:	4b6a      	ldr	r3, [pc, #424]	; (8001b9c <HAL_RCCEx_PeriphCLKConfig+0x1e0>)
 80019f4:	2180      	movs	r1, #128	; 0x80
 80019f6:	0549      	lsls	r1, r1, #21
 80019f8:	430a      	orrs	r2, r1
 80019fa:	61da      	str	r2, [r3, #28]
 80019fc:	4b67      	ldr	r3, [pc, #412]	; (8001b9c <HAL_RCCEx_PeriphCLKConfig+0x1e0>)
 80019fe:	69da      	ldr	r2, [r3, #28]
 8001a00:	2380      	movs	r3, #128	; 0x80
 8001a02:	055b      	lsls	r3, r3, #21
 8001a04:	4013      	ands	r3, r2
 8001a06:	60bb      	str	r3, [r7, #8]
 8001a08:	68bb      	ldr	r3, [r7, #8]
 8001a0a:	183b      	adds	r3, r7, r0
 8001a0c:	2201      	movs	r2, #1
 8001a0e:	701a      	strb	r2, [r3, #0]
 8001a10:	4b63      	ldr	r3, [pc, #396]	; (8001ba0 <HAL_RCCEx_PeriphCLKConfig+0x1e4>)
 8001a12:	681a      	ldr	r2, [r3, #0]
 8001a14:	2380      	movs	r3, #128	; 0x80
 8001a16:	005b      	lsls	r3, r3, #1
 8001a18:	4013      	ands	r3, r2
 8001a1a:	d11a      	bne.n	8001a52 <HAL_RCCEx_PeriphCLKConfig+0x96>
 8001a1c:	4b60      	ldr	r3, [pc, #384]	; (8001ba0 <HAL_RCCEx_PeriphCLKConfig+0x1e4>)
 8001a1e:	681a      	ldr	r2, [r3, #0]
 8001a20:	4b5f      	ldr	r3, [pc, #380]	; (8001ba0 <HAL_RCCEx_PeriphCLKConfig+0x1e4>)
 8001a22:	2180      	movs	r1, #128	; 0x80
 8001a24:	0049      	lsls	r1, r1, #1
 8001a26:	430a      	orrs	r2, r1
 8001a28:	601a      	str	r2, [r3, #0]
 8001a2a:	f7ff f84f 	bl	8000acc <HAL_GetTick>
 8001a2e:	0003      	movs	r3, r0
 8001a30:	613b      	str	r3, [r7, #16]
 8001a32:	e008      	b.n	8001a46 <HAL_RCCEx_PeriphCLKConfig+0x8a>
 8001a34:	f7ff f84a 	bl	8000acc <HAL_GetTick>
 8001a38:	0002      	movs	r2, r0
 8001a3a:	693b      	ldr	r3, [r7, #16]
 8001a3c:	1ad3      	subs	r3, r2, r3
 8001a3e:	2b64      	cmp	r3, #100	; 0x64
 8001a40:	d901      	bls.n	8001a46 <HAL_RCCEx_PeriphCLKConfig+0x8a>
 8001a42:	2303      	movs	r3, #3
 8001a44:	e0a6      	b.n	8001b94 <HAL_RCCEx_PeriphCLKConfig+0x1d8>
 8001a46:	4b56      	ldr	r3, [pc, #344]	; (8001ba0 <HAL_RCCEx_PeriphCLKConfig+0x1e4>)
 8001a48:	681a      	ldr	r2, [r3, #0]
 8001a4a:	2380      	movs	r3, #128	; 0x80
 8001a4c:	005b      	lsls	r3, r3, #1
 8001a4e:	4013      	ands	r3, r2
 8001a50:	d0f0      	beq.n	8001a34 <HAL_RCCEx_PeriphCLKConfig+0x78>
 8001a52:	4b52      	ldr	r3, [pc, #328]	; (8001b9c <HAL_RCCEx_PeriphCLKConfig+0x1e0>)
 8001a54:	6a1a      	ldr	r2, [r3, #32]
 8001a56:	23c0      	movs	r3, #192	; 0xc0
 8001a58:	009b      	lsls	r3, r3, #2
 8001a5a:	4013      	ands	r3, r2
 8001a5c:	60fb      	str	r3, [r7, #12]
 8001a5e:	68fb      	ldr	r3, [r7, #12]
 8001a60:	2b00      	cmp	r3, #0
 8001a62:	d034      	beq.n	8001ace <HAL_RCCEx_PeriphCLKConfig+0x112>
 8001a64:	687b      	ldr	r3, [r7, #4]
 8001a66:	685a      	ldr	r2, [r3, #4]
 8001a68:	23c0      	movs	r3, #192	; 0xc0
 8001a6a:	009b      	lsls	r3, r3, #2
 8001a6c:	4013      	ands	r3, r2
 8001a6e:	68fa      	ldr	r2, [r7, #12]
 8001a70:	429a      	cmp	r2, r3
 8001a72:	d02c      	beq.n	8001ace <HAL_RCCEx_PeriphCLKConfig+0x112>
 8001a74:	4b49      	ldr	r3, [pc, #292]	; (8001b9c <HAL_RCCEx_PeriphCLKConfig+0x1e0>)
 8001a76:	6a1b      	ldr	r3, [r3, #32]
 8001a78:	4a4a      	ldr	r2, [pc, #296]	; (8001ba4 <HAL_RCCEx_PeriphCLKConfig+0x1e8>)
 8001a7a:	4013      	ands	r3, r2
 8001a7c:	60fb      	str	r3, [r7, #12]
 8001a7e:	4b47      	ldr	r3, [pc, #284]	; (8001b9c <HAL_RCCEx_PeriphCLKConfig+0x1e0>)
 8001a80:	6a1a      	ldr	r2, [r3, #32]
 8001a82:	4b46      	ldr	r3, [pc, #280]	; (8001b9c <HAL_RCCEx_PeriphCLKConfig+0x1e0>)
 8001a84:	2180      	movs	r1, #128	; 0x80
 8001a86:	0249      	lsls	r1, r1, #9
 8001a88:	430a      	orrs	r2, r1
 8001a8a:	621a      	str	r2, [r3, #32]
 8001a8c:	4b43      	ldr	r3, [pc, #268]	; (8001b9c <HAL_RCCEx_PeriphCLKConfig+0x1e0>)
 8001a8e:	6a1a      	ldr	r2, [r3, #32]
 8001a90:	4b42      	ldr	r3, [pc, #264]	; (8001b9c <HAL_RCCEx_PeriphCLKConfig+0x1e0>)
 8001a92:	4945      	ldr	r1, [pc, #276]	; (8001ba8 <HAL_RCCEx_PeriphCLKConfig+0x1ec>)
 8001a94:	400a      	ands	r2, r1
 8001a96:	621a      	str	r2, [r3, #32]
 8001a98:	4b40      	ldr	r3, [pc, #256]	; (8001b9c <HAL_RCCEx_PeriphCLKConfig+0x1e0>)
 8001a9a:	68fa      	ldr	r2, [r7, #12]
 8001a9c:	621a      	str	r2, [r3, #32]
 8001a9e:	68fb      	ldr	r3, [r7, #12]
 8001aa0:	2201      	movs	r2, #1
 8001aa2:	4013      	ands	r3, r2
 8001aa4:	d013      	beq.n	8001ace <HAL_RCCEx_PeriphCLKConfig+0x112>
 8001aa6:	f7ff f811 	bl	8000acc <HAL_GetTick>
 8001aaa:	0003      	movs	r3, r0
 8001aac:	613b      	str	r3, [r7, #16]
 8001aae:	e009      	b.n	8001ac4 <HAL_RCCEx_PeriphCLKConfig+0x108>
 8001ab0:	f7ff f80c 	bl	8000acc <HAL_GetTick>
 8001ab4:	0002      	movs	r2, r0
 8001ab6:	693b      	ldr	r3, [r7, #16]
 8001ab8:	1ad3      	subs	r3, r2, r3
 8001aba:	4a3c      	ldr	r2, [pc, #240]	; (8001bac <HAL_RCCEx_PeriphCLKConfig+0x1f0>)
 8001abc:	4293      	cmp	r3, r2
 8001abe:	d901      	bls.n	8001ac4 <HAL_RCCEx_PeriphCLKConfig+0x108>
 8001ac0:	2303      	movs	r3, #3
 8001ac2:	e067      	b.n	8001b94 <HAL_RCCEx_PeriphCLKConfig+0x1d8>
 8001ac4:	4b35      	ldr	r3, [pc, #212]	; (8001b9c <HAL_RCCEx_PeriphCLKConfig+0x1e0>)
 8001ac6:	6a1b      	ldr	r3, [r3, #32]
 8001ac8:	2202      	movs	r2, #2
 8001aca:	4013      	ands	r3, r2
 8001acc:	d0f0      	beq.n	8001ab0 <HAL_RCCEx_PeriphCLKConfig+0xf4>
 8001ace:	4b33      	ldr	r3, [pc, #204]	; (8001b9c <HAL_RCCEx_PeriphCLKConfig+0x1e0>)
 8001ad0:	6a1b      	ldr	r3, [r3, #32]
 8001ad2:	4a34      	ldr	r2, [pc, #208]	; (8001ba4 <HAL_RCCEx_PeriphCLKConfig+0x1e8>)
 8001ad4:	4013      	ands	r3, r2
 8001ad6:	0019      	movs	r1, r3
 8001ad8:	687b      	ldr	r3, [r7, #4]
 8001ada:	685a      	ldr	r2, [r3, #4]
 8001adc:	4b2f      	ldr	r3, [pc, #188]	; (8001b9c <HAL_RCCEx_PeriphCLKConfig+0x1e0>)
 8001ade:	430a      	orrs	r2, r1
 8001ae0:	621a      	str	r2, [r3, #32]
 8001ae2:	2317      	movs	r3, #23
 8001ae4:	18fb      	adds	r3, r7, r3
 8001ae6:	781b      	ldrb	r3, [r3, #0]
 8001ae8:	2b01      	cmp	r3, #1
 8001aea:	d105      	bne.n	8001af8 <HAL_RCCEx_PeriphCLKConfig+0x13c>
 8001aec:	4b2b      	ldr	r3, [pc, #172]	; (8001b9c <HAL_RCCEx_PeriphCLKConfig+0x1e0>)
 8001aee:	69da      	ldr	r2, [r3, #28]
 8001af0:	4b2a      	ldr	r3, [pc, #168]	; (8001b9c <HAL_RCCEx_PeriphCLKConfig+0x1e0>)
 8001af2:	492f      	ldr	r1, [pc, #188]	; (8001bb0 <HAL_RCCEx_PeriphCLKConfig+0x1f4>)
 8001af4:	400a      	ands	r2, r1
 8001af6:	61da      	str	r2, [r3, #28]
 8001af8:	687b      	ldr	r3, [r7, #4]
 8001afa:	681b      	ldr	r3, [r3, #0]
 8001afc:	2201      	movs	r2, #1
 8001afe:	4013      	ands	r3, r2
 8001b00:	d009      	beq.n	8001b16 <HAL_RCCEx_PeriphCLKConfig+0x15a>
 8001b02:	4b26      	ldr	r3, [pc, #152]	; (8001b9c <HAL_RCCEx_PeriphCLKConfig+0x1e0>)
 8001b04:	6b1b      	ldr	r3, [r3, #48]	; 0x30
 8001b06:	2203      	movs	r2, #3
 8001b08:	4393      	bics	r3, r2
 8001b0a:	0019      	movs	r1, r3
 8001b0c:	687b      	ldr	r3, [r7, #4]
 8001b0e:	689a      	ldr	r2, [r3, #8]
 8001b10:	4b22      	ldr	r3, [pc, #136]	; (8001b9c <HAL_RCCEx_PeriphCLKConfig+0x1e0>)
 8001b12:	430a      	orrs	r2, r1
 8001b14:	631a      	str	r2, [r3, #48]	; 0x30
 8001b16:	687b      	ldr	r3, [r7, #4]
 8001b18:	681b      	ldr	r3, [r3, #0]
 8001b1a:	2202      	movs	r2, #2
 8001b1c:	4013      	ands	r3, r2
 8001b1e:	d009      	beq.n	8001b34 <HAL_RCCEx_PeriphCLKConfig+0x178>
 8001b20:	4b1e      	ldr	r3, [pc, #120]	; (8001b9c <HAL_RCCEx_PeriphCLKConfig+0x1e0>)
 8001b22:	6b1b      	ldr	r3, [r3, #48]	; 0x30
 8001b24:	4a23      	ldr	r2, [pc, #140]	; (8001bb4 <HAL_RCCEx_PeriphCLKConfig+0x1f8>)
 8001b26:	4013      	ands	r3, r2
 8001b28:	0019      	movs	r1, r3
 8001b2a:	687b      	ldr	r3, [r7, #4]
 8001b2c:	68da      	ldr	r2, [r3, #12]
 8001b2e:	4b1b      	ldr	r3, [pc, #108]	; (8001b9c <HAL_RCCEx_PeriphCLKConfig+0x1e0>)
 8001b30:	430a      	orrs	r2, r1
 8001b32:	631a      	str	r2, [r3, #48]	; 0x30
 8001b34:	687b      	ldr	r3, [r7, #4]
 8001b36:	681b      	ldr	r3, [r3, #0]
 8001b38:	2220      	movs	r2, #32
 8001b3a:	4013      	ands	r3, r2
 8001b3c:	d009      	beq.n	8001b52 <HAL_RCCEx_PeriphCLKConfig+0x196>
 8001b3e:	4b17      	ldr	r3, [pc, #92]	; (8001b9c <HAL_RCCEx_PeriphCLKConfig+0x1e0>)
 8001b40:	6b1b      	ldr	r3, [r3, #48]	; 0x30
 8001b42:	2210      	movs	r2, #16
 8001b44:	4393      	bics	r3, r2
 8001b46:	0019      	movs	r1, r3
 8001b48:	687b      	ldr	r3, [r7, #4]
 8001b4a:	691a      	ldr	r2, [r3, #16]
 8001b4c:	4b13      	ldr	r3, [pc, #76]	; (8001b9c <HAL_RCCEx_PeriphCLKConfig+0x1e0>)
 8001b4e:	430a      	orrs	r2, r1
 8001b50:	631a      	str	r2, [r3, #48]	; 0x30
 8001b52:	687b      	ldr	r3, [r7, #4]
 8001b54:	681a      	ldr	r2, [r3, #0]
 8001b56:	2380      	movs	r3, #128	; 0x80
 8001b58:	029b      	lsls	r3, r3, #10
 8001b5a:	4013      	ands	r3, r2
 8001b5c:	d009      	beq.n	8001b72 <HAL_RCCEx_PeriphCLKConfig+0x1b6>
 8001b5e:	4b0f      	ldr	r3, [pc, #60]	; (8001b9c <HAL_RCCEx_PeriphCLKConfig+0x1e0>)
 8001b60:	6b1b      	ldr	r3, [r3, #48]	; 0x30
 8001b62:	2280      	movs	r2, #128	; 0x80
 8001b64:	4393      	bics	r3, r2
 8001b66:	0019      	movs	r1, r3
 8001b68:	687b      	ldr	r3, [r7, #4]
 8001b6a:	699a      	ldr	r2, [r3, #24]
 8001b6c:	4b0b      	ldr	r3, [pc, #44]	; (8001b9c <HAL_RCCEx_PeriphCLKConfig+0x1e0>)
 8001b6e:	430a      	orrs	r2, r1
 8001b70:	631a      	str	r2, [r3, #48]	; 0x30
 8001b72:	687b      	ldr	r3, [r7, #4]
 8001b74:	681a      	ldr	r2, [r3, #0]
 8001b76:	2380      	movs	r3, #128	; 0x80
 8001b78:	00db      	lsls	r3, r3, #3
 8001b7a:	4013      	ands	r3, r2
 8001b7c:	d009      	beq.n	8001b92 <HAL_RCCEx_PeriphCLKConfig+0x1d6>
 8001b7e:	4b07      	ldr	r3, [pc, #28]	; (8001b9c <HAL_RCCEx_PeriphCLKConfig+0x1e0>)
 8001b80:	6b1b      	ldr	r3, [r3, #48]	; 0x30
 8001b82:	2240      	movs	r2, #64	; 0x40
 8001b84:	4393      	bics	r3, r2
 8001b86:	0019      	movs	r1, r3
 8001b88:	687b      	ldr	r3, [r7, #4]
 8001b8a:	695a      	ldr	r2, [r3, #20]
 8001b8c:	4b03      	ldr	r3, [pc, #12]	; (8001b9c <HAL_RCCEx_PeriphCLKConfig+0x1e0>)
 8001b8e:	430a      	orrs	r2, r1
 8001b90:	631a      	str	r2, [r3, #48]	; 0x30
 8001b92:	2300      	movs	r3, #0
 8001b94:	0018      	movs	r0, r3
 8001b96:	46bd      	mov	sp, r7
 8001b98:	b006      	add	sp, #24
 8001b9a:	bd80      	pop	{r7, pc}
 8001b9c:	40021000 	.word	0x40021000
 8001ba0:	40007000 	.word	0x40007000
 8001ba4:	fffffcff 	.word	0xfffffcff
 8001ba8:	fffeffff 	.word	0xfffeffff
 8001bac:	00001388 	.word	0x00001388
 8001bb0:	efffffff 	.word	0xefffffff
 8001bb4:	fffcffff 	.word	0xfffcffff

08001bb8 <HAL_SPI_Init>:
 8001bb8:	b580      	push	{r7, lr}
 8001bba:	b084      	sub	sp, #16
 8001bbc:	af00      	add	r7, sp, #0
 8001bbe:	6078      	str	r0, [r7, #4]
 8001bc0:	687b      	ldr	r3, [r7, #4]
 8001bc2:	2b00      	cmp	r3, #0
 8001bc4:	d101      	bne.n	8001bca <HAL_SPI_Init+0x12>
 8001bc6:	2301      	movs	r3, #1
 8001bc8:	e0a8      	b.n	8001d1c <HAL_SPI_Init+0x164>
 8001bca:	687b      	ldr	r3, [r7, #4]
 8001bcc:	6a5b      	ldr	r3, [r3, #36]	; 0x24
 8001bce:	2b00      	cmp	r3, #0
 8001bd0:	d109      	bne.n	8001be6 <HAL_SPI_Init+0x2e>
 8001bd2:	687b      	ldr	r3, [r7, #4]
 8001bd4:	685a      	ldr	r2, [r3, #4]
 8001bd6:	2382      	movs	r3, #130	; 0x82
 8001bd8:	005b      	lsls	r3, r3, #1
 8001bda:	429a      	cmp	r2, r3
 8001bdc:	d009      	beq.n	8001bf2 <HAL_SPI_Init+0x3a>
 8001bde:	687b      	ldr	r3, [r7, #4]
 8001be0:	2200      	movs	r2, #0
 8001be2:	61da      	str	r2, [r3, #28]
 8001be4:	e005      	b.n	8001bf2 <HAL_SPI_Init+0x3a>
 8001be6:	687b      	ldr	r3, [r7, #4]
 8001be8:	2200      	movs	r2, #0
 8001bea:	611a      	str	r2, [r3, #16]
 8001bec:	687b      	ldr	r3, [r7, #4]
 8001bee:	2200      	movs	r2, #0
 8001bf0:	615a      	str	r2, [r3, #20]
 8001bf2:	687b      	ldr	r3, [r7, #4]
 8001bf4:	2200      	movs	r2, #0
 8001bf6:	629a      	str	r2, [r3, #40]	; 0x28
 8001bf8:	687b      	ldr	r3, [r7, #4]
 8001bfa:	225d      	movs	r2, #93	; 0x5d
 8001bfc:	5c9b      	ldrb	r3, [r3, r2]
 8001bfe:	b2db      	uxtb	r3, r3
 8001c00:	2b00      	cmp	r3, #0
 8001c02:	d107      	bne.n	8001c14 <HAL_SPI_Init+0x5c>
 8001c04:	687b      	ldr	r3, [r7, #4]
 8001c06:	225c      	movs	r2, #92	; 0x5c
 8001c08:	2100      	movs	r1, #0
 8001c0a:	5499      	strb	r1, [r3, r2]
 8001c0c:	687b      	ldr	r3, [r7, #4]
 8001c0e:	0018      	movs	r0, r3
 8001c10:	f7fe fc94 	bl	800053c <HAL_SPI_MspInit>
 8001c14:	687b      	ldr	r3, [r7, #4]
 8001c16:	225d      	movs	r2, #93	; 0x5d
 8001c18:	2102      	movs	r1, #2
 8001c1a:	5499      	strb	r1, [r3, r2]
 8001c1c:	687b      	ldr	r3, [r7, #4]
 8001c1e:	681b      	ldr	r3, [r3, #0]
 8001c20:	681a      	ldr	r2, [r3, #0]
 8001c22:	687b      	ldr	r3, [r7, #4]
 8001c24:	681b      	ldr	r3, [r3, #0]
 8001c26:	2140      	movs	r1, #64	; 0x40
 8001c28:	438a      	bics	r2, r1
 8001c2a:	601a      	str	r2, [r3, #0]
 8001c2c:	687b      	ldr	r3, [r7, #4]
 8001c2e:	68da      	ldr	r2, [r3, #12]
 8001c30:	23e0      	movs	r3, #224	; 0xe0
 8001c32:	00db      	lsls	r3, r3, #3
 8001c34:	429a      	cmp	r2, r3
 8001c36:	d902      	bls.n	8001c3e <HAL_SPI_Init+0x86>
 8001c38:	2300      	movs	r3, #0
 8001c3a:	60fb      	str	r3, [r7, #12]
 8001c3c:	e002      	b.n	8001c44 <HAL_SPI_Init+0x8c>
 8001c3e:	2380      	movs	r3, #128	; 0x80
 8001c40:	015b      	lsls	r3, r3, #5
 8001c42:	60fb      	str	r3, [r7, #12]
 8001c44:	687b      	ldr	r3, [r7, #4]
 8001c46:	68da      	ldr	r2, [r3, #12]
 8001c48:	23f0      	movs	r3, #240	; 0xf0
 8001c4a:	011b      	lsls	r3, r3, #4
 8001c4c:	429a      	cmp	r2, r3
 8001c4e:	d008      	beq.n	8001c62 <HAL_SPI_Init+0xaa>
 8001c50:	687b      	ldr	r3, [r7, #4]
 8001c52:	68da      	ldr	r2, [r3, #12]
 8001c54:	23e0      	movs	r3, #224	; 0xe0
 8001c56:	00db      	lsls	r3, r3, #3
 8001c58:	429a      	cmp	r2, r3
 8001c5a:	d002      	beq.n	8001c62 <HAL_SPI_Init+0xaa>
 8001c5c:	687b      	ldr	r3, [r7, #4]
 8001c5e:	2200      	movs	r2, #0
 8001c60:	629a      	str	r2, [r3, #40]	; 0x28
 8001c62:	687b      	ldr	r3, [r7, #4]
 8001c64:	685a      	ldr	r2, [r3, #4]
 8001c66:	2382      	movs	r3, #130	; 0x82
 8001c68:	005b      	lsls	r3, r3, #1
 8001c6a:	401a      	ands	r2, r3
 8001c6c:	687b      	ldr	r3, [r7, #4]
 8001c6e:	6899      	ldr	r1, [r3, #8]
 8001c70:	2384      	movs	r3, #132	; 0x84
 8001c72:	021b      	lsls	r3, r3, #8
 8001c74:	400b      	ands	r3, r1
 8001c76:	431a      	orrs	r2, r3
 8001c78:	687b      	ldr	r3, [r7, #4]
 8001c7a:	691b      	ldr	r3, [r3, #16]
 8001c7c:	2102      	movs	r1, #2
 8001c7e:	400b      	ands	r3, r1
 8001c80:	431a      	orrs	r2, r3
 8001c82:	687b      	ldr	r3, [r7, #4]
 8001c84:	695b      	ldr	r3, [r3, #20]
 8001c86:	2101      	movs	r1, #1
 8001c88:	400b      	ands	r3, r1
 8001c8a:	431a      	orrs	r2, r3
 8001c8c:	687b      	ldr	r3, [r7, #4]
 8001c8e:	6999      	ldr	r1, [r3, #24]
 8001c90:	2380      	movs	r3, #128	; 0x80
 8001c92:	009b      	lsls	r3, r3, #2
 8001c94:	400b      	ands	r3, r1
 8001c96:	431a      	orrs	r2, r3
 8001c98:	687b      	ldr	r3, [r7, #4]
 8001c9a:	69db      	ldr	r3, [r3, #28]
 8001c9c:	2138      	movs	r1, #56	; 0x38
 8001c9e:	400b      	ands	r3, r1
 8001ca0:	431a      	orrs	r2, r3
 8001ca2:	687b      	ldr	r3, [r7, #4]
 8001ca4:	6a1b      	ldr	r3, [r3, #32]
 8001ca6:	2180      	movs	r1, #128	; 0x80
 8001ca8:	400b      	ands	r3, r1
 8001caa:	431a      	orrs	r2, r3
 8001cac:	0011      	movs	r1, r2
 8001cae:	687b      	ldr	r3, [r7, #4]
 8001cb0:	6a9a      	ldr	r2, [r3, #40]	; 0x28
 8001cb2:	2380      	movs	r3, #128	; 0x80
 8001cb4:	019b      	lsls	r3, r3, #6
 8001cb6:	401a      	ands	r2, r3
 8001cb8:	687b      	ldr	r3, [r7, #4]
 8001cba:	681b      	ldr	r3, [r3, #0]
 8001cbc:	430a      	orrs	r2, r1
 8001cbe:	601a      	str	r2, [r3, #0]
 8001cc0:	687b      	ldr	r3, [r7, #4]
 8001cc2:	699b      	ldr	r3, [r3, #24]
 8001cc4:	0c1b      	lsrs	r3, r3, #16
 8001cc6:	2204      	movs	r2, #4
 8001cc8:	401a      	ands	r2, r3
 8001cca:	687b      	ldr	r3, [r7, #4]
 8001ccc:	6a5b      	ldr	r3, [r3, #36]	; 0x24
 8001cce:	2110      	movs	r1, #16
 8001cd0:	400b      	ands	r3, r1
 8001cd2:	431a      	orrs	r2, r3
 8001cd4:	687b      	ldr	r3, [r7, #4]
 8001cd6:	6b5b      	ldr	r3, [r3, #52]	; 0x34
 8001cd8:	2108      	movs	r1, #8
 8001cda:	400b      	ands	r3, r1
 8001cdc:	431a      	orrs	r2, r3
 8001cde:	687b      	ldr	r3, [r7, #4]
 8001ce0:	68d9      	ldr	r1, [r3, #12]
 8001ce2:	23f0      	movs	r3, #240	; 0xf0
 8001ce4:	011b      	lsls	r3, r3, #4
 8001ce6:	400b      	ands	r3, r1
 8001ce8:	431a      	orrs	r2, r3
 8001cea:	0011      	movs	r1, r2
 8001cec:	68fa      	ldr	r2, [r7, #12]
 8001cee:	2380      	movs	r3, #128	; 0x80
 8001cf0:	015b      	lsls	r3, r3, #5
 8001cf2:	401a      	ands	r2, r3
 8001cf4:	687b      	ldr	r3, [r7, #4]
 8001cf6:	681b      	ldr	r3, [r3, #0]
 8001cf8:	430a      	orrs	r2, r1
 8001cfa:	605a      	str	r2, [r3, #4]
 8001cfc:	687b      	ldr	r3, [r7, #4]
 8001cfe:	681b      	ldr	r3, [r3, #0]
 8001d00:	69da      	ldr	r2, [r3, #28]
 8001d02:	687b      	ldr	r3, [r7, #4]
 8001d04:	681b      	ldr	r3, [r3, #0]
 8001d06:	4907      	ldr	r1, [pc, #28]	; (8001d24 <HAL_SPI_Init+0x16c>)
 8001d08:	400a      	ands	r2, r1
 8001d0a:	61da      	str	r2, [r3, #28]
 8001d0c:	687b      	ldr	r3, [r7, #4]
 8001d0e:	2200      	movs	r2, #0
 8001d10:	661a      	str	r2, [r3, #96]	; 0x60
 8001d12:	687b      	ldr	r3, [r7, #4]
 8001d14:	225d      	movs	r2, #93	; 0x5d
 8001d16:	2101      	movs	r1, #1
 8001d18:	5499      	strb	r1, [r3, r2]
 8001d1a:	2300      	movs	r3, #0
 8001d1c:	0018      	movs	r0, r3
 8001d1e:	46bd      	mov	sp, r7
 8001d20:	b004      	add	sp, #16
 8001d22:	bd80      	pop	{r7, pc}
 8001d24:	fffff7ff 	.word	0xfffff7ff

08001d28 <HAL_SPI_TransmitReceive>:
 8001d28:	b580      	push	{r7, lr}
 8001d2a:	b08a      	sub	sp, #40	; 0x28
 8001d2c:	af00      	add	r7, sp, #0
 8001d2e:	60f8      	str	r0, [r7, #12]
 8001d30:	60b9      	str	r1, [r7, #8]
 8001d32:	607a      	str	r2, [r7, #4]
 8001d34:	001a      	movs	r2, r3
 8001d36:	1cbb      	adds	r3, r7, #2
 8001d38:	801a      	strh	r2, [r3, #0]
 8001d3a:	2301      	movs	r3, #1
 8001d3c:	627b      	str	r3, [r7, #36]	; 0x24
 8001d3e:	2323      	movs	r3, #35	; 0x23
 8001d40:	18fb      	adds	r3, r7, r3
 8001d42:	2200      	movs	r2, #0
 8001d44:	701a      	strb	r2, [r3, #0]
 8001d46:	68fb      	ldr	r3, [r7, #12]
 8001d48:	225c      	movs	r2, #92	; 0x5c
 8001d4a:	5c9b      	ldrb	r3, [r3, r2]
 8001d4c:	2b01      	cmp	r3, #1
 8001d4e:	d101      	bne.n	8001d54 <HAL_SPI_TransmitReceive+0x2c>
 8001d50:	2302      	movs	r3, #2
 8001d52:	e1b5      	b.n	80020c0 <HAL_SPI_TransmitReceive+0x398>
 8001d54:	68fb      	ldr	r3, [r7, #12]
 8001d56:	225c      	movs	r2, #92	; 0x5c
 8001d58:	2101      	movs	r1, #1
 8001d5a:	5499      	strb	r1, [r3, r2]
 8001d5c:	f7fe feb6 	bl	8000acc <HAL_GetTick>
 8001d60:	0003      	movs	r3, r0
 8001d62:	61fb      	str	r3, [r7, #28]
 8001d64:	201b      	movs	r0, #27
 8001d66:	183b      	adds	r3, r7, r0
 8001d68:	68fa      	ldr	r2, [r7, #12]
 8001d6a:	215d      	movs	r1, #93	; 0x5d
 8001d6c:	5c52      	ldrb	r2, [r2, r1]
 8001d6e:	701a      	strb	r2, [r3, #0]
 8001d70:	68fb      	ldr	r3, [r7, #12]
 8001d72:	685b      	ldr	r3, [r3, #4]
 8001d74:	617b      	str	r3, [r7, #20]
 8001d76:	2312      	movs	r3, #18
 8001d78:	18fb      	adds	r3, r7, r3
 8001d7a:	1cba      	adds	r2, r7, #2
 8001d7c:	8812      	ldrh	r2, [r2, #0]
 8001d7e:	801a      	strh	r2, [r3, #0]
 8001d80:	183b      	adds	r3, r7, r0
 8001d82:	781b      	ldrb	r3, [r3, #0]
 8001d84:	2b01      	cmp	r3, #1
 8001d86:	d011      	beq.n	8001dac <HAL_SPI_TransmitReceive+0x84>
 8001d88:	697a      	ldr	r2, [r7, #20]
 8001d8a:	2382      	movs	r3, #130	; 0x82
 8001d8c:	005b      	lsls	r3, r3, #1
 8001d8e:	429a      	cmp	r2, r3
 8001d90:	d107      	bne.n	8001da2 <HAL_SPI_TransmitReceive+0x7a>
 8001d92:	68fb      	ldr	r3, [r7, #12]
 8001d94:	689b      	ldr	r3, [r3, #8]
 8001d96:	2b00      	cmp	r3, #0
 8001d98:	d103      	bne.n	8001da2 <HAL_SPI_TransmitReceive+0x7a>
 8001d9a:	183b      	adds	r3, r7, r0
 8001d9c:	781b      	ldrb	r3, [r3, #0]
 8001d9e:	2b04      	cmp	r3, #4
 8001da0:	d004      	beq.n	8001dac <HAL_SPI_TransmitReceive+0x84>
 8001da2:	2323      	movs	r3, #35	; 0x23
 8001da4:	18fb      	adds	r3, r7, r3
 8001da6:	2202      	movs	r2, #2
 8001da8:	701a      	strb	r2, [r3, #0]
 8001daa:	e17e      	b.n	80020aa <HAL_SPI_TransmitReceive+0x382>
 8001dac:	68bb      	ldr	r3, [r7, #8]
 8001dae:	2b00      	cmp	r3, #0
 8001db0:	d006      	beq.n	8001dc0 <HAL_SPI_TransmitReceive+0x98>
 8001db2:	687b      	ldr	r3, [r7, #4]
 8001db4:	2b00      	cmp	r3, #0
 8001db6:	d003      	beq.n	8001dc0 <HAL_SPI_TransmitReceive+0x98>
 8001db8:	1cbb      	adds	r3, r7, #2
 8001dba:	881b      	ldrh	r3, [r3, #0]
 8001dbc:	2b00      	cmp	r3, #0
 8001dbe:	d104      	bne.n	8001dca <HAL_SPI_TransmitReceive+0xa2>
 8001dc0:	2323      	movs	r3, #35	; 0x23
 8001dc2:	18fb      	adds	r3, r7, r3
 8001dc4:	2201      	movs	r2, #1
 8001dc6:	701a      	strb	r2, [r3, #0]
 8001dc8:	e16f      	b.n	80020aa <HAL_SPI_TransmitReceive+0x382>
 8001dca:	68fb      	ldr	r3, [r7, #12]
 8001dcc:	225d      	movs	r2, #93	; 0x5d
 8001dce:	5c9b      	ldrb	r3, [r3, r2]
 8001dd0:	b2db      	uxtb	r3, r3
 8001dd2:	2b04      	cmp	r3, #4
 8001dd4:	d003      	beq.n	8001dde <HAL_SPI_TransmitReceive+0xb6>
 8001dd6:	68fb      	ldr	r3, [r7, #12]
 8001dd8:	225d      	movs	r2, #93	; 0x5d
 8001dda:	2105      	movs	r1, #5
 8001ddc:	5499      	strb	r1, [r3, r2]
 8001dde:	68fb      	ldr	r3, [r7, #12]
 8001de0:	2200      	movs	r2, #0
 8001de2:	661a      	str	r2, [r3, #96]	; 0x60
 8001de4:	68fb      	ldr	r3, [r7, #12]
 8001de6:	687a      	ldr	r2, [r7, #4]
 8001de8:	641a      	str	r2, [r3, #64]	; 0x40
 8001dea:	68fb      	ldr	r3, [r7, #12]
 8001dec:	1cba      	adds	r2, r7, #2
 8001dee:	2146      	movs	r1, #70	; 0x46
 8001df0:	8812      	ldrh	r2, [r2, #0]
 8001df2:	525a      	strh	r2, [r3, r1]
 8001df4:	68fb      	ldr	r3, [r7, #12]
 8001df6:	1cba      	adds	r2, r7, #2
 8001df8:	2144      	movs	r1, #68	; 0x44
 8001dfa:	8812      	ldrh	r2, [r2, #0]
 8001dfc:	525a      	strh	r2, [r3, r1]
 8001dfe:	68fb      	ldr	r3, [r7, #12]
 8001e00:	68ba      	ldr	r2, [r7, #8]
 8001e02:	639a      	str	r2, [r3, #56]	; 0x38
 8001e04:	68fb      	ldr	r3, [r7, #12]
 8001e06:	1cba      	adds	r2, r7, #2
 8001e08:	8812      	ldrh	r2, [r2, #0]
 8001e0a:	87da      	strh	r2, [r3, #62]	; 0x3e
 8001e0c:	68fb      	ldr	r3, [r7, #12]
 8001e0e:	1cba      	adds	r2, r7, #2
 8001e10:	8812      	ldrh	r2, [r2, #0]
 8001e12:	879a      	strh	r2, [r3, #60]	; 0x3c
 8001e14:	68fb      	ldr	r3, [r7, #12]
 8001e16:	2200      	movs	r2, #0
 8001e18:	64da      	str	r2, [r3, #76]	; 0x4c
 8001e1a:	68fb      	ldr	r3, [r7, #12]
 8001e1c:	2200      	movs	r2, #0
 8001e1e:	651a      	str	r2, [r3, #80]	; 0x50
 8001e20:	68fb      	ldr	r3, [r7, #12]
 8001e22:	68da      	ldr	r2, [r3, #12]
 8001e24:	23e0      	movs	r3, #224	; 0xe0
 8001e26:	00db      	lsls	r3, r3, #3
 8001e28:	429a      	cmp	r2, r3
 8001e2a:	d908      	bls.n	8001e3e <HAL_SPI_TransmitReceive+0x116>
 8001e2c:	68fb      	ldr	r3, [r7, #12]
 8001e2e:	681b      	ldr	r3, [r3, #0]
 8001e30:	685a      	ldr	r2, [r3, #4]
 8001e32:	68fb      	ldr	r3, [r7, #12]
 8001e34:	681b      	ldr	r3, [r3, #0]
 8001e36:	49a4      	ldr	r1, [pc, #656]	; (80020c8 <HAL_SPI_TransmitReceive+0x3a0>)
 8001e38:	400a      	ands	r2, r1
 8001e3a:	605a      	str	r2, [r3, #4]
 8001e3c:	e008      	b.n	8001e50 <HAL_SPI_TransmitReceive+0x128>
 8001e3e:	68fb      	ldr	r3, [r7, #12]
 8001e40:	681b      	ldr	r3, [r3, #0]
 8001e42:	685a      	ldr	r2, [r3, #4]
 8001e44:	68fb      	ldr	r3, [r7, #12]
 8001e46:	681b      	ldr	r3, [r3, #0]
 8001e48:	2180      	movs	r1, #128	; 0x80
 8001e4a:	0149      	lsls	r1, r1, #5
 8001e4c:	430a      	orrs	r2, r1
 8001e4e:	605a      	str	r2, [r3, #4]
 8001e50:	68fb      	ldr	r3, [r7, #12]
 8001e52:	681b      	ldr	r3, [r3, #0]
 8001e54:	681b      	ldr	r3, [r3, #0]
 8001e56:	2240      	movs	r2, #64	; 0x40
 8001e58:	4013      	ands	r3, r2
 8001e5a:	2b40      	cmp	r3, #64	; 0x40
 8001e5c:	d007      	beq.n	8001e6e <HAL_SPI_TransmitReceive+0x146>
 8001e5e:	68fb      	ldr	r3, [r7, #12]
 8001e60:	681b      	ldr	r3, [r3, #0]
 8001e62:	681a      	ldr	r2, [r3, #0]
 8001e64:	68fb      	ldr	r3, [r7, #12]
 8001e66:	681b      	ldr	r3, [r3, #0]
 8001e68:	2140      	movs	r1, #64	; 0x40
 8001e6a:	430a      	orrs	r2, r1
 8001e6c:	601a      	str	r2, [r3, #0]
 8001e6e:	68fb      	ldr	r3, [r7, #12]
 8001e70:	68da      	ldr	r2, [r3, #12]
 8001e72:	23e0      	movs	r3, #224	; 0xe0
 8001e74:	00db      	lsls	r3, r3, #3
 8001e76:	429a      	cmp	r2, r3
 8001e78:	d800      	bhi.n	8001e7c <HAL_SPI_TransmitReceive+0x154>
 8001e7a:	e07f      	b.n	8001f7c <HAL_SPI_TransmitReceive+0x254>
 8001e7c:	68fb      	ldr	r3, [r7, #12]
 8001e7e:	685b      	ldr	r3, [r3, #4]
 8001e80:	2b00      	cmp	r3, #0
 8001e82:	d005      	beq.n	8001e90 <HAL_SPI_TransmitReceive+0x168>
 8001e84:	2312      	movs	r3, #18
 8001e86:	18fb      	adds	r3, r7, r3
 8001e88:	881b      	ldrh	r3, [r3, #0]
 8001e8a:	2b01      	cmp	r3, #1
 8001e8c:	d000      	beq.n	8001e90 <HAL_SPI_TransmitReceive+0x168>
 8001e8e:	e069      	b.n	8001f64 <HAL_SPI_TransmitReceive+0x23c>
 8001e90:	68fb      	ldr	r3, [r7, #12]
 8001e92:	6b9b      	ldr	r3, [r3, #56]	; 0x38
 8001e94:	881a      	ldrh	r2, [r3, #0]
 8001e96:	68fb      	ldr	r3, [r7, #12]
 8001e98:	681b      	ldr	r3, [r3, #0]
 8001e9a:	60da      	str	r2, [r3, #12]
 8001e9c:	68fb      	ldr	r3, [r7, #12]
 8001e9e:	6b9b      	ldr	r3, [r3, #56]	; 0x38
 8001ea0:	1c9a      	adds	r2, r3, #2
 8001ea2:	68fb      	ldr	r3, [r7, #12]
 8001ea4:	639a      	str	r2, [r3, #56]	; 0x38
 8001ea6:	68fb      	ldr	r3, [r7, #12]
 8001ea8:	8fdb      	ldrh	r3, [r3, #62]	; 0x3e
 8001eaa:	b29b      	uxth	r3, r3
 8001eac:	3b01      	subs	r3, #1
 8001eae:	b29a      	uxth	r2, r3
 8001eb0:	68fb      	ldr	r3, [r7, #12]
 8001eb2:	87da      	strh	r2, [r3, #62]	; 0x3e
 8001eb4:	e056      	b.n	8001f64 <HAL_SPI_TransmitReceive+0x23c>
 8001eb6:	68fb      	ldr	r3, [r7, #12]
 8001eb8:	681b      	ldr	r3, [r3, #0]
 8001eba:	689b      	ldr	r3, [r3, #8]
 8001ebc:	2202      	movs	r2, #2
 8001ebe:	4013      	ands	r3, r2
 8001ec0:	2b02      	cmp	r3, #2
 8001ec2:	d11b      	bne.n	8001efc <HAL_SPI_TransmitReceive+0x1d4>
 8001ec4:	68fb      	ldr	r3, [r7, #12]
 8001ec6:	8fdb      	ldrh	r3, [r3, #62]	; 0x3e
 8001ec8:	b29b      	uxth	r3, r3
 8001eca:	2b00      	cmp	r3, #0
 8001ecc:	d016      	beq.n	8001efc <HAL_SPI_TransmitReceive+0x1d4>
 8001ece:	6a7b      	ldr	r3, [r7, #36]	; 0x24
 8001ed0:	2b01      	cmp	r3, #1
 8001ed2:	d113      	bne.n	8001efc <HAL_SPI_TransmitReceive+0x1d4>
 8001ed4:	68fb      	ldr	r3, [r7, #12]
 8001ed6:	6b9b      	ldr	r3, [r3, #56]	; 0x38
 8001ed8:	881a      	ldrh	r2, [r3, #0]
 8001eda:	68fb      	ldr	r3, [r7, #12]
 8001edc:	681b      	ldr	r3, [r3, #0]
 8001ede:	60da      	str	r2, [r3, #12]
 8001ee0:	68fb      	ldr	r3, [r7, #12]
 8001ee2:	6b9b      	ldr	r3, [r3, #56]	; 0x38
 8001ee4:	1c9a      	adds	r2, r3, #2
 8001ee6:	68fb      	ldr	r3, [r7, #12]
 8001ee8:	639a      	str	r2, [r3, #56]	; 0x38
 8001eea:	68fb      	ldr	r3, [r7, #12]
 8001eec:	8fdb      	ldrh	r3, [r3, #62]	; 0x3e
 8001eee:	b29b      	uxth	r3, r3
 8001ef0:	3b01      	subs	r3, #1
 8001ef2:	b29a      	uxth	r2, r3
 8001ef4:	68fb      	ldr	r3, [r7, #12]
 8001ef6:	87da      	strh	r2, [r3, #62]	; 0x3e
 8001ef8:	2300      	movs	r3, #0
 8001efa:	627b      	str	r3, [r7, #36]	; 0x24
 8001efc:	68fb      	ldr	r3, [r7, #12]
 8001efe:	681b      	ldr	r3, [r3, #0]
 8001f00:	689b      	ldr	r3, [r3, #8]
 8001f02:	2201      	movs	r2, #1
 8001f04:	4013      	ands	r3, r2
 8001f06:	2b01      	cmp	r3, #1
 8001f08:	d11c      	bne.n	8001f44 <HAL_SPI_TransmitReceive+0x21c>
 8001f0a:	68fb      	ldr	r3, [r7, #12]
 8001f0c:	2246      	movs	r2, #70	; 0x46
 8001f0e:	5a9b      	ldrh	r3, [r3, r2]
 8001f10:	b29b      	uxth	r3, r3
 8001f12:	2b00      	cmp	r3, #0
 8001f14:	d016      	beq.n	8001f44 <HAL_SPI_TransmitReceive+0x21c>
 8001f16:	68fb      	ldr	r3, [r7, #12]
 8001f18:	681b      	ldr	r3, [r3, #0]
 8001f1a:	68da      	ldr	r2, [r3, #12]
 8001f1c:	68fb      	ldr	r3, [r7, #12]
 8001f1e:	6c1b      	ldr	r3, [r3, #64]	; 0x40
 8001f20:	b292      	uxth	r2, r2
 8001f22:	801a      	strh	r2, [r3, #0]
 8001f24:	68fb      	ldr	r3, [r7, #12]
 8001f26:	6c1b      	ldr	r3, [r3, #64]	; 0x40
 8001f28:	1c9a      	adds	r2, r3, #2
 8001f2a:	68fb      	ldr	r3, [r7, #12]
 8001f2c:	641a      	str	r2, [r3, #64]	; 0x40
 8001f2e:	68fb      	ldr	r3, [r7, #12]
 8001f30:	2246      	movs	r2, #70	; 0x46
 8001f32:	5a9b      	ldrh	r3, [r3, r2]
 8001f34:	b29b      	uxth	r3, r3
 8001f36:	3b01      	subs	r3, #1
 8001f38:	b299      	uxth	r1, r3
 8001f3a:	68fb      	ldr	r3, [r7, #12]
 8001f3c:	2246      	movs	r2, #70	; 0x46
 8001f3e:	5299      	strh	r1, [r3, r2]
 8001f40:	2301      	movs	r3, #1
 8001f42:	627b      	str	r3, [r7, #36]	; 0x24
 8001f44:	f7fe fdc2 	bl	8000acc <HAL_GetTick>
 8001f48:	0002      	movs	r2, r0
 8001f4a:	69fb      	ldr	r3, [r7, #28]
 8001f4c:	1ad3      	subs	r3, r2, r3
 8001f4e:	6b3a      	ldr	r2, [r7, #48]	; 0x30
 8001f50:	429a      	cmp	r2, r3
 8001f52:	d807      	bhi.n	8001f64 <HAL_SPI_TransmitReceive+0x23c>
 8001f54:	6b3b      	ldr	r3, [r7, #48]	; 0x30
 8001f56:	3301      	adds	r3, #1
 8001f58:	d004      	beq.n	8001f64 <HAL_SPI_TransmitReceive+0x23c>
 8001f5a:	2323      	movs	r3, #35	; 0x23
 8001f5c:	18fb      	adds	r3, r7, r3
 8001f5e:	2203      	movs	r2, #3
 8001f60:	701a      	strb	r2, [r3, #0]
 8001f62:	e0a2      	b.n	80020aa <HAL_SPI_TransmitReceive+0x382>
 8001f64:	68fb      	ldr	r3, [r7, #12]
 8001f66:	8fdb      	ldrh	r3, [r3, #62]	; 0x3e
 8001f68:	b29b      	uxth	r3, r3
 8001f6a:	2b00      	cmp	r3, #0
 8001f6c:	d1a3      	bne.n	8001eb6 <HAL_SPI_TransmitReceive+0x18e>
 8001f6e:	68fb      	ldr	r3, [r7, #12]
 8001f70:	2246      	movs	r2, #70	; 0x46
 8001f72:	5a9b      	ldrh	r3, [r3, r2]
 8001f74:	b29b      	uxth	r3, r3
 8001f76:	2b00      	cmp	r3, #0
 8001f78:	d19d      	bne.n	8001eb6 <HAL_SPI_TransmitReceive+0x18e>
 8001f7a:	e085      	b.n	8002088 <HAL_SPI_TransmitReceive+0x360>
 8001f7c:	68fb      	ldr	r3, [r7, #12]
 8001f7e:	685b      	ldr	r3, [r3, #4]
 8001f80:	2b00      	cmp	r3, #0
 8001f82:	d005      	beq.n	8001f90 <HAL_SPI_TransmitReceive+0x268>
 8001f84:	2312      	movs	r3, #18
 8001f86:	18fb      	adds	r3, r7, r3
 8001f88:	881b      	ldrh	r3, [r3, #0]
 8001f8a:	2b01      	cmp	r3, #1
 8001f8c:	d000      	beq.n	8001f90 <HAL_SPI_TransmitReceive+0x268>
 8001f8e:	e070      	b.n	8002072 <HAL_SPI_TransmitReceive+0x34a>
 8001f90:	68fb      	ldr	r3, [r7, #12]
 8001f92:	6b9a      	ldr	r2, [r3, #56]	; 0x38
 8001f94:	68fb      	ldr	r3, [r7, #12]
 8001f96:	681b      	ldr	r3, [r3, #0]
 8001f98:	330c      	adds	r3, #12
 8001f9a:	7812      	ldrb	r2, [r2, #0]
 8001f9c:	701a      	strb	r2, [r3, #0]
 8001f9e:	68fb      	ldr	r3, [r7, #12]
 8001fa0:	6b9b      	ldr	r3, [r3, #56]	; 0x38
 8001fa2:	1c5a      	adds	r2, r3, #1
 8001fa4:	68fb      	ldr	r3, [r7, #12]
 8001fa6:	639a      	str	r2, [r3, #56]	; 0x38
 8001fa8:	68fb      	ldr	r3, [r7, #12]
 8001faa:	8fdb      	ldrh	r3, [r3, #62]	; 0x3e
 8001fac:	b29b      	uxth	r3, r3
 8001fae:	3b01      	subs	r3, #1
 8001fb0:	b29a      	uxth	r2, r3
 8001fb2:	68fb      	ldr	r3, [r7, #12]
 8001fb4:	87da      	strh	r2, [r3, #62]	; 0x3e
 8001fb6:	e05c      	b.n	8002072 <HAL_SPI_TransmitReceive+0x34a>
 8001fb8:	68fb      	ldr	r3, [r7, #12]
 8001fba:	681b      	ldr	r3, [r3, #0]
 8001fbc:	689b      	ldr	r3, [r3, #8]
 8001fbe:	2202      	movs	r2, #2
 8001fc0:	4013      	ands	r3, r2
 8001fc2:	2b02      	cmp	r3, #2
 8001fc4:	d11c      	bne.n	8002000 <HAL_SPI_TransmitReceive+0x2d8>
 8001fc6:	68fb      	ldr	r3, [r7, #12]
 8001fc8:	8fdb      	ldrh	r3, [r3, #62]	; 0x3e
 8001fca:	b29b      	uxth	r3, r3
 8001fcc:	2b00      	cmp	r3, #0
 8001fce:	d017      	beq.n	8002000 <HAL_SPI_TransmitReceive+0x2d8>
 8001fd0:	6a7b      	ldr	r3, [r7, #36]	; 0x24
 8001fd2:	2b01      	cmp	r3, #1
 8001fd4:	d114      	bne.n	8002000 <HAL_SPI_TransmitReceive+0x2d8>
 8001fd6:	68fb      	ldr	r3, [r7, #12]
 8001fd8:	6b9a      	ldr	r2, [r3, #56]	; 0x38
 8001fda:	68fb      	ldr	r3, [r7, #12]
 8001fdc:	681b      	ldr	r3, [r3, #0]
 8001fde:	330c      	adds	r3, #12
 8001fe0:	7812      	ldrb	r2, [r2, #0]
 8001fe2:	701a      	strb	r2, [r3, #0]
 8001fe4:	68fb      	ldr	r3, [r7, #12]
 8001fe6:	6b9b      	ldr	r3, [r3, #56]	; 0x38
 8001fe8:	1c5a      	adds	r2, r3, #1
 8001fea:	68fb      	ldr	r3, [r7, #12]
 8001fec:	639a      	str	r2, [r3, #56]	; 0x38
 8001fee:	68fb      	ldr	r3, [r7, #12]
 8001ff0:	8fdb      	ldrh	r3, [r3, #62]	; 0x3e
 8001ff2:	b29b      	uxth	r3, r3
 8001ff4:	3b01      	subs	r3, #1
 8001ff6:	b29a      	uxth	r2, r3
 8001ff8:	68fb      	ldr	r3, [r7, #12]
 8001ffa:	87da      	strh	r2, [r3, #62]	; 0x3e
 8001ffc:	2300      	movs	r3, #0
 8001ffe:	627b      	str	r3, [r7, #36]	; 0x24
 8002000:	68fb      	ldr	r3, [r7, #12]
 8002002:	681b      	ldr	r3, [r3, #0]
 8002004:	689b      	ldr	r3, [r3, #8]
 8002006:	2201      	movs	r2, #1
 8002008:	4013      	ands	r3, r2
 800200a:	2b01      	cmp	r3, #1
 800200c:	d11e      	bne.n	800204c <HAL_SPI_TransmitReceive+0x324>
 800200e:	68fb      	ldr	r3, [r7, #12]
 8002010:	2246      	movs	r2, #70	; 0x46
 8002012:	5a9b      	ldrh	r3, [r3, r2]
 8002014:	b29b      	uxth	r3, r3
 8002016:	2b00      	cmp	r3, #0
 8002018:	d018      	beq.n	800204c <HAL_SPI_TransmitReceive+0x324>
 800201a:	68fb      	ldr	r3, [r7, #12]
 800201c:	681b      	ldr	r3, [r3, #0]
 800201e:	330c      	adds	r3, #12
 8002020:	001a      	movs	r2, r3
 8002022:	68fb      	ldr	r3, [r7, #12]
 8002024:	6c1b      	ldr	r3, [r3, #64]	; 0x40
 8002026:	7812      	ldrb	r2, [r2, #0]
 8002028:	b2d2      	uxtb	r2, r2
 800202a:	701a      	strb	r2, [r3, #0]
 800202c:	68fb      	ldr	r3, [r7, #12]
 800202e:	6c1b      	ldr	r3, [r3, #64]	; 0x40
 8002030:	1c5a      	adds	r2, r3, #1
 8002032:	68fb      	ldr	r3, [r7, #12]
 8002034:	641a      	str	r2, [r3, #64]	; 0x40
 8002036:	68fb      	ldr	r3, [r7, #12]
 8002038:	2246      	movs	r2, #70	; 0x46
 800203a:	5a9b      	ldrh	r3, [r3, r2]
 800203c:	b29b      	uxth	r3, r3
 800203e:	3b01      	subs	r3, #1
 8002040:	b299      	uxth	r1, r3
 8002042:	68fb      	ldr	r3, [r7, #12]
 8002044:	2246      	movs	r2, #70	; 0x46
 8002046:	5299      	strh	r1, [r3, r2]
 8002048:	2301      	movs	r3, #1
 800204a:	627b      	str	r3, [r7, #36]	; 0x24
 800204c:	f7fe fd3e 	bl	8000acc <HAL_GetTick>
 8002050:	0002      	movs	r2, r0
 8002052:	69fb      	ldr	r3, [r7, #28]
 8002054:	1ad3      	subs	r3, r2, r3
 8002056:	6b3a      	ldr	r2, [r7, #48]	; 0x30
 8002058:	429a      	cmp	r2, r3
 800205a:	d802      	bhi.n	8002062 <HAL_SPI_TransmitReceive+0x33a>
 800205c:	6b3b      	ldr	r3, [r7, #48]	; 0x30
 800205e:	3301      	adds	r3, #1
 8002060:	d102      	bne.n	8002068 <HAL_SPI_TransmitReceive+0x340>
 8002062:	6b3b      	ldr	r3, [r7, #48]	; 0x30
 8002064:	2b00      	cmp	r3, #0
 8002066:	d104      	bne.n	8002072 <HAL_SPI_TransmitReceive+0x34a>
 8002068:	2323      	movs	r3, #35	; 0x23
 800206a:	18fb      	adds	r3, r7, r3
 800206c:	2203      	movs	r2, #3
 800206e:	701a      	strb	r2, [r3, #0]
 8002070:	e01b      	b.n	80020aa <HAL_SPI_TransmitReceive+0x382>
 8002072:	68fb      	ldr	r3, [r7, #12]
 8002074:	8fdb      	ldrh	r3, [r3, #62]	; 0x3e
 8002076:	b29b      	uxth	r3, r3
 8002078:	2b00      	cmp	r3, #0
 800207a:	d19d      	bne.n	8001fb8 <HAL_SPI_TransmitReceive+0x290>
 800207c:	68fb      	ldr	r3, [r7, #12]
 800207e:	2246      	movs	r2, #70	; 0x46
 8002080:	5a9b      	ldrh	r3, [r3, r2]
 8002082:	b29b      	uxth	r3, r3
 8002084:	2b00      	cmp	r3, #0
 8002086:	d197      	bne.n	8001fb8 <HAL_SPI_TransmitReceive+0x290>
 8002088:	69fa      	ldr	r2, [r7, #28]
 800208a:	6b39      	ldr	r1, [r7, #48]	; 0x30
 800208c:	68fb      	ldr	r3, [r7, #12]
 800208e:	0018      	movs	r0, r3
 8002090:	f000 f94c 	bl	800232c <SPI_EndRxTxTransaction>
 8002094:	1e03      	subs	r3, r0, #0
 8002096:	d007      	beq.n	80020a8 <HAL_SPI_TransmitReceive+0x380>
 8002098:	2323      	movs	r3, #35	; 0x23
 800209a:	18fb      	adds	r3, r7, r3
 800209c:	2201      	movs	r2, #1
 800209e:	701a      	strb	r2, [r3, #0]
 80020a0:	68fb      	ldr	r3, [r7, #12]
 80020a2:	2220      	movs	r2, #32
 80020a4:	661a      	str	r2, [r3, #96]	; 0x60
 80020a6:	e000      	b.n	80020aa <HAL_SPI_TransmitReceive+0x382>
 80020a8:	46c0      	nop			; (mov r8, r8)
 80020aa:	68fb      	ldr	r3, [r7, #12]
 80020ac:	225d      	movs	r2, #93	; 0x5d
 80020ae:	2101      	movs	r1, #1
 80020b0:	5499      	strb	r1, [r3, r2]
 80020b2:	68fb      	ldr	r3, [r7, #12]
 80020b4:	225c      	movs	r2, #92	; 0x5c
 80020b6:	2100      	movs	r1, #0
 80020b8:	5499      	strb	r1, [r3, r2]
 80020ba:	2323      	movs	r3, #35	; 0x23
 80020bc:	18fb      	adds	r3, r7, r3
 80020be:	781b      	ldrb	r3, [r3, #0]
 80020c0:	0018      	movs	r0, r3
 80020c2:	46bd      	mov	sp, r7
 80020c4:	b00a      	add	sp, #40	; 0x28
 80020c6:	bd80      	pop	{r7, pc}
 80020c8:	ffffefff 	.word	0xffffefff

080020cc <SPI_WaitFlagStateUntilTimeout>:
 80020cc:	b580      	push	{r7, lr}
 80020ce:	b088      	sub	sp, #32
 80020d0:	af00      	add	r7, sp, #0
 80020d2:	60f8      	str	r0, [r7, #12]
 80020d4:	60b9      	str	r1, [r7, #8]
 80020d6:	603b      	str	r3, [r7, #0]
 80020d8:	1dfb      	adds	r3, r7, #7
 80020da:	701a      	strb	r2, [r3, #0]
 80020dc:	f7fe fcf6 	bl	8000acc <HAL_GetTick>
 80020e0:	0002      	movs	r2, r0
 80020e2:	6abb      	ldr	r3, [r7, #40]	; 0x28
 80020e4:	1a9b      	subs	r3, r3, r2
 80020e6:	683a      	ldr	r2, [r7, #0]
 80020e8:	18d3      	adds	r3, r2, r3
 80020ea:	61fb      	str	r3, [r7, #28]
 80020ec:	f7fe fcee 	bl	8000acc <HAL_GetTick>
 80020f0:	0003      	movs	r3, r0
 80020f2:	61bb      	str	r3, [r7, #24]
 80020f4:	4b3a      	ldr	r3, [pc, #232]	; (80021e0 <SPI_WaitFlagStateUntilTimeout+0x114>)
 80020f6:	681b      	ldr	r3, [r3, #0]
 80020f8:	015b      	lsls	r3, r3, #5
 80020fa:	0d1b      	lsrs	r3, r3, #20
 80020fc:	69fa      	ldr	r2, [r7, #28]
 80020fe:	4353      	muls	r3, r2
 8002100:	617b      	str	r3, [r7, #20]
 8002102:	e058      	b.n	80021b6 <SPI_WaitFlagStateUntilTimeout+0xea>
 8002104:	683b      	ldr	r3, [r7, #0]
 8002106:	3301      	adds	r3, #1
 8002108:	d055      	beq.n	80021b6 <SPI_WaitFlagStateUntilTimeout+0xea>
 800210a:	f7fe fcdf 	bl	8000acc <HAL_GetTick>
 800210e:	0002      	movs	r2, r0
 8002110:	69bb      	ldr	r3, [r7, #24]
 8002112:	1ad3      	subs	r3, r2, r3
 8002114:	69fa      	ldr	r2, [r7, #28]
 8002116:	429a      	cmp	r2, r3
 8002118:	d902      	bls.n	8002120 <SPI_WaitFlagStateUntilTimeout+0x54>
 800211a:	69fb      	ldr	r3, [r7, #28]
 800211c:	2b00      	cmp	r3, #0
 800211e:	d142      	bne.n	80021a6 <SPI_WaitFlagStateUntilTimeout+0xda>
 8002120:	68fb      	ldr	r3, [r7, #12]
 8002122:	681b      	ldr	r3, [r3, #0]
 8002124:	685a      	ldr	r2, [r3, #4]
 8002126:	68fb      	ldr	r3, [r7, #12]
 8002128:	681b      	ldr	r3, [r3, #0]
 800212a:	21e0      	movs	r1, #224	; 0xe0
 800212c:	438a      	bics	r2, r1
 800212e:	605a      	str	r2, [r3, #4]
 8002130:	68fb      	ldr	r3, [r7, #12]
 8002132:	685a      	ldr	r2, [r3, #4]
 8002134:	2382      	movs	r3, #130	; 0x82
 8002136:	005b      	lsls	r3, r3, #1
 8002138:	429a      	cmp	r2, r3
 800213a:	d113      	bne.n	8002164 <SPI_WaitFlagStateUntilTimeout+0x98>
 800213c:	68fb      	ldr	r3, [r7, #12]
 800213e:	689a      	ldr	r2, [r3, #8]
 8002140:	2380      	movs	r3, #128	; 0x80
 8002142:	021b      	lsls	r3, r3, #8
 8002144:	429a      	cmp	r2, r3
 8002146:	d005      	beq.n	8002154 <SPI_WaitFlagStateUntilTimeout+0x88>
 8002148:	68fb      	ldr	r3, [r7, #12]
 800214a:	689a      	ldr	r2, [r3, #8]
 800214c:	2380      	movs	r3, #128	; 0x80
 800214e:	00db      	lsls	r3, r3, #3
 8002150:	429a      	cmp	r2, r3
 8002152:	d107      	bne.n	8002164 <SPI_WaitFlagStateUntilTimeout+0x98>
 8002154:	68fb      	ldr	r3, [r7, #12]
 8002156:	681b      	ldr	r3, [r3, #0]
 8002158:	681a      	ldr	r2, [r3, #0]
 800215a:	68fb      	ldr	r3, [r7, #12]
 800215c:	681b      	ldr	r3, [r3, #0]
 800215e:	2140      	movs	r1, #64	; 0x40
 8002160:	438a      	bics	r2, r1
 8002162:	601a      	str	r2, [r3, #0]
 8002164:	68fb      	ldr	r3, [r7, #12]
 8002166:	6a9a      	ldr	r2, [r3, #40]	; 0x28
 8002168:	2380      	movs	r3, #128	; 0x80
 800216a:	019b      	lsls	r3, r3, #6
 800216c:	429a      	cmp	r2, r3
 800216e:	d110      	bne.n	8002192 <SPI_WaitFlagStateUntilTimeout+0xc6>
 8002170:	68fb      	ldr	r3, [r7, #12]
 8002172:	681b      	ldr	r3, [r3, #0]
 8002174:	681a      	ldr	r2, [r3, #0]
 8002176:	68fb      	ldr	r3, [r7, #12]
 8002178:	681b      	ldr	r3, [r3, #0]
 800217a:	491a      	ldr	r1, [pc, #104]	; (80021e4 <SPI_WaitFlagStateUntilTimeout+0x118>)
 800217c:	400a      	ands	r2, r1
 800217e:	601a      	str	r2, [r3, #0]
 8002180:	68fb      	ldr	r3, [r7, #12]
 8002182:	681b      	ldr	r3, [r3, #0]
 8002184:	681a      	ldr	r2, [r3, #0]
 8002186:	68fb      	ldr	r3, [r7, #12]
 8002188:	681b      	ldr	r3, [r3, #0]
 800218a:	2180      	movs	r1, #128	; 0x80
 800218c:	0189      	lsls	r1, r1, #6
 800218e:	430a      	orrs	r2, r1
 8002190:	601a      	str	r2, [r3, #0]
 8002192:	68fb      	ldr	r3, [r7, #12]
 8002194:	225d      	movs	r2, #93	; 0x5d
 8002196:	2101      	movs	r1, #1
 8002198:	5499      	strb	r1, [r3, r2]
 800219a:	68fb      	ldr	r3, [r7, #12]
 800219c:	225c      	movs	r2, #92	; 0x5c
 800219e:	2100      	movs	r1, #0
 80021a0:	5499      	strb	r1, [r3, r2]
 80021a2:	2303      	movs	r3, #3
 80021a4:	e017      	b.n	80021d6 <SPI_WaitFlagStateUntilTimeout+0x10a>
 80021a6:	697b      	ldr	r3, [r7, #20]
 80021a8:	2b00      	cmp	r3, #0
 80021aa:	d101      	bne.n	80021b0 <SPI_WaitFlagStateUntilTimeout+0xe4>
 80021ac:	2300      	movs	r3, #0
 80021ae:	61fb      	str	r3, [r7, #28]
 80021b0:	697b      	ldr	r3, [r7, #20]
 80021b2:	3b01      	subs	r3, #1
 80021b4:	617b      	str	r3, [r7, #20]
 80021b6:	68fb      	ldr	r3, [r7, #12]
 80021b8:	681b      	ldr	r3, [r3, #0]
 80021ba:	689b      	ldr	r3, [r3, #8]
 80021bc:	68ba      	ldr	r2, [r7, #8]
 80021be:	4013      	ands	r3, r2
 80021c0:	68ba      	ldr	r2, [r7, #8]
 80021c2:	1ad3      	subs	r3, r2, r3
 80021c4:	425a      	negs	r2, r3
 80021c6:	4153      	adcs	r3, r2
 80021c8:	b2db      	uxtb	r3, r3
 80021ca:	001a      	movs	r2, r3
 80021cc:	1dfb      	adds	r3, r7, #7
 80021ce:	781b      	ldrb	r3, [r3, #0]
 80021d0:	429a      	cmp	r2, r3
 80021d2:	d197      	bne.n	8002104 <SPI_WaitFlagStateUntilTimeout+0x38>
 80021d4:	2300      	movs	r3, #0
 80021d6:	0018      	movs	r0, r3
 80021d8:	46bd      	mov	sp, r7
 80021da:	b008      	add	sp, #32
 80021dc:	bd80      	pop	{r7, pc}
 80021de:	46c0      	nop			; (mov r8, r8)
 80021e0:	20000000 	.word	0x20000000
 80021e4:	ffffdfff 	.word	0xffffdfff

080021e8 <SPI_WaitFifoStateUntilTimeout>:
 80021e8:	b580      	push	{r7, lr}
 80021ea:	b08a      	sub	sp, #40	; 0x28
 80021ec:	af00      	add	r7, sp, #0
 80021ee:	60f8      	str	r0, [r7, #12]
 80021f0:	60b9      	str	r1, [r7, #8]
 80021f2:	607a      	str	r2, [r7, #4]
 80021f4:	603b      	str	r3, [r7, #0]
 80021f6:	2317      	movs	r3, #23
 80021f8:	18fb      	adds	r3, r7, r3
 80021fa:	2200      	movs	r2, #0
 80021fc:	701a      	strb	r2, [r3, #0]
 80021fe:	f7fe fc65 	bl	8000acc <HAL_GetTick>
 8002202:	0002      	movs	r2, r0
 8002204:	6b3b      	ldr	r3, [r7, #48]	; 0x30
 8002206:	1a9b      	subs	r3, r3, r2
 8002208:	683a      	ldr	r2, [r7, #0]
 800220a:	18d3      	adds	r3, r2, r3
 800220c:	627b      	str	r3, [r7, #36]	; 0x24
 800220e:	f7fe fc5d 	bl	8000acc <HAL_GetTick>
 8002212:	0003      	movs	r3, r0
 8002214:	623b      	str	r3, [r7, #32]
 8002216:	68fb      	ldr	r3, [r7, #12]
 8002218:	681b      	ldr	r3, [r3, #0]
 800221a:	330c      	adds	r3, #12
 800221c:	61fb      	str	r3, [r7, #28]
 800221e:	4b41      	ldr	r3, [pc, #260]	; (8002324 <SPI_WaitFifoStateUntilTimeout+0x13c>)
 8002220:	681a      	ldr	r2, [r3, #0]
 8002222:	0013      	movs	r3, r2
 8002224:	009b      	lsls	r3, r3, #2
 8002226:	189b      	adds	r3, r3, r2
 8002228:	00da      	lsls	r2, r3, #3
 800222a:	1ad3      	subs	r3, r2, r3
 800222c:	0d1b      	lsrs	r3, r3, #20
 800222e:	6a7a      	ldr	r2, [r7, #36]	; 0x24
 8002230:	4353      	muls	r3, r2
 8002232:	61bb      	str	r3, [r7, #24]
 8002234:	e068      	b.n	8002308 <SPI_WaitFifoStateUntilTimeout+0x120>
 8002236:	68ba      	ldr	r2, [r7, #8]
 8002238:	23c0      	movs	r3, #192	; 0xc0
 800223a:	00db      	lsls	r3, r3, #3
 800223c:	429a      	cmp	r2, r3
 800223e:	d10a      	bne.n	8002256 <SPI_WaitFifoStateUntilTimeout+0x6e>
 8002240:	687b      	ldr	r3, [r7, #4]
 8002242:	2b00      	cmp	r3, #0
 8002244:	d107      	bne.n	8002256 <SPI_WaitFifoStateUntilTimeout+0x6e>
 8002246:	69fb      	ldr	r3, [r7, #28]
 8002248:	781b      	ldrb	r3, [r3, #0]
 800224a:	b2da      	uxtb	r2, r3
 800224c:	2117      	movs	r1, #23
 800224e:	187b      	adds	r3, r7, r1
 8002250:	701a      	strb	r2, [r3, #0]
 8002252:	187b      	adds	r3, r7, r1
 8002254:	781b      	ldrb	r3, [r3, #0]
 8002256:	683b      	ldr	r3, [r7, #0]
 8002258:	3301      	adds	r3, #1
 800225a:	d055      	beq.n	8002308 <SPI_WaitFifoStateUntilTimeout+0x120>
 800225c:	f7fe fc36 	bl	8000acc <HAL_GetTick>
 8002260:	0002      	movs	r2, r0
 8002262:	6a3b      	ldr	r3, [r7, #32]
 8002264:	1ad3      	subs	r3, r2, r3
 8002266:	6a7a      	ldr	r2, [r7, #36]	; 0x24
 8002268:	429a      	cmp	r2, r3
 800226a:	d902      	bls.n	8002272 <SPI_WaitFifoStateUntilTimeout+0x8a>
 800226c:	6a7b      	ldr	r3, [r7, #36]	; 0x24
 800226e:	2b00      	cmp	r3, #0
 8002270:	d142      	bne.n	80022f8 <SPI_WaitFifoStateUntilTimeout+0x110>
 8002272:	68fb      	ldr	r3, [r7, #12]
 8002274:	681b      	ldr	r3, [r3, #0]
 8002276:	685a      	ldr	r2, [r3, #4]
 8002278:	68fb      	ldr	r3, [r7, #12]
 800227a:	681b      	ldr	r3, [r3, #0]
 800227c:	21e0      	movs	r1, #224	; 0xe0
 800227e:	438a      	bics	r2, r1
 8002280:	605a      	str	r2, [r3, #4]
 8002282:	68fb      	ldr	r3, [r7, #12]
 8002284:	685a      	ldr	r2, [r3, #4]
 8002286:	2382      	movs	r3, #130	; 0x82
 8002288:	005b      	lsls	r3, r3, #1
 800228a:	429a      	cmp	r2, r3
 800228c:	d113      	bne.n	80022b6 <SPI_WaitFifoStateUntilTimeout+0xce>
 800228e:	68fb      	ldr	r3, [r7, #12]
 8002290:	689a      	ldr	r2, [r3, #8]
 8002292:	2380      	movs	r3, #128	; 0x80
 8002294:	021b      	lsls	r3, r3, #8
 8002296:	429a      	cmp	r2, r3
 8002298:	d005      	beq.n	80022a6 <SPI_WaitFifoStateUntilTimeout+0xbe>
 800229a:	68fb      	ldr	r3, [r7, #12]
 800229c:	689a      	ldr	r2, [r3, #8]
 800229e:	2380      	movs	r3, #128	; 0x80
 80022a0:	00db      	lsls	r3, r3, #3
 80022a2:	429a      	cmp	r2, r3
 80022a4:	d107      	bne.n	80022b6 <SPI_WaitFifoStateUntilTimeout+0xce>
 80022a6:	68fb      	ldr	r3, [r7, #12]
 80022a8:	681b      	ldr	r3, [r3, #0]
 80022aa:	681a      	ldr	r2, [r3, #0]
 80022ac:	68fb      	ldr	r3, [r7, #12]
 80022ae:	681b      	ldr	r3, [r3, #0]
 80022b0:	2140      	movs	r1, #64	; 0x40
 80022b2:	438a      	bics	r2, r1
 80022b4:	601a      	str	r2, [r3, #0]
 80022b6:	68fb      	ldr	r3, [r7, #12]
 80022b8:	6a9a      	ldr	r2, [r3, #40]	; 0x28
 80022ba:	2380      	movs	r3, #128	; 0x80
 80022bc:	019b      	lsls	r3, r3, #6
 80022be:	429a      	cmp	r2, r3
 80022c0:	d110      	bne.n	80022e4 <SPI_WaitFifoStateUntilTimeout+0xfc>
 80022c2:	68fb      	ldr	r3, [r7, #12]
 80022c4:	681b      	ldr	r3, [r3, #0]
 80022c6:	681a      	ldr	r2, [r3, #0]
 80022c8:	68fb      	ldr	r3, [r7, #12]
 80022ca:	681b      	ldr	r3, [r3, #0]
 80022cc:	4916      	ldr	r1, [pc, #88]	; (8002328 <SPI_WaitFifoStateUntilTimeout+0x140>)
 80022ce:	400a      	ands	r2, r1
 80022d0:	601a      	str	r2, [r3, #0]
 80022d2:	68fb      	ldr	r3, [r7, #12]
 80022d4:	681b      	ldr	r3, [r3, #0]
 80022d6:	681a      	ldr	r2, [r3, #0]
 80022d8:	68fb      	ldr	r3, [r7, #12]
 80022da:	681b      	ldr	r3, [r3, #0]
 80022dc:	2180      	movs	r1, #128	; 0x80
 80022de:	0189      	lsls	r1, r1, #6
 80022e0:	430a      	orrs	r2, r1
 80022e2:	601a      	str	r2, [r3, #0]
 80022e4:	68fb      	ldr	r3, [r7, #12]
 80022e6:	225d      	movs	r2, #93	; 0x5d
 80022e8:	2101      	movs	r1, #1
 80022ea:	5499      	strb	r1, [r3, r2]
 80022ec:	68fb      	ldr	r3, [r7, #12]
 80022ee:	225c      	movs	r2, #92	; 0x5c
 80022f0:	2100      	movs	r1, #0
 80022f2:	5499      	strb	r1, [r3, r2]
 80022f4:	2303      	movs	r3, #3
 80022f6:	e010      	b.n	800231a <SPI_WaitFifoStateUntilTimeout+0x132>
 80022f8:	69bb      	ldr	r3, [r7, #24]
 80022fa:	2b00      	cmp	r3, #0
 80022fc:	d101      	bne.n	8002302 <SPI_WaitFifoStateUntilTimeout+0x11a>
 80022fe:	2300      	movs	r3, #0
 8002300:	627b      	str	r3, [r7, #36]	; 0x24
 8002302:	69bb      	ldr	r3, [r7, #24]
 8002304:	3b01      	subs	r3, #1
 8002306:	61bb      	str	r3, [r7, #24]
 8002308:	68fb      	ldr	r3, [r7, #12]
 800230a:	681b      	ldr	r3, [r3, #0]
 800230c:	689b      	ldr	r3, [r3, #8]
 800230e:	68ba      	ldr	r2, [r7, #8]
 8002310:	4013      	ands	r3, r2
 8002312:	687a      	ldr	r2, [r7, #4]
 8002314:	429a      	cmp	r2, r3
 8002316:	d18e      	bne.n	8002236 <SPI_WaitFifoStateUntilTimeout+0x4e>
 8002318:	2300      	movs	r3, #0
 800231a:	0018      	movs	r0, r3
 800231c:	46bd      	mov	sp, r7
 800231e:	b00a      	add	sp, #40	; 0x28
 8002320:	bd80      	pop	{r7, pc}
 8002322:	46c0      	nop			; (mov r8, r8)
 8002324:	20000000 	.word	0x20000000
 8002328:	ffffdfff 	.word	0xffffdfff

0800232c <SPI_EndRxTxTransaction>:
 800232c:	b580      	push	{r7, lr}
 800232e:	b086      	sub	sp, #24
 8002330:	af02      	add	r7, sp, #8
 8002332:	60f8      	str	r0, [r7, #12]
 8002334:	60b9      	str	r1, [r7, #8]
 8002336:	607a      	str	r2, [r7, #4]
 8002338:	68ba      	ldr	r2, [r7, #8]
 800233a:	23c0      	movs	r3, #192	; 0xc0
 800233c:	0159      	lsls	r1, r3, #5
 800233e:	68f8      	ldr	r0, [r7, #12]
 8002340:	687b      	ldr	r3, [r7, #4]
 8002342:	9300      	str	r3, [sp, #0]
 8002344:	0013      	movs	r3, r2
 8002346:	2200      	movs	r2, #0
 8002348:	f7ff ff4e 	bl	80021e8 <SPI_WaitFifoStateUntilTimeout>
 800234c:	1e03      	subs	r3, r0, #0
 800234e:	d007      	beq.n	8002360 <SPI_EndRxTxTransaction+0x34>
 8002350:	68fb      	ldr	r3, [r7, #12]
 8002352:	6e1b      	ldr	r3, [r3, #96]	; 0x60
 8002354:	2220      	movs	r2, #32
 8002356:	431a      	orrs	r2, r3
 8002358:	68fb      	ldr	r3, [r7, #12]
 800235a:	661a      	str	r2, [r3, #96]	; 0x60
 800235c:	2303      	movs	r3, #3
 800235e:	e027      	b.n	80023b0 <SPI_EndRxTxTransaction+0x84>
 8002360:	68ba      	ldr	r2, [r7, #8]
 8002362:	68f8      	ldr	r0, [r7, #12]
 8002364:	687b      	ldr	r3, [r7, #4]
 8002366:	9300      	str	r3, [sp, #0]
 8002368:	0013      	movs	r3, r2
 800236a:	2200      	movs	r2, #0
 800236c:	2180      	movs	r1, #128	; 0x80
 800236e:	f7ff fead 	bl	80020cc <SPI_WaitFlagStateUntilTimeout>
 8002372:	1e03      	subs	r3, r0, #0
 8002374:	d007      	beq.n	8002386 <SPI_EndRxTxTransaction+0x5a>
 8002376:	68fb      	ldr	r3, [r7, #12]
 8002378:	6e1b      	ldr	r3, [r3, #96]	; 0x60
 800237a:	2220      	movs	r2, #32
 800237c:	431a      	orrs	r2, r3
 800237e:	68fb      	ldr	r3, [r7, #12]
 8002380:	661a      	str	r2, [r3, #96]	; 0x60
 8002382:	2303      	movs	r3, #3
 8002384:	e014      	b.n	80023b0 <SPI_EndRxTxTransaction+0x84>
 8002386:	68ba      	ldr	r2, [r7, #8]
 8002388:	23c0      	movs	r3, #192	; 0xc0
 800238a:	00d9      	lsls	r1, r3, #3
 800238c:	68f8      	ldr	r0, [r7, #12]
 800238e:	687b      	ldr	r3, [r7, #4]
 8002390:	9300      	str	r3, [sp, #0]
 8002392:	0013      	movs	r3, r2
 8002394:	2200      	movs	r2, #0
 8002396:	f7ff ff27 	bl	80021e8 <SPI_WaitFifoStateUntilTimeout>
 800239a:	1e03      	subs	r3, r0, #0
 800239c:	d007      	beq.n	80023ae <SPI_EndRxTxTransaction+0x82>
 800239e:	68fb      	ldr	r3, [r7, #12]
 80023a0:	6e1b      	ldr	r3, [r3, #96]	; 0x60
 80023a2:	2220      	movs	r2, #32
 80023a4:	431a      	orrs	r2, r3
 80023a6:	68fb      	ldr	r3, [r7, #12]
 80023a8:	661a      	str	r2, [r3, #96]	; 0x60
 80023aa:	2303      	movs	r3, #3
 80023ac:	e000      	b.n	80023b0 <SPI_EndRxTxTransaction+0x84>
 80023ae:	2300      	movs	r3, #0
 80023b0:	0018      	movs	r0, r3
 80023b2:	46bd      	mov	sp, r7
 80023b4:	b004      	add	sp, #16
 80023b6:	bd80      	pop	{r7, pc}

080023b8 <HAL_TIM_Base_Init>:
 80023b8:	b580      	push	{r7, lr}
 80023ba:	b082      	sub	sp, #8
 80023bc:	af00      	add	r7, sp, #0
 80023be:	6078      	str	r0, [r7, #4]
 80023c0:	687b      	ldr	r3, [r7, #4]
 80023c2:	2b00      	cmp	r3, #0
 80023c4:	d101      	bne.n	80023ca <HAL_TIM_Base_Init+0x12>
 80023c6:	2301      	movs	r3, #1
 80023c8:	e042      	b.n	8002450 <HAL_TIM_Base_Init+0x98>
 80023ca:	687b      	ldr	r3, [r7, #4]
 80023cc:	223d      	movs	r2, #61	; 0x3d
 80023ce:	5c9b      	ldrb	r3, [r3, r2]
 80023d0:	b2db      	uxtb	r3, r3
 80023d2:	2b00      	cmp	r3, #0
 80023d4:	d107      	bne.n	80023e6 <HAL_TIM_Base_Init+0x2e>
 80023d6:	687b      	ldr	r3, [r7, #4]
 80023d8:	223c      	movs	r2, #60	; 0x3c
 80023da:	2100      	movs	r1, #0
 80023dc:	5499      	strb	r1, [r3, r2]
 80023de:	687b      	ldr	r3, [r7, #4]
 80023e0:	0018      	movs	r0, r3
 80023e2:	f7fe fa13 	bl	800080c <HAL_TIM_Base_MspInit>
 80023e6:	687b      	ldr	r3, [r7, #4]
 80023e8:	223d      	movs	r2, #61	; 0x3d
 80023ea:	2102      	movs	r1, #2
 80023ec:	5499      	strb	r1, [r3, r2]
 80023ee:	687b      	ldr	r3, [r7, #4]
 80023f0:	681a      	ldr	r2, [r3, #0]
 80023f2:	687b      	ldr	r3, [r7, #4]
 80023f4:	3304      	adds	r3, #4
 80023f6:	0019      	movs	r1, r3
 80023f8:	0010      	movs	r0, r2
 80023fa:	f000 fad7 	bl	80029ac <TIM_Base_SetConfig>
 80023fe:	687b      	ldr	r3, [r7, #4]
 8002400:	2246      	movs	r2, #70	; 0x46
 8002402:	2101      	movs	r1, #1
 8002404:	5499      	strb	r1, [r3, r2]
 8002406:	687b      	ldr	r3, [r7, #4]
 8002408:	223e      	movs	r2, #62	; 0x3e
 800240a:	2101      	movs	r1, #1
 800240c:	5499      	strb	r1, [r3, r2]
 800240e:	687b      	ldr	r3, [r7, #4]
 8002410:	223f      	movs	r2, #63	; 0x3f
 8002412:	2101      	movs	r1, #1
 8002414:	5499      	strb	r1, [r3, r2]
 8002416:	687b      	ldr	r3, [r7, #4]
 8002418:	2240      	movs	r2, #64	; 0x40
 800241a:	2101      	movs	r1, #1
 800241c:	5499      	strb	r1, [r3, r2]
 800241e:	687b      	ldr	r3, [r7, #4]
 8002420:	2241      	movs	r2, #65	; 0x41
 8002422:	2101      	movs	r1, #1
 8002424:	5499      	strb	r1, [r3, r2]
 8002426:	687b      	ldr	r3, [r7, #4]
 8002428:	2242      	movs	r2, #66	; 0x42
 800242a:	2101      	movs	r1, #1
 800242c:	5499      	strb	r1, [r3, r2]
 800242e:	687b      	ldr	r3, [r7, #4]
 8002430:	2243      	movs	r2, #67	; 0x43
 8002432:	2101      	movs	r1, #1
 8002434:	5499      	strb	r1, [r3, r2]
 8002436:	687b      	ldr	r3, [r7, #4]
 8002438:	2244      	movs	r2, #68	; 0x44
 800243a:	2101      	movs	r1, #1
 800243c:	5499      	strb	r1, [r3, r2]
 800243e:	687b      	ldr	r3, [r7, #4]
 8002440:	2245      	movs	r2, #69	; 0x45
 8002442:	2101      	movs	r1, #1
 8002444:	5499      	strb	r1, [r3, r2]
 8002446:	687b      	ldr	r3, [r7, #4]
 8002448:	223d      	movs	r2, #61	; 0x3d
 800244a:	2101      	movs	r1, #1
 800244c:	5499      	strb	r1, [r3, r2]
 800244e:	2300      	movs	r3, #0
 8002450:	0018      	movs	r0, r3
 8002452:	46bd      	mov	sp, r7
 8002454:	b002      	add	sp, #8
 8002456:	bd80      	pop	{r7, pc}

08002458 <HAL_TIM_PWM_Init>:
 8002458:	b580      	push	{r7, lr}
 800245a:	b082      	sub	sp, #8
 800245c:	af00      	add	r7, sp, #0
 800245e:	6078      	str	r0, [r7, #4]
 8002460:	687b      	ldr	r3, [r7, #4]
 8002462:	2b00      	cmp	r3, #0
 8002464:	d101      	bne.n	800246a <HAL_TIM_PWM_Init+0x12>
 8002466:	2301      	movs	r3, #1
 8002468:	e042      	b.n	80024f0 <HAL_TIM_PWM_Init+0x98>
 800246a:	687b      	ldr	r3, [r7, #4]
 800246c:	223d      	movs	r2, #61	; 0x3d
 800246e:	5c9b      	ldrb	r3, [r3, r2]
 8002470:	b2db      	uxtb	r3, r3
 8002472:	2b00      	cmp	r3, #0
 8002474:	d107      	bne.n	8002486 <HAL_TIM_PWM_Init+0x2e>
 8002476:	687b      	ldr	r3, [r7, #4]
 8002478:	223c      	movs	r2, #60	; 0x3c
 800247a:	2100      	movs	r1, #0
 800247c:	5499      	strb	r1, [r3, r2]
 800247e:	687b      	ldr	r3, [r7, #4]
 8002480:	0018      	movs	r0, r3
 8002482:	f000 f839 	bl	80024f8 <HAL_TIM_PWM_MspInit>
 8002486:	687b      	ldr	r3, [r7, #4]
 8002488:	223d      	movs	r2, #61	; 0x3d
 800248a:	2102      	movs	r1, #2
 800248c:	5499      	strb	r1, [r3, r2]
 800248e:	687b      	ldr	r3, [r7, #4]
 8002490:	681a      	ldr	r2, [r3, #0]
 8002492:	687b      	ldr	r3, [r7, #4]
 8002494:	3304      	adds	r3, #4
 8002496:	0019      	movs	r1, r3
 8002498:	0010      	movs	r0, r2
 800249a:	f000 fa87 	bl	80029ac <TIM_Base_SetConfig>
 800249e:	687b      	ldr	r3, [r7, #4]
 80024a0:	2246      	movs	r2, #70	; 0x46
 80024a2:	2101      	movs	r1, #1
 80024a4:	5499      	strb	r1, [r3, r2]
 80024a6:	687b      	ldr	r3, [r7, #4]
 80024a8:	223e      	movs	r2, #62	; 0x3e
 80024aa:	2101      	movs	r1, #1
 80024ac:	5499      	strb	r1, [r3, r2]
 80024ae:	687b      	ldr	r3, [r7, #4]
 80024b0:	223f      	movs	r2, #63	; 0x3f
 80024b2:	2101      	movs	r1, #1
 80024b4:	5499      	strb	r1, [r3, r2]
 80024b6:	687b      	ldr	r3, [r7, #4]
 80024b8:	2240      	movs	r2, #64	; 0x40
 80024ba:	2101      	movs	r1, #1
 80024bc:	5499      	strb	r1, [r3, r2]
 80024be:	687b      	ldr	r3, [r7, #4]
 80024c0:	2241      	movs	r2, #65	; 0x41
 80024c2:	2101      	movs	r1, #1
 80024c4:	5499      	strb	r1, [r3, r2]
 80024c6:	687b      	ldr	r3, [r7, #4]
 80024c8:	2242      	movs	r2, #66	; 0x42
 80024ca:	2101      	movs	r1, #1
 80024cc:	5499      	strb	r1, [r3, r2]
 80024ce:	687b      	ldr	r3, [r7, #4]
 80024d0:	2243      	movs	r2, #67	; 0x43
 80024d2:	2101      	movs	r1, #1
 80024d4:	5499      	strb	r1, [r3, r2]
 80024d6:	687b      	ldr	r3, [r7, #4]
 80024d8:	2244      	movs	r2, #68	; 0x44
 80024da:	2101      	movs	r1, #1
 80024dc:	5499      	strb	r1, [r3, r2]
 80024de:	687b      	ldr	r3, [r7, #4]
 80024e0:	2245      	movs	r2, #69	; 0x45
 80024e2:	2101      	movs	r1, #1
 80024e4:	5499      	strb	r1, [r3, r2]
 80024e6:	687b      	ldr	r3, [r7, #4]
 80024e8:	223d      	movs	r2, #61	; 0x3d
 80024ea:	2101      	movs	r1, #1
 80024ec:	5499      	strb	r1, [r3, r2]
 80024ee:	2300      	movs	r3, #0
 80024f0:	0018      	movs	r0, r3
 80024f2:	46bd      	mov	sp, r7
 80024f4:	b002      	add	sp, #8
 80024f6:	bd80      	pop	{r7, pc}

080024f8 <HAL_TIM_PWM_MspInit>:
 80024f8:	b580      	push	{r7, lr}
 80024fa:	b082      	sub	sp, #8
 80024fc:	af00      	add	r7, sp, #0
 80024fe:	6078      	str	r0, [r7, #4]
 8002500:	46c0      	nop			; (mov r8, r8)
 8002502:	46bd      	mov	sp, r7
 8002504:	b002      	add	sp, #8
 8002506:	bd80      	pop	{r7, pc}

08002508 <HAL_TIM_PWM_Start>:
 8002508:	b580      	push	{r7, lr}
 800250a:	b084      	sub	sp, #16
 800250c:	af00      	add	r7, sp, #0
 800250e:	6078      	str	r0, [r7, #4]
 8002510:	6039      	str	r1, [r7, #0]
 8002512:	683b      	ldr	r3, [r7, #0]
 8002514:	2b00      	cmp	r3, #0
 8002516:	d108      	bne.n	800252a <HAL_TIM_PWM_Start+0x22>
 8002518:	687b      	ldr	r3, [r7, #4]
 800251a:	223e      	movs	r2, #62	; 0x3e
 800251c:	5c9b      	ldrb	r3, [r3, r2]
 800251e:	b2db      	uxtb	r3, r3
 8002520:	3b01      	subs	r3, #1
 8002522:	1e5a      	subs	r2, r3, #1
 8002524:	4193      	sbcs	r3, r2
 8002526:	b2db      	uxtb	r3, r3
 8002528:	e01f      	b.n	800256a <HAL_TIM_PWM_Start+0x62>
 800252a:	683b      	ldr	r3, [r7, #0]
 800252c:	2b04      	cmp	r3, #4
 800252e:	d108      	bne.n	8002542 <HAL_TIM_PWM_Start+0x3a>
 8002530:	687b      	ldr	r3, [r7, #4]
 8002532:	223f      	movs	r2, #63	; 0x3f
 8002534:	5c9b      	ldrb	r3, [r3, r2]
 8002536:	b2db      	uxtb	r3, r3
 8002538:	3b01      	subs	r3, #1
 800253a:	1e5a      	subs	r2, r3, #1
 800253c:	4193      	sbcs	r3, r2
 800253e:	b2db      	uxtb	r3, r3
 8002540:	e013      	b.n	800256a <HAL_TIM_PWM_Start+0x62>
 8002542:	683b      	ldr	r3, [r7, #0]
 8002544:	2b08      	cmp	r3, #8
 8002546:	d108      	bne.n	800255a <HAL_TIM_PWM_Start+0x52>
 8002548:	687b      	ldr	r3, [r7, #4]
 800254a:	2240      	movs	r2, #64	; 0x40
 800254c:	5c9b      	ldrb	r3, [r3, r2]
 800254e:	b2db      	uxtb	r3, r3
 8002550:	3b01      	subs	r3, #1
 8002552:	1e5a      	subs	r2, r3, #1
 8002554:	4193      	sbcs	r3, r2
 8002556:	b2db      	uxtb	r3, r3
 8002558:	e007      	b.n	800256a <HAL_TIM_PWM_Start+0x62>
 800255a:	687b      	ldr	r3, [r7, #4]
 800255c:	2241      	movs	r2, #65	; 0x41
 800255e:	5c9b      	ldrb	r3, [r3, r2]
 8002560:	b2db      	uxtb	r3, r3
 8002562:	3b01      	subs	r3, #1
 8002564:	1e5a      	subs	r2, r3, #1
 8002566:	4193      	sbcs	r3, r2
 8002568:	b2db      	uxtb	r3, r3
 800256a:	2b00      	cmp	r3, #0
 800256c:	d001      	beq.n	8002572 <HAL_TIM_PWM_Start+0x6a>
 800256e:	2301      	movs	r3, #1
 8002570:	e074      	b.n	800265c <HAL_TIM_PWM_Start+0x154>
 8002572:	683b      	ldr	r3, [r7, #0]
 8002574:	2b00      	cmp	r3, #0
 8002576:	d104      	bne.n	8002582 <HAL_TIM_PWM_Start+0x7a>
 8002578:	687b      	ldr	r3, [r7, #4]
 800257a:	223e      	movs	r2, #62	; 0x3e
 800257c:	2102      	movs	r1, #2
 800257e:	5499      	strb	r1, [r3, r2]
 8002580:	e013      	b.n	80025aa <HAL_TIM_PWM_Start+0xa2>
 8002582:	683b      	ldr	r3, [r7, #0]
 8002584:	2b04      	cmp	r3, #4
 8002586:	d104      	bne.n	8002592 <HAL_TIM_PWM_Start+0x8a>
 8002588:	687b      	ldr	r3, [r7, #4]
 800258a:	223f      	movs	r2, #63	; 0x3f
 800258c:	2102      	movs	r1, #2
 800258e:	5499      	strb	r1, [r3, r2]
 8002590:	e00b      	b.n	80025aa <HAL_TIM_PWM_Start+0xa2>
 8002592:	683b      	ldr	r3, [r7, #0]
 8002594:	2b08      	cmp	r3, #8
 8002596:	d104      	bne.n	80025a2 <HAL_TIM_PWM_Start+0x9a>
 8002598:	687b      	ldr	r3, [r7, #4]
 800259a:	2240      	movs	r2, #64	; 0x40
 800259c:	2102      	movs	r1, #2
 800259e:	5499      	strb	r1, [r3, r2]
 80025a0:	e003      	b.n	80025aa <HAL_TIM_PWM_Start+0xa2>
 80025a2:	687b      	ldr	r3, [r7, #4]
 80025a4:	2241      	movs	r2, #65	; 0x41
 80025a6:	2102      	movs	r1, #2
 80025a8:	5499      	strb	r1, [r3, r2]
 80025aa:	687b      	ldr	r3, [r7, #4]
 80025ac:	681b      	ldr	r3, [r3, #0]
 80025ae:	6839      	ldr	r1, [r7, #0]
 80025b0:	2201      	movs	r2, #1
 80025b2:	0018      	movs	r0, r3
 80025b4:	f000 fd10 	bl	8002fd8 <TIM_CCxChannelCmd>
 80025b8:	687b      	ldr	r3, [r7, #4]
 80025ba:	681b      	ldr	r3, [r3, #0]
 80025bc:	4a29      	ldr	r2, [pc, #164]	; (8002664 <HAL_TIM_PWM_Start+0x15c>)
 80025be:	4293      	cmp	r3, r2
 80025c0:	d00e      	beq.n	80025e0 <HAL_TIM_PWM_Start+0xd8>
 80025c2:	687b      	ldr	r3, [r7, #4]
 80025c4:	681b      	ldr	r3, [r3, #0]
 80025c6:	4a28      	ldr	r2, [pc, #160]	; (8002668 <HAL_TIM_PWM_Start+0x160>)
 80025c8:	4293      	cmp	r3, r2
 80025ca:	d009      	beq.n	80025e0 <HAL_TIM_PWM_Start+0xd8>
 80025cc:	687b      	ldr	r3, [r7, #4]
 80025ce:	681b      	ldr	r3, [r3, #0]
 80025d0:	4a26      	ldr	r2, [pc, #152]	; (800266c <HAL_TIM_PWM_Start+0x164>)
 80025d2:	4293      	cmp	r3, r2
 80025d4:	d004      	beq.n	80025e0 <HAL_TIM_PWM_Start+0xd8>
 80025d6:	687b      	ldr	r3, [r7, #4]
 80025d8:	681b      	ldr	r3, [r3, #0]
 80025da:	4a25      	ldr	r2, [pc, #148]	; (8002670 <HAL_TIM_PWM_Start+0x168>)
 80025dc:	4293      	cmp	r3, r2
 80025de:	d101      	bne.n	80025e4 <HAL_TIM_PWM_Start+0xdc>
 80025e0:	2301      	movs	r3, #1
 80025e2:	e000      	b.n	80025e6 <HAL_TIM_PWM_Start+0xde>
 80025e4:	2300      	movs	r3, #0
 80025e6:	2b00      	cmp	r3, #0
 80025e8:	d008      	beq.n	80025fc <HAL_TIM_PWM_Start+0xf4>
 80025ea:	687b      	ldr	r3, [r7, #4]
 80025ec:	681b      	ldr	r3, [r3, #0]
 80025ee:	6c5a      	ldr	r2, [r3, #68]	; 0x44
 80025f0:	687b      	ldr	r3, [r7, #4]
 80025f2:	681b      	ldr	r3, [r3, #0]
 80025f4:	2180      	movs	r1, #128	; 0x80
 80025f6:	0209      	lsls	r1, r1, #8
 80025f8:	430a      	orrs	r2, r1
 80025fa:	645a      	str	r2, [r3, #68]	; 0x44
 80025fc:	687b      	ldr	r3, [r7, #4]
 80025fe:	681b      	ldr	r3, [r3, #0]
 8002600:	4a18      	ldr	r2, [pc, #96]	; (8002664 <HAL_TIM_PWM_Start+0x15c>)
 8002602:	4293      	cmp	r3, r2
 8002604:	d00f      	beq.n	8002626 <HAL_TIM_PWM_Start+0x11e>
 8002606:	687b      	ldr	r3, [r7, #4]
 8002608:	681a      	ldr	r2, [r3, #0]
 800260a:	2380      	movs	r3, #128	; 0x80
 800260c:	05db      	lsls	r3, r3, #23
 800260e:	429a      	cmp	r2, r3
 8002610:	d009      	beq.n	8002626 <HAL_TIM_PWM_Start+0x11e>
 8002612:	687b      	ldr	r3, [r7, #4]
 8002614:	681b      	ldr	r3, [r3, #0]
 8002616:	4a17      	ldr	r2, [pc, #92]	; (8002674 <HAL_TIM_PWM_Start+0x16c>)
 8002618:	4293      	cmp	r3, r2
 800261a:	d004      	beq.n	8002626 <HAL_TIM_PWM_Start+0x11e>
 800261c:	687b      	ldr	r3, [r7, #4]
 800261e:	681b      	ldr	r3, [r3, #0]
 8002620:	4a11      	ldr	r2, [pc, #68]	; (8002668 <HAL_TIM_PWM_Start+0x160>)
 8002622:	4293      	cmp	r3, r2
 8002624:	d111      	bne.n	800264a <HAL_TIM_PWM_Start+0x142>
 8002626:	687b      	ldr	r3, [r7, #4]
 8002628:	681b      	ldr	r3, [r3, #0]
 800262a:	689b      	ldr	r3, [r3, #8]
 800262c:	2207      	movs	r2, #7
 800262e:	4013      	ands	r3, r2
 8002630:	60fb      	str	r3, [r7, #12]
 8002632:	68fb      	ldr	r3, [r7, #12]
 8002634:	2b06      	cmp	r3, #6
 8002636:	d010      	beq.n	800265a <HAL_TIM_PWM_Start+0x152>
 8002638:	687b      	ldr	r3, [r7, #4]
 800263a:	681b      	ldr	r3, [r3, #0]
 800263c:	681a      	ldr	r2, [r3, #0]
 800263e:	687b      	ldr	r3, [r7, #4]
 8002640:	681b      	ldr	r3, [r3, #0]
 8002642:	2101      	movs	r1, #1
 8002644:	430a      	orrs	r2, r1
 8002646:	601a      	str	r2, [r3, #0]
 8002648:	e007      	b.n	800265a <HAL_TIM_PWM_Start+0x152>
 800264a:	687b      	ldr	r3, [r7, #4]
 800264c:	681b      	ldr	r3, [r3, #0]
 800264e:	681a      	ldr	r2, [r3, #0]
 8002650:	687b      	ldr	r3, [r7, #4]
 8002652:	681b      	ldr	r3, [r3, #0]
 8002654:	2101      	movs	r1, #1
 8002656:	430a      	orrs	r2, r1
 8002658:	601a      	str	r2, [r3, #0]
 800265a:	2300      	movs	r3, #0
 800265c:	0018      	movs	r0, r3
 800265e:	46bd      	mov	sp, r7
 8002660:	b004      	add	sp, #16
 8002662:	bd80      	pop	{r7, pc}
 8002664:	40012c00 	.word	0x40012c00
 8002668:	40014000 	.word	0x40014000
 800266c:	40014400 	.word	0x40014400
 8002670:	40014800 	.word	0x40014800
 8002674:	40000400 	.word	0x40000400

08002678 <HAL_TIM_PWM_ConfigChannel>:
 8002678:	b580      	push	{r7, lr}
 800267a:	b086      	sub	sp, #24
 800267c:	af00      	add	r7, sp, #0
 800267e:	60f8      	str	r0, [r7, #12]
 8002680:	60b9      	str	r1, [r7, #8]
 8002682:	607a      	str	r2, [r7, #4]
 8002684:	2317      	movs	r3, #23
 8002686:	18fb      	adds	r3, r7, r3
 8002688:	2200      	movs	r2, #0
 800268a:	701a      	strb	r2, [r3, #0]
 800268c:	68fb      	ldr	r3, [r7, #12]
 800268e:	223c      	movs	r2, #60	; 0x3c
 8002690:	5c9b      	ldrb	r3, [r3, r2]
 8002692:	2b01      	cmp	r3, #1
 8002694:	d101      	bne.n	800269a <HAL_TIM_PWM_ConfigChannel+0x22>
 8002696:	2302      	movs	r3, #2
 8002698:	e0ad      	b.n	80027f6 <HAL_TIM_PWM_ConfigChannel+0x17e>
 800269a:	68fb      	ldr	r3, [r7, #12]
 800269c:	223c      	movs	r2, #60	; 0x3c
 800269e:	2101      	movs	r1, #1
 80026a0:	5499      	strb	r1, [r3, r2]
 80026a2:	687b      	ldr	r3, [r7, #4]
 80026a4:	2b0c      	cmp	r3, #12
 80026a6:	d100      	bne.n	80026aa <HAL_TIM_PWM_ConfigChannel+0x32>
 80026a8:	e076      	b.n	8002798 <HAL_TIM_PWM_ConfigChannel+0x120>
 80026aa:	687b      	ldr	r3, [r7, #4]
 80026ac:	2b0c      	cmp	r3, #12
 80026ae:	d900      	bls.n	80026b2 <HAL_TIM_PWM_ConfigChannel+0x3a>
 80026b0:	e095      	b.n	80027de <HAL_TIM_PWM_ConfigChannel+0x166>
 80026b2:	687b      	ldr	r3, [r7, #4]
 80026b4:	2b08      	cmp	r3, #8
 80026b6:	d04e      	beq.n	8002756 <HAL_TIM_PWM_ConfigChannel+0xde>
 80026b8:	687b      	ldr	r3, [r7, #4]
 80026ba:	2b08      	cmp	r3, #8
 80026bc:	d900      	bls.n	80026c0 <HAL_TIM_PWM_ConfigChannel+0x48>
 80026be:	e08e      	b.n	80027de <HAL_TIM_PWM_ConfigChannel+0x166>
 80026c0:	687b      	ldr	r3, [r7, #4]
 80026c2:	2b00      	cmp	r3, #0
 80026c4:	d003      	beq.n	80026ce <HAL_TIM_PWM_ConfigChannel+0x56>
 80026c6:	687b      	ldr	r3, [r7, #4]
 80026c8:	2b04      	cmp	r3, #4
 80026ca:	d021      	beq.n	8002710 <HAL_TIM_PWM_ConfigChannel+0x98>
 80026cc:	e087      	b.n	80027de <HAL_TIM_PWM_ConfigChannel+0x166>
 80026ce:	68fb      	ldr	r3, [r7, #12]
 80026d0:	681b      	ldr	r3, [r3, #0]
 80026d2:	68ba      	ldr	r2, [r7, #8]
 80026d4:	0011      	movs	r1, r2
 80026d6:	0018      	movs	r0, r3
 80026d8:	f000 f9e8 	bl	8002aac <TIM_OC1_SetConfig>
 80026dc:	68fb      	ldr	r3, [r7, #12]
 80026de:	681b      	ldr	r3, [r3, #0]
 80026e0:	699a      	ldr	r2, [r3, #24]
 80026e2:	68fb      	ldr	r3, [r7, #12]
 80026e4:	681b      	ldr	r3, [r3, #0]
 80026e6:	2108      	movs	r1, #8
 80026e8:	430a      	orrs	r2, r1
 80026ea:	619a      	str	r2, [r3, #24]
 80026ec:	68fb      	ldr	r3, [r7, #12]
 80026ee:	681b      	ldr	r3, [r3, #0]
 80026f0:	699a      	ldr	r2, [r3, #24]
 80026f2:	68fb      	ldr	r3, [r7, #12]
 80026f4:	681b      	ldr	r3, [r3, #0]
 80026f6:	2104      	movs	r1, #4
 80026f8:	438a      	bics	r2, r1
 80026fa:	619a      	str	r2, [r3, #24]
 80026fc:	68fb      	ldr	r3, [r7, #12]
 80026fe:	681b      	ldr	r3, [r3, #0]
 8002700:	6999      	ldr	r1, [r3, #24]
 8002702:	68bb      	ldr	r3, [r7, #8]
 8002704:	691a      	ldr	r2, [r3, #16]
 8002706:	68fb      	ldr	r3, [r7, #12]
 8002708:	681b      	ldr	r3, [r3, #0]
 800270a:	430a      	orrs	r2, r1
 800270c:	619a      	str	r2, [r3, #24]
 800270e:	e06b      	b.n	80027e8 <HAL_TIM_PWM_ConfigChannel+0x170>
 8002710:	68fb      	ldr	r3, [r7, #12]
 8002712:	681b      	ldr	r3, [r3, #0]
 8002714:	68ba      	ldr	r2, [r7, #8]
 8002716:	0011      	movs	r1, r2
 8002718:	0018      	movs	r0, r3
 800271a:	f000 fa4f 	bl	8002bbc <TIM_OC2_SetConfig>
 800271e:	68fb      	ldr	r3, [r7, #12]
 8002720:	681b      	ldr	r3, [r3, #0]
 8002722:	699a      	ldr	r2, [r3, #24]
 8002724:	68fb      	ldr	r3, [r7, #12]
 8002726:	681b      	ldr	r3, [r3, #0]
 8002728:	2180      	movs	r1, #128	; 0x80
 800272a:	0109      	lsls	r1, r1, #4
 800272c:	430a      	orrs	r2, r1
 800272e:	619a      	str	r2, [r3, #24]
 8002730:	68fb      	ldr	r3, [r7, #12]
 8002732:	681b      	ldr	r3, [r3, #0]
 8002734:	699a      	ldr	r2, [r3, #24]
 8002736:	68fb      	ldr	r3, [r7, #12]
 8002738:	681b      	ldr	r3, [r3, #0]
 800273a:	4931      	ldr	r1, [pc, #196]	; (8002800 <HAL_TIM_PWM_ConfigChannel+0x188>)
 800273c:	400a      	ands	r2, r1
 800273e:	619a      	str	r2, [r3, #24]
 8002740:	68fb      	ldr	r3, [r7, #12]
 8002742:	681b      	ldr	r3, [r3, #0]
 8002744:	6999      	ldr	r1, [r3, #24]
 8002746:	68bb      	ldr	r3, [r7, #8]
 8002748:	691b      	ldr	r3, [r3, #16]
 800274a:	021a      	lsls	r2, r3, #8
 800274c:	68fb      	ldr	r3, [r7, #12]
 800274e:	681b      	ldr	r3, [r3, #0]
 8002750:	430a      	orrs	r2, r1
 8002752:	619a      	str	r2, [r3, #24]
 8002754:	e048      	b.n	80027e8 <HAL_TIM_PWM_ConfigChannel+0x170>
 8002756:	68fb      	ldr	r3, [r7, #12]
 8002758:	681b      	ldr	r3, [r3, #0]
 800275a:	68ba      	ldr	r2, [r7, #8]
 800275c:	0011      	movs	r1, r2
 800275e:	0018      	movs	r0, r3
 8002760:	f000 fab0 	bl	8002cc4 <TIM_OC3_SetConfig>
 8002764:	68fb      	ldr	r3, [r7, #12]
 8002766:	681b      	ldr	r3, [r3, #0]
 8002768:	69da      	ldr	r2, [r3, #28]
 800276a:	68fb      	ldr	r3, [r7, #12]
 800276c:	681b      	ldr	r3, [r3, #0]
 800276e:	2108      	movs	r1, #8
 8002770:	430a      	orrs	r2, r1
 8002772:	61da      	str	r2, [r3, #28]
 8002774:	68fb      	ldr	r3, [r7, #12]
 8002776:	681b      	ldr	r3, [r3, #0]
 8002778:	69da      	ldr	r2, [r3, #28]
 800277a:	68fb      	ldr	r3, [r7, #12]
 800277c:	681b      	ldr	r3, [r3, #0]
 800277e:	2104      	movs	r1, #4
 8002780:	438a      	bics	r2, r1
 8002782:	61da      	str	r2, [r3, #28]
 8002784:	68fb      	ldr	r3, [r7, #12]
 8002786:	681b      	ldr	r3, [r3, #0]
 8002788:	69d9      	ldr	r1, [r3, #28]
 800278a:	68bb      	ldr	r3, [r7, #8]
 800278c:	691a      	ldr	r2, [r3, #16]
 800278e:	68fb      	ldr	r3, [r7, #12]
 8002790:	681b      	ldr	r3, [r3, #0]
 8002792:	430a      	orrs	r2, r1
 8002794:	61da      	str	r2, [r3, #28]
 8002796:	e027      	b.n	80027e8 <HAL_TIM_PWM_ConfigChannel+0x170>
 8002798:	68fb      	ldr	r3, [r7, #12]
 800279a:	681b      	ldr	r3, [r3, #0]
 800279c:	68ba      	ldr	r2, [r7, #8]
 800279e:	0011      	movs	r1, r2
 80027a0:	0018      	movs	r0, r3
 80027a2:	f000 fb15 	bl	8002dd0 <TIM_OC4_SetConfig>
 80027a6:	68fb      	ldr	r3, [r7, #12]
 80027a8:	681b      	ldr	r3, [r3, #0]
 80027aa:	69da      	ldr	r2, [r3, #28]
 80027ac:	68fb      	ldr	r3, [r7, #12]
 80027ae:	681b      	ldr	r3, [r3, #0]
 80027b0:	2180      	movs	r1, #128	; 0x80
 80027b2:	0109      	lsls	r1, r1, #4
 80027b4:	430a      	orrs	r2, r1
 80027b6:	61da      	str	r2, [r3, #28]
 80027b8:	68fb      	ldr	r3, [r7, #12]
 80027ba:	681b      	ldr	r3, [r3, #0]
 80027bc:	69da      	ldr	r2, [r3, #28]
 80027be:	68fb      	ldr	r3, [r7, #12]
 80027c0:	681b      	ldr	r3, [r3, #0]
 80027c2:	490f      	ldr	r1, [pc, #60]	; (8002800 <HAL_TIM_PWM_ConfigChannel+0x188>)
 80027c4:	400a      	ands	r2, r1
 80027c6:	61da      	str	r2, [r3, #28]
 80027c8:	68fb      	ldr	r3, [r7, #12]
 80027ca:	681b      	ldr	r3, [r3, #0]
 80027cc:	69d9      	ldr	r1, [r3, #28]
 80027ce:	68bb      	ldr	r3, [r7, #8]
 80027d0:	691b      	ldr	r3, [r3, #16]
 80027d2:	021a      	lsls	r2, r3, #8
 80027d4:	68fb      	ldr	r3, [r7, #12]
 80027d6:	681b      	ldr	r3, [r3, #0]
 80027d8:	430a      	orrs	r2, r1
 80027da:	61da      	str	r2, [r3, #28]
 80027dc:	e004      	b.n	80027e8 <HAL_TIM_PWM_ConfigChannel+0x170>
 80027de:	2317      	movs	r3, #23
 80027e0:	18fb      	adds	r3, r7, r3
 80027e2:	2201      	movs	r2, #1
 80027e4:	701a      	strb	r2, [r3, #0]
 80027e6:	46c0      	nop			; (mov r8, r8)
 80027e8:	68fb      	ldr	r3, [r7, #12]
 80027ea:	223c      	movs	r2, #60	; 0x3c
 80027ec:	2100      	movs	r1, #0
 80027ee:	5499      	strb	r1, [r3, r2]
 80027f0:	2317      	movs	r3, #23
 80027f2:	18fb      	adds	r3, r7, r3
 80027f4:	781b      	ldrb	r3, [r3, #0]
 80027f6:	0018      	movs	r0, r3
 80027f8:	46bd      	mov	sp, r7
 80027fa:	b006      	add	sp, #24
 80027fc:	bd80      	pop	{r7, pc}
 80027fe:	46c0      	nop			; (mov r8, r8)
 8002800:	fffffbff 	.word	0xfffffbff

08002804 <HAL_TIM_ConfigClockSource>:
 8002804:	b580      	push	{r7, lr}
 8002806:	b084      	sub	sp, #16
 8002808:	af00      	add	r7, sp, #0
 800280a:	6078      	str	r0, [r7, #4]
 800280c:	6039      	str	r1, [r7, #0]
 800280e:	230f      	movs	r3, #15
 8002810:	18fb      	adds	r3, r7, r3
 8002812:	2200      	movs	r2, #0
 8002814:	701a      	strb	r2, [r3, #0]
 8002816:	687b      	ldr	r3, [r7, #4]
 8002818:	223c      	movs	r2, #60	; 0x3c
 800281a:	5c9b      	ldrb	r3, [r3, r2]
 800281c:	2b01      	cmp	r3, #1
 800281e:	d101      	bne.n	8002824 <HAL_TIM_ConfigClockSource+0x20>
 8002820:	2302      	movs	r3, #2
 8002822:	e0bc      	b.n	800299e <HAL_TIM_ConfigClockSource+0x19a>
 8002824:	687b      	ldr	r3, [r7, #4]
 8002826:	223c      	movs	r2, #60	; 0x3c
 8002828:	2101      	movs	r1, #1
 800282a:	5499      	strb	r1, [r3, r2]
 800282c:	687b      	ldr	r3, [r7, #4]
 800282e:	223d      	movs	r2, #61	; 0x3d
 8002830:	2102      	movs	r1, #2
 8002832:	5499      	strb	r1, [r3, r2]
 8002834:	687b      	ldr	r3, [r7, #4]
 8002836:	681b      	ldr	r3, [r3, #0]
 8002838:	689b      	ldr	r3, [r3, #8]
 800283a:	60bb      	str	r3, [r7, #8]
 800283c:	68bb      	ldr	r3, [r7, #8]
 800283e:	2277      	movs	r2, #119	; 0x77
 8002840:	4393      	bics	r3, r2
 8002842:	60bb      	str	r3, [r7, #8]
 8002844:	68bb      	ldr	r3, [r7, #8]
 8002846:	4a58      	ldr	r2, [pc, #352]	; (80029a8 <HAL_TIM_ConfigClockSource+0x1a4>)
 8002848:	4013      	ands	r3, r2
 800284a:	60bb      	str	r3, [r7, #8]
 800284c:	687b      	ldr	r3, [r7, #4]
 800284e:	681b      	ldr	r3, [r3, #0]
 8002850:	68ba      	ldr	r2, [r7, #8]
 8002852:	609a      	str	r2, [r3, #8]
 8002854:	683b      	ldr	r3, [r7, #0]
 8002856:	681b      	ldr	r3, [r3, #0]
 8002858:	2280      	movs	r2, #128	; 0x80
 800285a:	0192      	lsls	r2, r2, #6
 800285c:	4293      	cmp	r3, r2
 800285e:	d040      	beq.n	80028e2 <HAL_TIM_ConfigClockSource+0xde>
 8002860:	2280      	movs	r2, #128	; 0x80
 8002862:	0192      	lsls	r2, r2, #6
 8002864:	4293      	cmp	r3, r2
 8002866:	d900      	bls.n	800286a <HAL_TIM_ConfigClockSource+0x66>
 8002868:	e088      	b.n	800297c <HAL_TIM_ConfigClockSource+0x178>
 800286a:	2280      	movs	r2, #128	; 0x80
 800286c:	0152      	lsls	r2, r2, #5
 800286e:	4293      	cmp	r3, r2
 8002870:	d100      	bne.n	8002874 <HAL_TIM_ConfigClockSource+0x70>
 8002872:	e088      	b.n	8002986 <HAL_TIM_ConfigClockSource+0x182>
 8002874:	2280      	movs	r2, #128	; 0x80
 8002876:	0152      	lsls	r2, r2, #5
 8002878:	4293      	cmp	r3, r2
 800287a:	d900      	bls.n	800287e <HAL_TIM_ConfigClockSource+0x7a>
 800287c:	e07e      	b.n	800297c <HAL_TIM_ConfigClockSource+0x178>
 800287e:	2b70      	cmp	r3, #112	; 0x70
 8002880:	d018      	beq.n	80028b4 <HAL_TIM_ConfigClockSource+0xb0>
 8002882:	d900      	bls.n	8002886 <HAL_TIM_ConfigClockSource+0x82>
 8002884:	e07a      	b.n	800297c <HAL_TIM_ConfigClockSource+0x178>
 8002886:	2b60      	cmp	r3, #96	; 0x60
 8002888:	d04f      	beq.n	800292a <HAL_TIM_ConfigClockSource+0x126>
 800288a:	d900      	bls.n	800288e <HAL_TIM_ConfigClockSource+0x8a>
 800288c:	e076      	b.n	800297c <HAL_TIM_ConfigClockSource+0x178>
 800288e:	2b50      	cmp	r3, #80	; 0x50
 8002890:	d03b      	beq.n	800290a <HAL_TIM_ConfigClockSource+0x106>
 8002892:	d900      	bls.n	8002896 <HAL_TIM_ConfigClockSource+0x92>
 8002894:	e072      	b.n	800297c <HAL_TIM_ConfigClockSource+0x178>
 8002896:	2b40      	cmp	r3, #64	; 0x40
 8002898:	d057      	beq.n	800294a <HAL_TIM_ConfigClockSource+0x146>
 800289a:	d900      	bls.n	800289e <HAL_TIM_ConfigClockSource+0x9a>
 800289c:	e06e      	b.n	800297c <HAL_TIM_ConfigClockSource+0x178>
 800289e:	2b30      	cmp	r3, #48	; 0x30
 80028a0:	d063      	beq.n	800296a <HAL_TIM_ConfigClockSource+0x166>
 80028a2:	d86b      	bhi.n	800297c <HAL_TIM_ConfigClockSource+0x178>
 80028a4:	2b20      	cmp	r3, #32
 80028a6:	d060      	beq.n	800296a <HAL_TIM_ConfigClockSource+0x166>
 80028a8:	d868      	bhi.n	800297c <HAL_TIM_ConfigClockSource+0x178>
 80028aa:	2b00      	cmp	r3, #0
 80028ac:	d05d      	beq.n	800296a <HAL_TIM_ConfigClockSource+0x166>
 80028ae:	2b10      	cmp	r3, #16
 80028b0:	d05b      	beq.n	800296a <HAL_TIM_ConfigClockSource+0x166>
 80028b2:	e063      	b.n	800297c <HAL_TIM_ConfigClockSource+0x178>
 80028b4:	687b      	ldr	r3, [r7, #4]
 80028b6:	6818      	ldr	r0, [r3, #0]
 80028b8:	683b      	ldr	r3, [r7, #0]
 80028ba:	6899      	ldr	r1, [r3, #8]
 80028bc:	683b      	ldr	r3, [r7, #0]
 80028be:	685a      	ldr	r2, [r3, #4]
 80028c0:	683b      	ldr	r3, [r7, #0]
 80028c2:	68db      	ldr	r3, [r3, #12]
 80028c4:	f000 fb68 	bl	8002f98 <TIM_ETR_SetConfig>
 80028c8:	687b      	ldr	r3, [r7, #4]
 80028ca:	681b      	ldr	r3, [r3, #0]
 80028cc:	689b      	ldr	r3, [r3, #8]
 80028ce:	60bb      	str	r3, [r7, #8]
 80028d0:	68bb      	ldr	r3, [r7, #8]
 80028d2:	2277      	movs	r2, #119	; 0x77
 80028d4:	4313      	orrs	r3, r2
 80028d6:	60bb      	str	r3, [r7, #8]
 80028d8:	687b      	ldr	r3, [r7, #4]
 80028da:	681b      	ldr	r3, [r3, #0]
 80028dc:	68ba      	ldr	r2, [r7, #8]
 80028de:	609a      	str	r2, [r3, #8]
 80028e0:	e052      	b.n	8002988 <HAL_TIM_ConfigClockSource+0x184>
 80028e2:	687b      	ldr	r3, [r7, #4]
 80028e4:	6818      	ldr	r0, [r3, #0]
 80028e6:	683b      	ldr	r3, [r7, #0]
 80028e8:	6899      	ldr	r1, [r3, #8]
 80028ea:	683b      	ldr	r3, [r7, #0]
 80028ec:	685a      	ldr	r2, [r3, #4]
 80028ee:	683b      	ldr	r3, [r7, #0]
 80028f0:	68db      	ldr	r3, [r3, #12]
 80028f2:	f000 fb51 	bl	8002f98 <TIM_ETR_SetConfig>
 80028f6:	687b      	ldr	r3, [r7, #4]
 80028f8:	681b      	ldr	r3, [r3, #0]
 80028fa:	689a      	ldr	r2, [r3, #8]
 80028fc:	687b      	ldr	r3, [r7, #4]
 80028fe:	681b      	ldr	r3, [r3, #0]
 8002900:	2180      	movs	r1, #128	; 0x80
 8002902:	01c9      	lsls	r1, r1, #7
 8002904:	430a      	orrs	r2, r1
 8002906:	609a      	str	r2, [r3, #8]
 8002908:	e03e      	b.n	8002988 <HAL_TIM_ConfigClockSource+0x184>
 800290a:	687b      	ldr	r3, [r7, #4]
 800290c:	6818      	ldr	r0, [r3, #0]
 800290e:	683b      	ldr	r3, [r7, #0]
 8002910:	6859      	ldr	r1, [r3, #4]
 8002912:	683b      	ldr	r3, [r7, #0]
 8002914:	68db      	ldr	r3, [r3, #12]
 8002916:	001a      	movs	r2, r3
 8002918:	f000 fac4 	bl	8002ea4 <TIM_TI1_ConfigInputStage>
 800291c:	687b      	ldr	r3, [r7, #4]
 800291e:	681b      	ldr	r3, [r3, #0]
 8002920:	2150      	movs	r1, #80	; 0x50
 8002922:	0018      	movs	r0, r3
 8002924:	f000 fb1e 	bl	8002f64 <TIM_ITRx_SetConfig>
 8002928:	e02e      	b.n	8002988 <HAL_TIM_ConfigClockSource+0x184>
 800292a:	687b      	ldr	r3, [r7, #4]
 800292c:	6818      	ldr	r0, [r3, #0]
 800292e:	683b      	ldr	r3, [r7, #0]
 8002930:	6859      	ldr	r1, [r3, #4]
 8002932:	683b      	ldr	r3, [r7, #0]
 8002934:	68db      	ldr	r3, [r3, #12]
 8002936:	001a      	movs	r2, r3
 8002938:	f000 fae2 	bl	8002f00 <TIM_TI2_ConfigInputStage>
 800293c:	687b      	ldr	r3, [r7, #4]
 800293e:	681b      	ldr	r3, [r3, #0]
 8002940:	2160      	movs	r1, #96	; 0x60
 8002942:	0018      	movs	r0, r3
 8002944:	f000 fb0e 	bl	8002f64 <TIM_ITRx_SetConfig>
 8002948:	e01e      	b.n	8002988 <HAL_TIM_ConfigClockSource+0x184>
 800294a:	687b      	ldr	r3, [r7, #4]
 800294c:	6818      	ldr	r0, [r3, #0]
 800294e:	683b      	ldr	r3, [r7, #0]
 8002950:	6859      	ldr	r1, [r3, #4]
 8002952:	683b      	ldr	r3, [r7, #0]
 8002954:	68db      	ldr	r3, [r3, #12]
 8002956:	001a      	movs	r2, r3
 8002958:	f000 faa4 	bl	8002ea4 <TIM_TI1_ConfigInputStage>
 800295c:	687b      	ldr	r3, [r7, #4]
 800295e:	681b      	ldr	r3, [r3, #0]
 8002960:	2140      	movs	r1, #64	; 0x40
 8002962:	0018      	movs	r0, r3
 8002964:	f000 fafe 	bl	8002f64 <TIM_ITRx_SetConfig>
 8002968:	e00e      	b.n	8002988 <HAL_TIM_ConfigClockSource+0x184>
 800296a:	687b      	ldr	r3, [r7, #4]
 800296c:	681a      	ldr	r2, [r3, #0]
 800296e:	683b      	ldr	r3, [r7, #0]
 8002970:	681b      	ldr	r3, [r3, #0]
 8002972:	0019      	movs	r1, r3
 8002974:	0010      	movs	r0, r2
 8002976:	f000 faf5 	bl	8002f64 <TIM_ITRx_SetConfig>
 800297a:	e005      	b.n	8002988 <HAL_TIM_ConfigClockSource+0x184>
 800297c:	230f      	movs	r3, #15
 800297e:	18fb      	adds	r3, r7, r3
 8002980:	2201      	movs	r2, #1
 8002982:	701a      	strb	r2, [r3, #0]
 8002984:	e000      	b.n	8002988 <HAL_TIM_ConfigClockSource+0x184>
 8002986:	46c0      	nop			; (mov r8, r8)
 8002988:	687b      	ldr	r3, [r7, #4]
 800298a:	223d      	movs	r2, #61	; 0x3d
 800298c:	2101      	movs	r1, #1
 800298e:	5499      	strb	r1, [r3, r2]
 8002990:	687b      	ldr	r3, [r7, #4]
 8002992:	223c      	movs	r2, #60	; 0x3c
 8002994:	2100      	movs	r1, #0
 8002996:	5499      	strb	r1, [r3, r2]
 8002998:	230f      	movs	r3, #15
 800299a:	18fb      	adds	r3, r7, r3
 800299c:	781b      	ldrb	r3, [r3, #0]
 800299e:	0018      	movs	r0, r3
 80029a0:	46bd      	mov	sp, r7
 80029a2:	b004      	add	sp, #16
 80029a4:	bd80      	pop	{r7, pc}
 80029a6:	46c0      	nop			; (mov r8, r8)
 80029a8:	ffff00ff 	.word	0xffff00ff

080029ac <TIM_Base_SetConfig>:
 80029ac:	b580      	push	{r7, lr}
 80029ae:	b084      	sub	sp, #16
 80029b0:	af00      	add	r7, sp, #0
 80029b2:	6078      	str	r0, [r7, #4]
 80029b4:	6039      	str	r1, [r7, #0]
 80029b6:	687b      	ldr	r3, [r7, #4]
 80029b8:	681b      	ldr	r3, [r3, #0]
 80029ba:	60fb      	str	r3, [r7, #12]
 80029bc:	687b      	ldr	r3, [r7, #4]
 80029be:	4a34      	ldr	r2, [pc, #208]	; (8002a90 <TIM_Base_SetConfig+0xe4>)
 80029c0:	4293      	cmp	r3, r2
 80029c2:	d008      	beq.n	80029d6 <TIM_Base_SetConfig+0x2a>
 80029c4:	687a      	ldr	r2, [r7, #4]
 80029c6:	2380      	movs	r3, #128	; 0x80
 80029c8:	05db      	lsls	r3, r3, #23
 80029ca:	429a      	cmp	r2, r3
 80029cc:	d003      	beq.n	80029d6 <TIM_Base_SetConfig+0x2a>
 80029ce:	687b      	ldr	r3, [r7, #4]
 80029d0:	4a30      	ldr	r2, [pc, #192]	; (8002a94 <TIM_Base_SetConfig+0xe8>)
 80029d2:	4293      	cmp	r3, r2
 80029d4:	d108      	bne.n	80029e8 <TIM_Base_SetConfig+0x3c>
 80029d6:	68fb      	ldr	r3, [r7, #12]
 80029d8:	2270      	movs	r2, #112	; 0x70
 80029da:	4393      	bics	r3, r2
 80029dc:	60fb      	str	r3, [r7, #12]
 80029de:	683b      	ldr	r3, [r7, #0]
 80029e0:	685b      	ldr	r3, [r3, #4]
 80029e2:	68fa      	ldr	r2, [r7, #12]
 80029e4:	4313      	orrs	r3, r2
 80029e6:	60fb      	str	r3, [r7, #12]
 80029e8:	687b      	ldr	r3, [r7, #4]
 80029ea:	4a29      	ldr	r2, [pc, #164]	; (8002a90 <TIM_Base_SetConfig+0xe4>)
 80029ec:	4293      	cmp	r3, r2
 80029ee:	d018      	beq.n	8002a22 <TIM_Base_SetConfig+0x76>
 80029f0:	687a      	ldr	r2, [r7, #4]
 80029f2:	2380      	movs	r3, #128	; 0x80
 80029f4:	05db      	lsls	r3, r3, #23
 80029f6:	429a      	cmp	r2, r3
 80029f8:	d013      	beq.n	8002a22 <TIM_Base_SetConfig+0x76>
 80029fa:	687b      	ldr	r3, [r7, #4]
 80029fc:	4a25      	ldr	r2, [pc, #148]	; (8002a94 <TIM_Base_SetConfig+0xe8>)
 80029fe:	4293      	cmp	r3, r2
 8002a00:	d00f      	beq.n	8002a22 <TIM_Base_SetConfig+0x76>
 8002a02:	687b      	ldr	r3, [r7, #4]
 8002a04:	4a24      	ldr	r2, [pc, #144]	; (8002a98 <TIM_Base_SetConfig+0xec>)
 8002a06:	4293      	cmp	r3, r2
 8002a08:	d00b      	beq.n	8002a22 <TIM_Base_SetConfig+0x76>
 8002a0a:	687b      	ldr	r3, [r7, #4]
 8002a0c:	4a23      	ldr	r2, [pc, #140]	; (8002a9c <TIM_Base_SetConfig+0xf0>)
 8002a0e:	4293      	cmp	r3, r2
 8002a10:	d007      	beq.n	8002a22 <TIM_Base_SetConfig+0x76>
 8002a12:	687b      	ldr	r3, [r7, #4]
 8002a14:	4a22      	ldr	r2, [pc, #136]	; (8002aa0 <TIM_Base_SetConfig+0xf4>)
 8002a16:	4293      	cmp	r3, r2
 8002a18:	d003      	beq.n	8002a22 <TIM_Base_SetConfig+0x76>
 8002a1a:	687b      	ldr	r3, [r7, #4]
 8002a1c:	4a21      	ldr	r2, [pc, #132]	; (8002aa4 <TIM_Base_SetConfig+0xf8>)
 8002a1e:	4293      	cmp	r3, r2
 8002a20:	d108      	bne.n	8002a34 <TIM_Base_SetConfig+0x88>
 8002a22:	68fb      	ldr	r3, [r7, #12]
 8002a24:	4a20      	ldr	r2, [pc, #128]	; (8002aa8 <TIM_Base_SetConfig+0xfc>)
 8002a26:	4013      	ands	r3, r2
 8002a28:	60fb      	str	r3, [r7, #12]
 8002a2a:	683b      	ldr	r3, [r7, #0]
 8002a2c:	68db      	ldr	r3, [r3, #12]
 8002a2e:	68fa      	ldr	r2, [r7, #12]
 8002a30:	4313      	orrs	r3, r2
 8002a32:	60fb      	str	r3, [r7, #12]
 8002a34:	68fb      	ldr	r3, [r7, #12]
 8002a36:	2280      	movs	r2, #128	; 0x80
 8002a38:	4393      	bics	r3, r2
 8002a3a:	001a      	movs	r2, r3
 8002a3c:	683b      	ldr	r3, [r7, #0]
 8002a3e:	695b      	ldr	r3, [r3, #20]
 8002a40:	4313      	orrs	r3, r2
 8002a42:	60fb      	str	r3, [r7, #12]
 8002a44:	687b      	ldr	r3, [r7, #4]
 8002a46:	68fa      	ldr	r2, [r7, #12]
 8002a48:	601a      	str	r2, [r3, #0]
 8002a4a:	683b      	ldr	r3, [r7, #0]
 8002a4c:	689a      	ldr	r2, [r3, #8]
 8002a4e:	687b      	ldr	r3, [r7, #4]
 8002a50:	62da      	str	r2, [r3, #44]	; 0x2c
 8002a52:	683b      	ldr	r3, [r7, #0]
 8002a54:	681a      	ldr	r2, [r3, #0]
 8002a56:	687b      	ldr	r3, [r7, #4]
 8002a58:	629a      	str	r2, [r3, #40]	; 0x28
 8002a5a:	687b      	ldr	r3, [r7, #4]
 8002a5c:	4a0c      	ldr	r2, [pc, #48]	; (8002a90 <TIM_Base_SetConfig+0xe4>)
 8002a5e:	4293      	cmp	r3, r2
 8002a60:	d00b      	beq.n	8002a7a <TIM_Base_SetConfig+0xce>
 8002a62:	687b      	ldr	r3, [r7, #4]
 8002a64:	4a0d      	ldr	r2, [pc, #52]	; (8002a9c <TIM_Base_SetConfig+0xf0>)
 8002a66:	4293      	cmp	r3, r2
 8002a68:	d007      	beq.n	8002a7a <TIM_Base_SetConfig+0xce>
 8002a6a:	687b      	ldr	r3, [r7, #4]
 8002a6c:	4a0c      	ldr	r2, [pc, #48]	; (8002aa0 <TIM_Base_SetConfig+0xf4>)
 8002a6e:	4293      	cmp	r3, r2
 8002a70:	d003      	beq.n	8002a7a <TIM_Base_SetConfig+0xce>
 8002a72:	687b      	ldr	r3, [r7, #4]
 8002a74:	4a0b      	ldr	r2, [pc, #44]	; (8002aa4 <TIM_Base_SetConfig+0xf8>)
 8002a76:	4293      	cmp	r3, r2
 8002a78:	d103      	bne.n	8002a82 <TIM_Base_SetConfig+0xd6>
 8002a7a:	683b      	ldr	r3, [r7, #0]
 8002a7c:	691a      	ldr	r2, [r3, #16]
 8002a7e:	687b      	ldr	r3, [r7, #4]
 8002a80:	631a      	str	r2, [r3, #48]	; 0x30
 8002a82:	687b      	ldr	r3, [r7, #4]
 8002a84:	2201      	movs	r2, #1
 8002a86:	615a      	str	r2, [r3, #20]
 8002a88:	46c0      	nop			; (mov r8, r8)
 8002a8a:	46bd      	mov	sp, r7
 8002a8c:	b004      	add	sp, #16
 8002a8e:	bd80      	pop	{r7, pc}
 8002a90:	40012c00 	.word	0x40012c00
 8002a94:	40000400 	.word	0x40000400
 8002a98:	40002000 	.word	0x40002000
 8002a9c:	40014000 	.word	0x40014000
 8002aa0:	40014400 	.word	0x40014400
 8002aa4:	40014800 	.word	0x40014800
 8002aa8:	fffffcff 	.word	0xfffffcff

08002aac <TIM_OC1_SetConfig>:
 8002aac:	b580      	push	{r7, lr}
 8002aae:	b086      	sub	sp, #24
 8002ab0:	af00      	add	r7, sp, #0
 8002ab2:	6078      	str	r0, [r7, #4]
 8002ab4:	6039      	str	r1, [r7, #0]
 8002ab6:	687b      	ldr	r3, [r7, #4]
 8002ab8:	6a1b      	ldr	r3, [r3, #32]
 8002aba:	2201      	movs	r2, #1
 8002abc:	4393      	bics	r3, r2
 8002abe:	001a      	movs	r2, r3
 8002ac0:	687b      	ldr	r3, [r7, #4]
 8002ac2:	621a      	str	r2, [r3, #32]
 8002ac4:	687b      	ldr	r3, [r7, #4]
 8002ac6:	6a1b      	ldr	r3, [r3, #32]
 8002ac8:	617b      	str	r3, [r7, #20]
 8002aca:	687b      	ldr	r3, [r7, #4]
 8002acc:	685b      	ldr	r3, [r3, #4]
 8002ace:	613b      	str	r3, [r7, #16]
 8002ad0:	687b      	ldr	r3, [r7, #4]
 8002ad2:	699b      	ldr	r3, [r3, #24]
 8002ad4:	60fb      	str	r3, [r7, #12]
 8002ad6:	68fb      	ldr	r3, [r7, #12]
 8002ad8:	2270      	movs	r2, #112	; 0x70
 8002ada:	4393      	bics	r3, r2
 8002adc:	60fb      	str	r3, [r7, #12]
 8002ade:	68fb      	ldr	r3, [r7, #12]
 8002ae0:	2203      	movs	r2, #3
 8002ae2:	4393      	bics	r3, r2
 8002ae4:	60fb      	str	r3, [r7, #12]
 8002ae6:	683b      	ldr	r3, [r7, #0]
 8002ae8:	681b      	ldr	r3, [r3, #0]
 8002aea:	68fa      	ldr	r2, [r7, #12]
 8002aec:	4313      	orrs	r3, r2
 8002aee:	60fb      	str	r3, [r7, #12]
 8002af0:	697b      	ldr	r3, [r7, #20]
 8002af2:	2202      	movs	r2, #2
 8002af4:	4393      	bics	r3, r2
 8002af6:	617b      	str	r3, [r7, #20]
 8002af8:	683b      	ldr	r3, [r7, #0]
 8002afa:	689b      	ldr	r3, [r3, #8]
 8002afc:	697a      	ldr	r2, [r7, #20]
 8002afe:	4313      	orrs	r3, r2
 8002b00:	617b      	str	r3, [r7, #20]
 8002b02:	687b      	ldr	r3, [r7, #4]
 8002b04:	4a27      	ldr	r2, [pc, #156]	; (8002ba4 <TIM_OC1_SetConfig+0xf8>)
 8002b06:	4293      	cmp	r3, r2
 8002b08:	d00b      	beq.n	8002b22 <TIM_OC1_SetConfig+0x76>
 8002b0a:	687b      	ldr	r3, [r7, #4]
 8002b0c:	4a26      	ldr	r2, [pc, #152]	; (8002ba8 <TIM_OC1_SetConfig+0xfc>)
 8002b0e:	4293      	cmp	r3, r2
 8002b10:	d007      	beq.n	8002b22 <TIM_OC1_SetConfig+0x76>
 8002b12:	687b      	ldr	r3, [r7, #4]
 8002b14:	4a25      	ldr	r2, [pc, #148]	; (8002bac <TIM_OC1_SetConfig+0x100>)
 8002b16:	4293      	cmp	r3, r2
 8002b18:	d003      	beq.n	8002b22 <TIM_OC1_SetConfig+0x76>
 8002b1a:	687b      	ldr	r3, [r7, #4]
 8002b1c:	4a24      	ldr	r2, [pc, #144]	; (8002bb0 <TIM_OC1_SetConfig+0x104>)
 8002b1e:	4293      	cmp	r3, r2
 8002b20:	d10c      	bne.n	8002b3c <TIM_OC1_SetConfig+0x90>
 8002b22:	697b      	ldr	r3, [r7, #20]
 8002b24:	2208      	movs	r2, #8
 8002b26:	4393      	bics	r3, r2
 8002b28:	617b      	str	r3, [r7, #20]
 8002b2a:	683b      	ldr	r3, [r7, #0]
 8002b2c:	68db      	ldr	r3, [r3, #12]
 8002b2e:	697a      	ldr	r2, [r7, #20]
 8002b30:	4313      	orrs	r3, r2
 8002b32:	617b      	str	r3, [r7, #20]
 8002b34:	697b      	ldr	r3, [r7, #20]
 8002b36:	2204      	movs	r2, #4
 8002b38:	4393      	bics	r3, r2
 8002b3a:	617b      	str	r3, [r7, #20]
 8002b3c:	687b      	ldr	r3, [r7, #4]
 8002b3e:	4a19      	ldr	r2, [pc, #100]	; (8002ba4 <TIM_OC1_SetConfig+0xf8>)
 8002b40:	4293      	cmp	r3, r2
 8002b42:	d00b      	beq.n	8002b5c <TIM_OC1_SetConfig+0xb0>
 8002b44:	687b      	ldr	r3, [r7, #4]
 8002b46:	4a18      	ldr	r2, [pc, #96]	; (8002ba8 <TIM_OC1_SetConfig+0xfc>)
 8002b48:	4293      	cmp	r3, r2
 8002b4a:	d007      	beq.n	8002b5c <TIM_OC1_SetConfig+0xb0>
 8002b4c:	687b      	ldr	r3, [r7, #4]
 8002b4e:	4a17      	ldr	r2, [pc, #92]	; (8002bac <TIM_OC1_SetConfig+0x100>)
 8002b50:	4293      	cmp	r3, r2
 8002b52:	d003      	beq.n	8002b5c <TIM_OC1_SetConfig+0xb0>
 8002b54:	687b      	ldr	r3, [r7, #4]
 8002b56:	4a16      	ldr	r2, [pc, #88]	; (8002bb0 <TIM_OC1_SetConfig+0x104>)
 8002b58:	4293      	cmp	r3, r2
 8002b5a:	d111      	bne.n	8002b80 <TIM_OC1_SetConfig+0xd4>
 8002b5c:	693b      	ldr	r3, [r7, #16]
 8002b5e:	4a15      	ldr	r2, [pc, #84]	; (8002bb4 <TIM_OC1_SetConfig+0x108>)
 8002b60:	4013      	ands	r3, r2
 8002b62:	613b      	str	r3, [r7, #16]
 8002b64:	693b      	ldr	r3, [r7, #16]
 8002b66:	4a14      	ldr	r2, [pc, #80]	; (8002bb8 <TIM_OC1_SetConfig+0x10c>)
 8002b68:	4013      	ands	r3, r2
 8002b6a:	613b      	str	r3, [r7, #16]
 8002b6c:	683b      	ldr	r3, [r7, #0]
 8002b6e:	695b      	ldr	r3, [r3, #20]
 8002b70:	693a      	ldr	r2, [r7, #16]
 8002b72:	4313      	orrs	r3, r2
 8002b74:	613b      	str	r3, [r7, #16]
 8002b76:	683b      	ldr	r3, [r7, #0]
 8002b78:	699b      	ldr	r3, [r3, #24]
 8002b7a:	693a      	ldr	r2, [r7, #16]
 8002b7c:	4313      	orrs	r3, r2
 8002b7e:	613b      	str	r3, [r7, #16]
 8002b80:	687b      	ldr	r3, [r7, #4]
 8002b82:	693a      	ldr	r2, [r7, #16]
 8002b84:	605a      	str	r2, [r3, #4]
 8002b86:	687b      	ldr	r3, [r7, #4]
 8002b88:	68fa      	ldr	r2, [r7, #12]
 8002b8a:	619a      	str	r2, [r3, #24]
 8002b8c:	683b      	ldr	r3, [r7, #0]
 8002b8e:	685a      	ldr	r2, [r3, #4]
 8002b90:	687b      	ldr	r3, [r7, #4]
 8002b92:	635a      	str	r2, [r3, #52]	; 0x34
 8002b94:	687b      	ldr	r3, [r7, #4]
 8002b96:	697a      	ldr	r2, [r7, #20]
 8002b98:	621a      	str	r2, [r3, #32]
 8002b9a:	46c0      	nop			; (mov r8, r8)
 8002b9c:	46bd      	mov	sp, r7
 8002b9e:	b006      	add	sp, #24
 8002ba0:	bd80      	pop	{r7, pc}
 8002ba2:	46c0      	nop			; (mov r8, r8)
 8002ba4:	40012c00 	.word	0x40012c00
 8002ba8:	40014000 	.word	0x40014000
 8002bac:	40014400 	.word	0x40014400
 8002bb0:	40014800 	.word	0x40014800
 8002bb4:	fffffeff 	.word	0xfffffeff
 8002bb8:	fffffdff 	.word	0xfffffdff

08002bbc <TIM_OC2_SetConfig>:
 8002bbc:	b580      	push	{r7, lr}
 8002bbe:	b086      	sub	sp, #24
 8002bc0:	af00      	add	r7, sp, #0
 8002bc2:	6078      	str	r0, [r7, #4]
 8002bc4:	6039      	str	r1, [r7, #0]
 8002bc6:	687b      	ldr	r3, [r7, #4]
 8002bc8:	6a1b      	ldr	r3, [r3, #32]
 8002bca:	2210      	movs	r2, #16
 8002bcc:	4393      	bics	r3, r2
 8002bce:	001a      	movs	r2, r3
 8002bd0:	687b      	ldr	r3, [r7, #4]
 8002bd2:	621a      	str	r2, [r3, #32]
 8002bd4:	687b      	ldr	r3, [r7, #4]
 8002bd6:	6a1b      	ldr	r3, [r3, #32]
 8002bd8:	617b      	str	r3, [r7, #20]
 8002bda:	687b      	ldr	r3, [r7, #4]
 8002bdc:	685b      	ldr	r3, [r3, #4]
 8002bde:	613b      	str	r3, [r7, #16]
 8002be0:	687b      	ldr	r3, [r7, #4]
 8002be2:	699b      	ldr	r3, [r3, #24]
 8002be4:	60fb      	str	r3, [r7, #12]
 8002be6:	68fb      	ldr	r3, [r7, #12]
 8002be8:	4a2e      	ldr	r2, [pc, #184]	; (8002ca4 <TIM_OC2_SetConfig+0xe8>)
 8002bea:	4013      	ands	r3, r2
 8002bec:	60fb      	str	r3, [r7, #12]
 8002bee:	68fb      	ldr	r3, [r7, #12]
 8002bf0:	4a2d      	ldr	r2, [pc, #180]	; (8002ca8 <TIM_OC2_SetConfig+0xec>)
 8002bf2:	4013      	ands	r3, r2
 8002bf4:	60fb      	str	r3, [r7, #12]
 8002bf6:	683b      	ldr	r3, [r7, #0]
 8002bf8:	681b      	ldr	r3, [r3, #0]
 8002bfa:	021b      	lsls	r3, r3, #8
 8002bfc:	68fa      	ldr	r2, [r7, #12]
 8002bfe:	4313      	orrs	r3, r2
 8002c00:	60fb      	str	r3, [r7, #12]
 8002c02:	697b      	ldr	r3, [r7, #20]
 8002c04:	2220      	movs	r2, #32
 8002c06:	4393      	bics	r3, r2
 8002c08:	617b      	str	r3, [r7, #20]
 8002c0a:	683b      	ldr	r3, [r7, #0]
 8002c0c:	689b      	ldr	r3, [r3, #8]
 8002c0e:	011b      	lsls	r3, r3, #4
 8002c10:	697a      	ldr	r2, [r7, #20]
 8002c12:	4313      	orrs	r3, r2
 8002c14:	617b      	str	r3, [r7, #20]
 8002c16:	687b      	ldr	r3, [r7, #4]
 8002c18:	4a24      	ldr	r2, [pc, #144]	; (8002cac <TIM_OC2_SetConfig+0xf0>)
 8002c1a:	4293      	cmp	r3, r2
 8002c1c:	d10d      	bne.n	8002c3a <TIM_OC2_SetConfig+0x7e>
 8002c1e:	697b      	ldr	r3, [r7, #20]
 8002c20:	2280      	movs	r2, #128	; 0x80
 8002c22:	4393      	bics	r3, r2
 8002c24:	617b      	str	r3, [r7, #20]
 8002c26:	683b      	ldr	r3, [r7, #0]
 8002c28:	68db      	ldr	r3, [r3, #12]
 8002c2a:	011b      	lsls	r3, r3, #4
 8002c2c:	697a      	ldr	r2, [r7, #20]
 8002c2e:	4313      	orrs	r3, r2
 8002c30:	617b      	str	r3, [r7, #20]
 8002c32:	697b      	ldr	r3, [r7, #20]
 8002c34:	2240      	movs	r2, #64	; 0x40
 8002c36:	4393      	bics	r3, r2
 8002c38:	617b      	str	r3, [r7, #20]
 8002c3a:	687b      	ldr	r3, [r7, #4]
 8002c3c:	4a1b      	ldr	r2, [pc, #108]	; (8002cac <TIM_OC2_SetConfig+0xf0>)
 8002c3e:	4293      	cmp	r3, r2
 8002c40:	d00b      	beq.n	8002c5a <TIM_OC2_SetConfig+0x9e>
 8002c42:	687b      	ldr	r3, [r7, #4]
 8002c44:	4a1a      	ldr	r2, [pc, #104]	; (8002cb0 <TIM_OC2_SetConfig+0xf4>)
 8002c46:	4293      	cmp	r3, r2
 8002c48:	d007      	beq.n	8002c5a <TIM_OC2_SetConfig+0x9e>
 8002c4a:	687b      	ldr	r3, [r7, #4]
 8002c4c:	4a19      	ldr	r2, [pc, #100]	; (8002cb4 <TIM_OC2_SetConfig+0xf8>)
 8002c4e:	4293      	cmp	r3, r2
 8002c50:	d003      	beq.n	8002c5a <TIM_OC2_SetConfig+0x9e>
 8002c52:	687b      	ldr	r3, [r7, #4]
 8002c54:	4a18      	ldr	r2, [pc, #96]	; (8002cb8 <TIM_OC2_SetConfig+0xfc>)
 8002c56:	4293      	cmp	r3, r2
 8002c58:	d113      	bne.n	8002c82 <TIM_OC2_SetConfig+0xc6>
 8002c5a:	693b      	ldr	r3, [r7, #16]
 8002c5c:	4a17      	ldr	r2, [pc, #92]	; (8002cbc <TIM_OC2_SetConfig+0x100>)
 8002c5e:	4013      	ands	r3, r2
 8002c60:	613b      	str	r3, [r7, #16]
 8002c62:	693b      	ldr	r3, [r7, #16]
 8002c64:	4a16      	ldr	r2, [pc, #88]	; (8002cc0 <TIM_OC2_SetConfig+0x104>)
 8002c66:	4013      	ands	r3, r2
 8002c68:	613b      	str	r3, [r7, #16]
 8002c6a:	683b      	ldr	r3, [r7, #0]
 8002c6c:	695b      	ldr	r3, [r3, #20]
 8002c6e:	009b      	lsls	r3, r3, #2
 8002c70:	693a      	ldr	r2, [r7, #16]
 8002c72:	4313      	orrs	r3, r2
 8002c74:	613b      	str	r3, [r7, #16]
 8002c76:	683b      	ldr	r3, [r7, #0]
 8002c78:	699b      	ldr	r3, [r3, #24]
 8002c7a:	009b      	lsls	r3, r3, #2
 8002c7c:	693a      	ldr	r2, [r7, #16]
 8002c7e:	4313      	orrs	r3, r2
 8002c80:	613b      	str	r3, [r7, #16]
 8002c82:	687b      	ldr	r3, [r7, #4]
 8002c84:	693a      	ldr	r2, [r7, #16]
 8002c86:	605a      	str	r2, [r3, #4]
 8002c88:	687b      	ldr	r3, [r7, #4]
 8002c8a:	68fa      	ldr	r2, [r7, #12]
 8002c8c:	619a      	str	r2, [r3, #24]
 8002c8e:	683b      	ldr	r3, [r7, #0]
 8002c90:	685a      	ldr	r2, [r3, #4]
 8002c92:	687b      	ldr	r3, [r7, #4]
 8002c94:	639a      	str	r2, [r3, #56]	; 0x38
 8002c96:	687b      	ldr	r3, [r7, #4]
 8002c98:	697a      	ldr	r2, [r7, #20]
 8002c9a:	621a      	str	r2, [r3, #32]
 8002c9c:	46c0      	nop			; (mov r8, r8)
 8002c9e:	46bd      	mov	sp, r7
 8002ca0:	b006      	add	sp, #24
 8002ca2:	bd80      	pop	{r7, pc}
 8002ca4:	ffff8fff 	.word	0xffff8fff
 8002ca8:	fffffcff 	.word	0xfffffcff
 8002cac:	40012c00 	.word	0x40012c00
 8002cb0:	40014000 	.word	0x40014000
 8002cb4:	40014400 	.word	0x40014400
 8002cb8:	40014800 	.word	0x40014800
 8002cbc:	fffffbff 	.word	0xfffffbff
 8002cc0:	fffff7ff 	.word	0xfffff7ff

08002cc4 <TIM_OC3_SetConfig>:
 8002cc4:	b580      	push	{r7, lr}
 8002cc6:	b086      	sub	sp, #24
 8002cc8:	af00      	add	r7, sp, #0
 8002cca:	6078      	str	r0, [r7, #4]
 8002ccc:	6039      	str	r1, [r7, #0]
 8002cce:	687b      	ldr	r3, [r7, #4]
 8002cd0:	6a1b      	ldr	r3, [r3, #32]
 8002cd2:	4a35      	ldr	r2, [pc, #212]	; (8002da8 <TIM_OC3_SetConfig+0xe4>)
 8002cd4:	401a      	ands	r2, r3
 8002cd6:	687b      	ldr	r3, [r7, #4]
 8002cd8:	621a      	str	r2, [r3, #32]
 8002cda:	687b      	ldr	r3, [r7, #4]
 8002cdc:	6a1b      	ldr	r3, [r3, #32]
 8002cde:	617b      	str	r3, [r7, #20]
 8002ce0:	687b      	ldr	r3, [r7, #4]
 8002ce2:	685b      	ldr	r3, [r3, #4]
 8002ce4:	613b      	str	r3, [r7, #16]
 8002ce6:	687b      	ldr	r3, [r7, #4]
 8002ce8:	69db      	ldr	r3, [r3, #28]
 8002cea:	60fb      	str	r3, [r7, #12]
 8002cec:	68fb      	ldr	r3, [r7, #12]
 8002cee:	2270      	movs	r2, #112	; 0x70
 8002cf0:	4393      	bics	r3, r2
 8002cf2:	60fb      	str	r3, [r7, #12]
 8002cf4:	68fb      	ldr	r3, [r7, #12]
 8002cf6:	2203      	movs	r2, #3
 8002cf8:	4393      	bics	r3, r2
 8002cfa:	60fb      	str	r3, [r7, #12]
 8002cfc:	683b      	ldr	r3, [r7, #0]
 8002cfe:	681b      	ldr	r3, [r3, #0]
 8002d00:	68fa      	ldr	r2, [r7, #12]
 8002d02:	4313      	orrs	r3, r2
 8002d04:	60fb      	str	r3, [r7, #12]
 8002d06:	697b      	ldr	r3, [r7, #20]
 8002d08:	4a28      	ldr	r2, [pc, #160]	; (8002dac <TIM_OC3_SetConfig+0xe8>)
 8002d0a:	4013      	ands	r3, r2
 8002d0c:	617b      	str	r3, [r7, #20]
 8002d0e:	683b      	ldr	r3, [r7, #0]
 8002d10:	689b      	ldr	r3, [r3, #8]
 8002d12:	021b      	lsls	r3, r3, #8
 8002d14:	697a      	ldr	r2, [r7, #20]
 8002d16:	4313      	orrs	r3, r2
 8002d18:	617b      	str	r3, [r7, #20]
 8002d1a:	687b      	ldr	r3, [r7, #4]
 8002d1c:	4a24      	ldr	r2, [pc, #144]	; (8002db0 <TIM_OC3_SetConfig+0xec>)
 8002d1e:	4293      	cmp	r3, r2
 8002d20:	d10d      	bne.n	8002d3e <TIM_OC3_SetConfig+0x7a>
 8002d22:	697b      	ldr	r3, [r7, #20]
 8002d24:	4a23      	ldr	r2, [pc, #140]	; (8002db4 <TIM_OC3_SetConfig+0xf0>)
 8002d26:	4013      	ands	r3, r2
 8002d28:	617b      	str	r3, [r7, #20]
 8002d2a:	683b      	ldr	r3, [r7, #0]
 8002d2c:	68db      	ldr	r3, [r3, #12]
 8002d2e:	021b      	lsls	r3, r3, #8
 8002d30:	697a      	ldr	r2, [r7, #20]
 8002d32:	4313      	orrs	r3, r2
 8002d34:	617b      	str	r3, [r7, #20]
 8002d36:	697b      	ldr	r3, [r7, #20]
 8002d38:	4a1f      	ldr	r2, [pc, #124]	; (8002db8 <TIM_OC3_SetConfig+0xf4>)
 8002d3a:	4013      	ands	r3, r2
 8002d3c:	617b      	str	r3, [r7, #20]
 8002d3e:	687b      	ldr	r3, [r7, #4]
 8002d40:	4a1b      	ldr	r2, [pc, #108]	; (8002db0 <TIM_OC3_SetConfig+0xec>)
 8002d42:	4293      	cmp	r3, r2
 8002d44:	d00b      	beq.n	8002d5e <TIM_OC3_SetConfig+0x9a>
 8002d46:	687b      	ldr	r3, [r7, #4]
 8002d48:	4a1c      	ldr	r2, [pc, #112]	; (8002dbc <TIM_OC3_SetConfig+0xf8>)
 8002d4a:	4293      	cmp	r3, r2
 8002d4c:	d007      	beq.n	8002d5e <TIM_OC3_SetConfig+0x9a>
 8002d4e:	687b      	ldr	r3, [r7, #4]
 8002d50:	4a1b      	ldr	r2, [pc, #108]	; (8002dc0 <TIM_OC3_SetConfig+0xfc>)
 8002d52:	4293      	cmp	r3, r2
 8002d54:	d003      	beq.n	8002d5e <TIM_OC3_SetConfig+0x9a>
 8002d56:	687b      	ldr	r3, [r7, #4]
 8002d58:	4a1a      	ldr	r2, [pc, #104]	; (8002dc4 <TIM_OC3_SetConfig+0x100>)
 8002d5a:	4293      	cmp	r3, r2
 8002d5c:	d113      	bne.n	8002d86 <TIM_OC3_SetConfig+0xc2>
 8002d5e:	693b      	ldr	r3, [r7, #16]
 8002d60:	4a19      	ldr	r2, [pc, #100]	; (8002dc8 <TIM_OC3_SetConfig+0x104>)
 8002d62:	4013      	ands	r3, r2
 8002d64:	613b      	str	r3, [r7, #16]
 8002d66:	693b      	ldr	r3, [r7, #16]
 8002d68:	4a18      	ldr	r2, [pc, #96]	; (8002dcc <TIM_OC3_SetConfig+0x108>)
 8002d6a:	4013      	ands	r3, r2
 8002d6c:	613b      	str	r3, [r7, #16]
 8002d6e:	683b      	ldr	r3, [r7, #0]
 8002d70:	695b      	ldr	r3, [r3, #20]
 8002d72:	011b      	lsls	r3, r3, #4
 8002d74:	693a      	ldr	r2, [r7, #16]
 8002d76:	4313      	orrs	r3, r2
 8002d78:	613b      	str	r3, [r7, #16]
 8002d7a:	683b      	ldr	r3, [r7, #0]
 8002d7c:	699b      	ldr	r3, [r3, #24]
 8002d7e:	011b      	lsls	r3, r3, #4
 8002d80:	693a      	ldr	r2, [r7, #16]
 8002d82:	4313      	orrs	r3, r2
 8002d84:	613b      	str	r3, [r7, #16]
 8002d86:	687b      	ldr	r3, [r7, #4]
 8002d88:	693a      	ldr	r2, [r7, #16]
 8002d8a:	605a      	str	r2, [r3, #4]
 8002d8c:	687b      	ldr	r3, [r7, #4]
 8002d8e:	68fa      	ldr	r2, [r7, #12]
 8002d90:	61da      	str	r2, [r3, #28]
 8002d92:	683b      	ldr	r3, [r7, #0]
 8002d94:	685a      	ldr	r2, [r3, #4]
 8002d96:	687b      	ldr	r3, [r7, #4]
 8002d98:	63da      	str	r2, [r3, #60]	; 0x3c
 8002d9a:	687b      	ldr	r3, [r7, #4]
 8002d9c:	697a      	ldr	r2, [r7, #20]
 8002d9e:	621a      	str	r2, [r3, #32]
 8002da0:	46c0      	nop			; (mov r8, r8)
 8002da2:	46bd      	mov	sp, r7
 8002da4:	b006      	add	sp, #24
 8002da6:	bd80      	pop	{r7, pc}
 8002da8:	fffffeff 	.word	0xfffffeff
 8002dac:	fffffdff 	.word	0xfffffdff
 8002db0:	40012c00 	.word	0x40012c00
 8002db4:	fffff7ff 	.word	0xfffff7ff
 8002db8:	fffffbff 	.word	0xfffffbff
 8002dbc:	40014000 	.word	0x40014000
 8002dc0:	40014400 	.word	0x40014400
 8002dc4:	40014800 	.word	0x40014800
 8002dc8:	ffffefff 	.word	0xffffefff
 8002dcc:	ffffdfff 	.word	0xffffdfff

08002dd0 <TIM_OC4_SetConfig>:
 8002dd0:	b580      	push	{r7, lr}
 8002dd2:	b086      	sub	sp, #24
 8002dd4:	af00      	add	r7, sp, #0
 8002dd6:	6078      	str	r0, [r7, #4]
 8002dd8:	6039      	str	r1, [r7, #0]
 8002dda:	687b      	ldr	r3, [r7, #4]
 8002ddc:	6a1b      	ldr	r3, [r3, #32]
 8002dde:	4a28      	ldr	r2, [pc, #160]	; (8002e80 <TIM_OC4_SetConfig+0xb0>)
 8002de0:	401a      	ands	r2, r3
 8002de2:	687b      	ldr	r3, [r7, #4]
 8002de4:	621a      	str	r2, [r3, #32]
 8002de6:	687b      	ldr	r3, [r7, #4]
 8002de8:	6a1b      	ldr	r3, [r3, #32]
 8002dea:	613b      	str	r3, [r7, #16]
 8002dec:	687b      	ldr	r3, [r7, #4]
 8002dee:	685b      	ldr	r3, [r3, #4]
 8002df0:	617b      	str	r3, [r7, #20]
 8002df2:	687b      	ldr	r3, [r7, #4]
 8002df4:	69db      	ldr	r3, [r3, #28]
 8002df6:	60fb      	str	r3, [r7, #12]
 8002df8:	68fb      	ldr	r3, [r7, #12]
 8002dfa:	4a22      	ldr	r2, [pc, #136]	; (8002e84 <TIM_OC4_SetConfig+0xb4>)
 8002dfc:	4013      	ands	r3, r2
 8002dfe:	60fb      	str	r3, [r7, #12]
 8002e00:	68fb      	ldr	r3, [r7, #12]
 8002e02:	4a21      	ldr	r2, [pc, #132]	; (8002e88 <TIM_OC4_SetConfig+0xb8>)
 8002e04:	4013      	ands	r3, r2
 8002e06:	60fb      	str	r3, [r7, #12]
 8002e08:	683b      	ldr	r3, [r7, #0]
 8002e0a:	681b      	ldr	r3, [r3, #0]
 8002e0c:	021b      	lsls	r3, r3, #8
 8002e0e:	68fa      	ldr	r2, [r7, #12]
 8002e10:	4313      	orrs	r3, r2
 8002e12:	60fb      	str	r3, [r7, #12]
 8002e14:	693b      	ldr	r3, [r7, #16]
 8002e16:	4a1d      	ldr	r2, [pc, #116]	; (8002e8c <TIM_OC4_SetConfig+0xbc>)
 8002e18:	4013      	ands	r3, r2
 8002e1a:	613b      	str	r3, [r7, #16]
 8002e1c:	683b      	ldr	r3, [r7, #0]
 8002e1e:	689b      	ldr	r3, [r3, #8]
 8002e20:	031b      	lsls	r3, r3, #12
 8002e22:	693a      	ldr	r2, [r7, #16]
 8002e24:	4313      	orrs	r3, r2
 8002e26:	613b      	str	r3, [r7, #16]
 8002e28:	687b      	ldr	r3, [r7, #4]
 8002e2a:	4a19      	ldr	r2, [pc, #100]	; (8002e90 <TIM_OC4_SetConfig+0xc0>)
 8002e2c:	4293      	cmp	r3, r2
 8002e2e:	d00b      	beq.n	8002e48 <TIM_OC4_SetConfig+0x78>
 8002e30:	687b      	ldr	r3, [r7, #4]
 8002e32:	4a18      	ldr	r2, [pc, #96]	; (8002e94 <TIM_OC4_SetConfig+0xc4>)
 8002e34:	4293      	cmp	r3, r2
 8002e36:	d007      	beq.n	8002e48 <TIM_OC4_SetConfig+0x78>
 8002e38:	687b      	ldr	r3, [r7, #4]
 8002e3a:	4a17      	ldr	r2, [pc, #92]	; (8002e98 <TIM_OC4_SetConfig+0xc8>)
 8002e3c:	4293      	cmp	r3, r2
 8002e3e:	d003      	beq.n	8002e48 <TIM_OC4_SetConfig+0x78>
 8002e40:	687b      	ldr	r3, [r7, #4]
 8002e42:	4a16      	ldr	r2, [pc, #88]	; (8002e9c <TIM_OC4_SetConfig+0xcc>)
 8002e44:	4293      	cmp	r3, r2
 8002e46:	d109      	bne.n	8002e5c <TIM_OC4_SetConfig+0x8c>
 8002e48:	697b      	ldr	r3, [r7, #20]
 8002e4a:	4a15      	ldr	r2, [pc, #84]	; (8002ea0 <TIM_OC4_SetConfig+0xd0>)
 8002e4c:	4013      	ands	r3, r2
 8002e4e:	617b      	str	r3, [r7, #20]
 8002e50:	683b      	ldr	r3, [r7, #0]
 8002e52:	695b      	ldr	r3, [r3, #20]
 8002e54:	019b      	lsls	r3, r3, #6
 8002e56:	697a      	ldr	r2, [r7, #20]
 8002e58:	4313      	orrs	r3, r2
 8002e5a:	617b      	str	r3, [r7, #20]
 8002e5c:	687b      	ldr	r3, [r7, #4]
 8002e5e:	697a      	ldr	r2, [r7, #20]
 8002e60:	605a      	str	r2, [r3, #4]
 8002e62:	687b      	ldr	r3, [r7, #4]
 8002e64:	68fa      	ldr	r2, [r7, #12]
 8002e66:	61da      	str	r2, [r3, #28]
 8002e68:	683b      	ldr	r3, [r7, #0]
 8002e6a:	685a      	ldr	r2, [r3, #4]
 8002e6c:	687b      	ldr	r3, [r7, #4]
 8002e6e:	641a      	str	r2, [r3, #64]	; 0x40
 8002e70:	687b      	ldr	r3, [r7, #4]
 8002e72:	693a      	ldr	r2, [r7, #16]
 8002e74:	621a      	str	r2, [r3, #32]
 8002e76:	46c0      	nop			; (mov r8, r8)
 8002e78:	46bd      	mov	sp, r7
 8002e7a:	b006      	add	sp, #24
 8002e7c:	bd80      	pop	{r7, pc}
 8002e7e:	46c0      	nop			; (mov r8, r8)
 8002e80:	ffffefff 	.word	0xffffefff
 8002e84:	ffff8fff 	.word	0xffff8fff
 8002e88:	fffffcff 	.word	0xfffffcff
 8002e8c:	ffffdfff 	.word	0xffffdfff
 8002e90:	40012c00 	.word	0x40012c00
 8002e94:	40014000 	.word	0x40014000
 8002e98:	40014400 	.word	0x40014400
 8002e9c:	40014800 	.word	0x40014800
 8002ea0:	ffffbfff 	.word	0xffffbfff

08002ea4 <TIM_TI1_ConfigInputStage>:
 8002ea4:	b580      	push	{r7, lr}
 8002ea6:	b086      	sub	sp, #24
 8002ea8:	af00      	add	r7, sp, #0
 8002eaa:	60f8      	str	r0, [r7, #12]
 8002eac:	60b9      	str	r1, [r7, #8]
 8002eae:	607a      	str	r2, [r7, #4]
 8002eb0:	68fb      	ldr	r3, [r7, #12]
 8002eb2:	6a1b      	ldr	r3, [r3, #32]
 8002eb4:	617b      	str	r3, [r7, #20]
 8002eb6:	68fb      	ldr	r3, [r7, #12]
 8002eb8:	6a1b      	ldr	r3, [r3, #32]
 8002eba:	2201      	movs	r2, #1
 8002ebc:	4393      	bics	r3, r2
 8002ebe:	001a      	movs	r2, r3
 8002ec0:	68fb      	ldr	r3, [r7, #12]
 8002ec2:	621a      	str	r2, [r3, #32]
 8002ec4:	68fb      	ldr	r3, [r7, #12]
 8002ec6:	699b      	ldr	r3, [r3, #24]
 8002ec8:	613b      	str	r3, [r7, #16]
 8002eca:	693b      	ldr	r3, [r7, #16]
 8002ecc:	22f0      	movs	r2, #240	; 0xf0
 8002ece:	4393      	bics	r3, r2
 8002ed0:	613b      	str	r3, [r7, #16]
 8002ed2:	687b      	ldr	r3, [r7, #4]
 8002ed4:	011b      	lsls	r3, r3, #4
 8002ed6:	693a      	ldr	r2, [r7, #16]
 8002ed8:	4313      	orrs	r3, r2
 8002eda:	613b      	str	r3, [r7, #16]
 8002edc:	697b      	ldr	r3, [r7, #20]
 8002ede:	220a      	movs	r2, #10
 8002ee0:	4393      	bics	r3, r2
 8002ee2:	617b      	str	r3, [r7, #20]
 8002ee4:	697a      	ldr	r2, [r7, #20]
 8002ee6:	68bb      	ldr	r3, [r7, #8]
 8002ee8:	4313      	orrs	r3, r2
 8002eea:	617b      	str	r3, [r7, #20]
 8002eec:	68fb      	ldr	r3, [r7, #12]
 8002eee:	693a      	ldr	r2, [r7, #16]
 8002ef0:	619a      	str	r2, [r3, #24]
 8002ef2:	68fb      	ldr	r3, [r7, #12]
 8002ef4:	697a      	ldr	r2, [r7, #20]
 8002ef6:	621a      	str	r2, [r3, #32]
 8002ef8:	46c0      	nop			; (mov r8, r8)
 8002efa:	46bd      	mov	sp, r7
 8002efc:	b006      	add	sp, #24
 8002efe:	bd80      	pop	{r7, pc}

08002f00 <TIM_TI2_ConfigInputStage>:
 8002f00:	b580      	push	{r7, lr}
 8002f02:	b086      	sub	sp, #24
 8002f04:	af00      	add	r7, sp, #0
 8002f06:	60f8      	str	r0, [r7, #12]
 8002f08:	60b9      	str	r1, [r7, #8]
 8002f0a:	607a      	str	r2, [r7, #4]
 8002f0c:	68fb      	ldr	r3, [r7, #12]
 8002f0e:	6a1b      	ldr	r3, [r3, #32]
 8002f10:	2210      	movs	r2, #16
 8002f12:	4393      	bics	r3, r2
 8002f14:	001a      	movs	r2, r3
 8002f16:	68fb      	ldr	r3, [r7, #12]
 8002f18:	621a      	str	r2, [r3, #32]
 8002f1a:	68fb      	ldr	r3, [r7, #12]
 8002f1c:	699b      	ldr	r3, [r3, #24]
 8002f1e:	617b      	str	r3, [r7, #20]
 8002f20:	68fb      	ldr	r3, [r7, #12]
 8002f22:	6a1b      	ldr	r3, [r3, #32]
 8002f24:	613b      	str	r3, [r7, #16]
 8002f26:	697b      	ldr	r3, [r7, #20]
 8002f28:	4a0d      	ldr	r2, [pc, #52]	; (8002f60 <TIM_TI2_ConfigInputStage+0x60>)
 8002f2a:	4013      	ands	r3, r2
 8002f2c:	617b      	str	r3, [r7, #20]
 8002f2e:	687b      	ldr	r3, [r7, #4]
 8002f30:	031b      	lsls	r3, r3, #12
 8002f32:	697a      	ldr	r2, [r7, #20]
 8002f34:	4313      	orrs	r3, r2
 8002f36:	617b      	str	r3, [r7, #20]
 8002f38:	693b      	ldr	r3, [r7, #16]
 8002f3a:	22a0      	movs	r2, #160	; 0xa0
 8002f3c:	4393      	bics	r3, r2
 8002f3e:	613b      	str	r3, [r7, #16]
 8002f40:	68bb      	ldr	r3, [r7, #8]
 8002f42:	011b      	lsls	r3, r3, #4
 8002f44:	693a      	ldr	r2, [r7, #16]
 8002f46:	4313      	orrs	r3, r2
 8002f48:	613b      	str	r3, [r7, #16]
 8002f4a:	68fb      	ldr	r3, [r7, #12]
 8002f4c:	697a      	ldr	r2, [r7, #20]
 8002f4e:	619a      	str	r2, [r3, #24]
 8002f50:	68fb      	ldr	r3, [r7, #12]
 8002f52:	693a      	ldr	r2, [r7, #16]
 8002f54:	621a      	str	r2, [r3, #32]
 8002f56:	46c0      	nop			; (mov r8, r8)
 8002f58:	46bd      	mov	sp, r7
 8002f5a:	b006      	add	sp, #24
 8002f5c:	bd80      	pop	{r7, pc}
 8002f5e:	46c0      	nop			; (mov r8, r8)
 8002f60:	ffff0fff 	.word	0xffff0fff

08002f64 <TIM_ITRx_SetConfig>:
 8002f64:	b580      	push	{r7, lr}
 8002f66:	b084      	sub	sp, #16
 8002f68:	af00      	add	r7, sp, #0
 8002f6a:	6078      	str	r0, [r7, #4]
 8002f6c:	6039      	str	r1, [r7, #0]
 8002f6e:	687b      	ldr	r3, [r7, #4]
 8002f70:	689b      	ldr	r3, [r3, #8]
 8002f72:	60fb      	str	r3, [r7, #12]
 8002f74:	68fb      	ldr	r3, [r7, #12]
 8002f76:	2270      	movs	r2, #112	; 0x70
 8002f78:	4393      	bics	r3, r2
 8002f7a:	60fb      	str	r3, [r7, #12]
 8002f7c:	683a      	ldr	r2, [r7, #0]
 8002f7e:	68fb      	ldr	r3, [r7, #12]
 8002f80:	4313      	orrs	r3, r2
 8002f82:	2207      	movs	r2, #7
 8002f84:	4313      	orrs	r3, r2
 8002f86:	60fb      	str	r3, [r7, #12]
 8002f88:	687b      	ldr	r3, [r7, #4]
 8002f8a:	68fa      	ldr	r2, [r7, #12]
 8002f8c:	609a      	str	r2, [r3, #8]
 8002f8e:	46c0      	nop			; (mov r8, r8)
 8002f90:	46bd      	mov	sp, r7
 8002f92:	b004      	add	sp, #16
 8002f94:	bd80      	pop	{r7, pc}
	...

08002f98 <TIM_ETR_SetConfig>:
 8002f98:	b580      	push	{r7, lr}
 8002f9a:	b086      	sub	sp, #24
 8002f9c:	af00      	add	r7, sp, #0
 8002f9e:	60f8      	str	r0, [r7, #12]
 8002fa0:	60b9      	str	r1, [r7, #8]
 8002fa2:	607a      	str	r2, [r7, #4]
 8002fa4:	603b      	str	r3, [r7, #0]
 8002fa6:	68fb      	ldr	r3, [r7, #12]
 8002fa8:	689b      	ldr	r3, [r3, #8]
 8002faa:	617b      	str	r3, [r7, #20]
 8002fac:	697b      	ldr	r3, [r7, #20]
 8002fae:	4a09      	ldr	r2, [pc, #36]	; (8002fd4 <TIM_ETR_SetConfig+0x3c>)
 8002fb0:	4013      	ands	r3, r2
 8002fb2:	617b      	str	r3, [r7, #20]
 8002fb4:	683b      	ldr	r3, [r7, #0]
 8002fb6:	021a      	lsls	r2, r3, #8
 8002fb8:	687b      	ldr	r3, [r7, #4]
 8002fba:	431a      	orrs	r2, r3
 8002fbc:	68bb      	ldr	r3, [r7, #8]
 8002fbe:	4313      	orrs	r3, r2
 8002fc0:	697a      	ldr	r2, [r7, #20]
 8002fc2:	4313      	orrs	r3, r2
 8002fc4:	617b      	str	r3, [r7, #20]
 8002fc6:	68fb      	ldr	r3, [r7, #12]
 8002fc8:	697a      	ldr	r2, [r7, #20]
 8002fca:	609a      	str	r2, [r3, #8]
 8002fcc:	46c0      	nop			; (mov r8, r8)
 8002fce:	46bd      	mov	sp, r7
 8002fd0:	b006      	add	sp, #24
 8002fd2:	bd80      	pop	{r7, pc}
 8002fd4:	ffff00ff 	.word	0xffff00ff

08002fd8 <TIM_CCxChannelCmd>:
 8002fd8:	b580      	push	{r7, lr}
 8002fda:	b086      	sub	sp, #24
 8002fdc:	af00      	add	r7, sp, #0
 8002fde:	60f8      	str	r0, [r7, #12]
 8002fe0:	60b9      	str	r1, [r7, #8]
 8002fe2:	607a      	str	r2, [r7, #4]
 8002fe4:	68bb      	ldr	r3, [r7, #8]
 8002fe6:	221f      	movs	r2, #31
 8002fe8:	4013      	ands	r3, r2
 8002fea:	2201      	movs	r2, #1
 8002fec:	409a      	lsls	r2, r3
 8002fee:	0013      	movs	r3, r2
 8002ff0:	617b      	str	r3, [r7, #20]
 8002ff2:	68fb      	ldr	r3, [r7, #12]
 8002ff4:	6a1b      	ldr	r3, [r3, #32]
 8002ff6:	697a      	ldr	r2, [r7, #20]
 8002ff8:	43d2      	mvns	r2, r2
 8002ffa:	401a      	ands	r2, r3
 8002ffc:	68fb      	ldr	r3, [r7, #12]
 8002ffe:	621a      	str	r2, [r3, #32]
 8003000:	68fb      	ldr	r3, [r7, #12]
 8003002:	6a1a      	ldr	r2, [r3, #32]
 8003004:	68bb      	ldr	r3, [r7, #8]
 8003006:	211f      	movs	r1, #31
 8003008:	400b      	ands	r3, r1
 800300a:	6879      	ldr	r1, [r7, #4]
 800300c:	4099      	lsls	r1, r3
 800300e:	000b      	movs	r3, r1
 8003010:	431a      	orrs	r2, r3
 8003012:	68fb      	ldr	r3, [r7, #12]
 8003014:	621a      	str	r2, [r3, #32]
 8003016:	46c0      	nop			; (mov r8, r8)
 8003018:	46bd      	mov	sp, r7
 800301a:	b006      	add	sp, #24
 800301c:	bd80      	pop	{r7, pc}
	...

08003020 <HAL_TIMEx_MasterConfigSynchronization>:
 8003020:	b580      	push	{r7, lr}
 8003022:	b084      	sub	sp, #16
 8003024:	af00      	add	r7, sp, #0
 8003026:	6078      	str	r0, [r7, #4]
 8003028:	6039      	str	r1, [r7, #0]
 800302a:	687b      	ldr	r3, [r7, #4]
 800302c:	223c      	movs	r2, #60	; 0x3c
 800302e:	5c9b      	ldrb	r3, [r3, r2]
 8003030:	2b01      	cmp	r3, #1
 8003032:	d101      	bne.n	8003038 <HAL_TIMEx_MasterConfigSynchronization+0x18>
 8003034:	2302      	movs	r3, #2
 8003036:	e047      	b.n	80030c8 <HAL_TIMEx_MasterConfigSynchronization+0xa8>
 8003038:	687b      	ldr	r3, [r7, #4]
 800303a:	223c      	movs	r2, #60	; 0x3c
 800303c:	2101      	movs	r1, #1
 800303e:	5499      	strb	r1, [r3, r2]
 8003040:	687b      	ldr	r3, [r7, #4]
 8003042:	223d      	movs	r2, #61	; 0x3d
 8003044:	2102      	movs	r1, #2
 8003046:	5499      	strb	r1, [r3, r2]
 8003048:	687b      	ldr	r3, [r7, #4]
 800304a:	681b      	ldr	r3, [r3, #0]
 800304c:	685b      	ldr	r3, [r3, #4]
 800304e:	60fb      	str	r3, [r7, #12]
 8003050:	687b      	ldr	r3, [r7, #4]
 8003052:	681b      	ldr	r3, [r3, #0]
 8003054:	689b      	ldr	r3, [r3, #8]
 8003056:	60bb      	str	r3, [r7, #8]
 8003058:	68fb      	ldr	r3, [r7, #12]
 800305a:	2270      	movs	r2, #112	; 0x70
 800305c:	4393      	bics	r3, r2
 800305e:	60fb      	str	r3, [r7, #12]
 8003060:	683b      	ldr	r3, [r7, #0]
 8003062:	681b      	ldr	r3, [r3, #0]
 8003064:	68fa      	ldr	r2, [r7, #12]
 8003066:	4313      	orrs	r3, r2
 8003068:	60fb      	str	r3, [r7, #12]
 800306a:	687b      	ldr	r3, [r7, #4]
 800306c:	681b      	ldr	r3, [r3, #0]
 800306e:	68fa      	ldr	r2, [r7, #12]
 8003070:	605a      	str	r2, [r3, #4]
 8003072:	687b      	ldr	r3, [r7, #4]
 8003074:	681b      	ldr	r3, [r3, #0]
 8003076:	4a16      	ldr	r2, [pc, #88]	; (80030d0 <HAL_TIMEx_MasterConfigSynchronization+0xb0>)
 8003078:	4293      	cmp	r3, r2
 800307a:	d00f      	beq.n	800309c <HAL_TIMEx_MasterConfigSynchronization+0x7c>
 800307c:	687b      	ldr	r3, [r7, #4]
 800307e:	681a      	ldr	r2, [r3, #0]
 8003080:	2380      	movs	r3, #128	; 0x80
 8003082:	05db      	lsls	r3, r3, #23
 8003084:	429a      	cmp	r2, r3
 8003086:	d009      	beq.n	800309c <HAL_TIMEx_MasterConfigSynchronization+0x7c>
 8003088:	687b      	ldr	r3, [r7, #4]
 800308a:	681b      	ldr	r3, [r3, #0]
 800308c:	4a11      	ldr	r2, [pc, #68]	; (80030d4 <HAL_TIMEx_MasterConfigSynchronization+0xb4>)
 800308e:	4293      	cmp	r3, r2
 8003090:	d004      	beq.n	800309c <HAL_TIMEx_MasterConfigSynchronization+0x7c>
 8003092:	687b      	ldr	r3, [r7, #4]
 8003094:	681b      	ldr	r3, [r3, #0]
 8003096:	4a10      	ldr	r2, [pc, #64]	; (80030d8 <HAL_TIMEx_MasterConfigSynchronization+0xb8>)
 8003098:	4293      	cmp	r3, r2
 800309a:	d10c      	bne.n	80030b6 <HAL_TIMEx_MasterConfigSynchronization+0x96>
 800309c:	68bb      	ldr	r3, [r7, #8]
 800309e:	2280      	movs	r2, #128	; 0x80
 80030a0:	4393      	bics	r3, r2
 80030a2:	60bb      	str	r3, [r7, #8]
 80030a4:	683b      	ldr	r3, [r7, #0]
 80030a6:	685b      	ldr	r3, [r3, #4]
 80030a8:	68ba      	ldr	r2, [r7, #8]
 80030aa:	4313      	orrs	r3, r2
 80030ac:	60bb      	str	r3, [r7, #8]
 80030ae:	687b      	ldr	r3, [r7, #4]
 80030b0:	681b      	ldr	r3, [r3, #0]
 80030b2:	68ba      	ldr	r2, [r7, #8]
 80030b4:	609a      	str	r2, [r3, #8]
 80030b6:	687b      	ldr	r3, [r7, #4]
 80030b8:	223d      	movs	r2, #61	; 0x3d
 80030ba:	2101      	movs	r1, #1
 80030bc:	5499      	strb	r1, [r3, r2]
 80030be:	687b      	ldr	r3, [r7, #4]
 80030c0:	223c      	movs	r2, #60	; 0x3c
 80030c2:	2100      	movs	r1, #0
 80030c4:	5499      	strb	r1, [r3, r2]
 80030c6:	2300      	movs	r3, #0
 80030c8:	0018      	movs	r0, r3
 80030ca:	46bd      	mov	sp, r7
 80030cc:	b004      	add	sp, #16
 80030ce:	bd80      	pop	{r7, pc}
 80030d0:	40012c00 	.word	0x40012c00
 80030d4:	40000400 	.word	0x40000400
 80030d8:	40014000 	.word	0x40014000

080030dc <HAL_TIMEx_ConfigBreakDeadTime>:
 80030dc:	b580      	push	{r7, lr}
 80030de:	b084      	sub	sp, #16
 80030e0:	af00      	add	r7, sp, #0
 80030e2:	6078      	str	r0, [r7, #4]
 80030e4:	6039      	str	r1, [r7, #0]
 80030e6:	2300      	movs	r3, #0
 80030e8:	60fb      	str	r3, [r7, #12]
 80030ea:	687b      	ldr	r3, [r7, #4]
 80030ec:	223c      	movs	r2, #60	; 0x3c
 80030ee:	5c9b      	ldrb	r3, [r3, r2]
 80030f0:	2b01      	cmp	r3, #1
 80030f2:	d101      	bne.n	80030f8 <HAL_TIMEx_ConfigBreakDeadTime+0x1c>
 80030f4:	2302      	movs	r3, #2
 80030f6:	e03e      	b.n	8003176 <HAL_TIMEx_ConfigBreakDeadTime+0x9a>
 80030f8:	687b      	ldr	r3, [r7, #4]
 80030fa:	223c      	movs	r2, #60	; 0x3c
 80030fc:	2101      	movs	r1, #1
 80030fe:	5499      	strb	r1, [r3, r2]
 8003100:	68fb      	ldr	r3, [r7, #12]
 8003102:	22ff      	movs	r2, #255	; 0xff
 8003104:	4393      	bics	r3, r2
 8003106:	001a      	movs	r2, r3
 8003108:	683b      	ldr	r3, [r7, #0]
 800310a:	68db      	ldr	r3, [r3, #12]
 800310c:	4313      	orrs	r3, r2
 800310e:	60fb      	str	r3, [r7, #12]
 8003110:	68fb      	ldr	r3, [r7, #12]
 8003112:	4a1b      	ldr	r2, [pc, #108]	; (8003180 <HAL_TIMEx_ConfigBreakDeadTime+0xa4>)
 8003114:	401a      	ands	r2, r3
 8003116:	683b      	ldr	r3, [r7, #0]
 8003118:	689b      	ldr	r3, [r3, #8]
 800311a:	4313      	orrs	r3, r2
 800311c:	60fb      	str	r3, [r7, #12]
 800311e:	68fb      	ldr	r3, [r7, #12]
 8003120:	4a18      	ldr	r2, [pc, #96]	; (8003184 <HAL_TIMEx_ConfigBreakDeadTime+0xa8>)
 8003122:	401a      	ands	r2, r3
 8003124:	683b      	ldr	r3, [r7, #0]
 8003126:	685b      	ldr	r3, [r3, #4]
 8003128:	4313      	orrs	r3, r2
 800312a:	60fb      	str	r3, [r7, #12]
 800312c:	68fb      	ldr	r3, [r7, #12]
 800312e:	4a16      	ldr	r2, [pc, #88]	; (8003188 <HAL_TIMEx_ConfigBreakDeadTime+0xac>)
 8003130:	401a      	ands	r2, r3
 8003132:	683b      	ldr	r3, [r7, #0]
 8003134:	681b      	ldr	r3, [r3, #0]
 8003136:	4313      	orrs	r3, r2
 8003138:	60fb      	str	r3, [r7, #12]
 800313a:	68fb      	ldr	r3, [r7, #12]
 800313c:	4a13      	ldr	r2, [pc, #76]	; (800318c <HAL_TIMEx_ConfigBreakDeadTime+0xb0>)
 800313e:	401a      	ands	r2, r3
 8003140:	683b      	ldr	r3, [r7, #0]
 8003142:	691b      	ldr	r3, [r3, #16]
 8003144:	4313      	orrs	r3, r2
 8003146:	60fb      	str	r3, [r7, #12]
 8003148:	68fb      	ldr	r3, [r7, #12]
 800314a:	4a11      	ldr	r2, [pc, #68]	; (8003190 <HAL_TIMEx_ConfigBreakDeadTime+0xb4>)
 800314c:	401a      	ands	r2, r3
 800314e:	683b      	ldr	r3, [r7, #0]
 8003150:	695b      	ldr	r3, [r3, #20]
 8003152:	4313      	orrs	r3, r2
 8003154:	60fb      	str	r3, [r7, #12]
 8003156:	68fb      	ldr	r3, [r7, #12]
 8003158:	4a0e      	ldr	r2, [pc, #56]	; (8003194 <HAL_TIMEx_ConfigBreakDeadTime+0xb8>)
 800315a:	401a      	ands	r2, r3
 800315c:	683b      	ldr	r3, [r7, #0]
 800315e:	69db      	ldr	r3, [r3, #28]
 8003160:	4313      	orrs	r3, r2
 8003162:	60fb      	str	r3, [r7, #12]
 8003164:	687b      	ldr	r3, [r7, #4]
 8003166:	681b      	ldr	r3, [r3, #0]
 8003168:	68fa      	ldr	r2, [r7, #12]
 800316a:	645a      	str	r2, [r3, #68]	; 0x44
 800316c:	687b      	ldr	r3, [r7, #4]
 800316e:	223c      	movs	r2, #60	; 0x3c
 8003170:	2100      	movs	r1, #0
 8003172:	5499      	strb	r1, [r3, r2]
 8003174:	2300      	movs	r3, #0
 8003176:	0018      	movs	r0, r3
 8003178:	46bd      	mov	sp, r7
 800317a:	b004      	add	sp, #16
 800317c:	bd80      	pop	{r7, pc}
 800317e:	46c0      	nop			; (mov r8, r8)
 8003180:	fffffcff 	.word	0xfffffcff
 8003184:	fffffbff 	.word	0xfffffbff
 8003188:	fffff7ff 	.word	0xfffff7ff
 800318c:	ffffefff 	.word	0xffffefff
 8003190:	ffffdfff 	.word	0xffffdfff
 8003194:	ffffbfff 	.word	0xffffbfff

08003198 <HAL_UART_Init>:
 8003198:	b580      	push	{r7, lr}
 800319a:	b082      	sub	sp, #8
 800319c:	af00      	add	r7, sp, #0
 800319e:	6078      	str	r0, [r7, #4]
 80031a0:	687b      	ldr	r3, [r7, #4]
 80031a2:	2b00      	cmp	r3, #0
 80031a4:	d101      	bne.n	80031aa <HAL_UART_Init+0x12>
 80031a6:	2301      	movs	r3, #1
 80031a8:	e044      	b.n	8003234 <HAL_UART_Init+0x9c>
 80031aa:	687b      	ldr	r3, [r7, #4]
 80031ac:	6f9b      	ldr	r3, [r3, #120]	; 0x78
 80031ae:	2b00      	cmp	r3, #0
 80031b0:	d107      	bne.n	80031c2 <HAL_UART_Init+0x2a>
 80031b2:	687b      	ldr	r3, [r7, #4]
 80031b4:	2274      	movs	r2, #116	; 0x74
 80031b6:	2100      	movs	r1, #0
 80031b8:	5499      	strb	r1, [r3, r2]
 80031ba:	687b      	ldr	r3, [r7, #4]
 80031bc:	0018      	movs	r0, r3
 80031be:	f7fd fbb5 	bl	800092c <HAL_UART_MspInit>
 80031c2:	687b      	ldr	r3, [r7, #4]
 80031c4:	2224      	movs	r2, #36	; 0x24
 80031c6:	679a      	str	r2, [r3, #120]	; 0x78
 80031c8:	687b      	ldr	r3, [r7, #4]
 80031ca:	681b      	ldr	r3, [r3, #0]
 80031cc:	681a      	ldr	r2, [r3, #0]
 80031ce:	687b      	ldr	r3, [r7, #4]
 80031d0:	681b      	ldr	r3, [r3, #0]
 80031d2:	2101      	movs	r1, #1
 80031d4:	438a      	bics	r2, r1
 80031d6:	601a      	str	r2, [r3, #0]
 80031d8:	687b      	ldr	r3, [r7, #4]
 80031da:	0018      	movs	r0, r3
 80031dc:	f000 f830 	bl	8003240 <UART_SetConfig>
 80031e0:	0003      	movs	r3, r0
 80031e2:	2b01      	cmp	r3, #1
 80031e4:	d101      	bne.n	80031ea <HAL_UART_Init+0x52>
 80031e6:	2301      	movs	r3, #1
 80031e8:	e024      	b.n	8003234 <HAL_UART_Init+0x9c>
 80031ea:	687b      	ldr	r3, [r7, #4]
 80031ec:	6a5b      	ldr	r3, [r3, #36]	; 0x24
 80031ee:	2b00      	cmp	r3, #0
 80031f0:	d003      	beq.n	80031fa <HAL_UART_Init+0x62>
 80031f2:	687b      	ldr	r3, [r7, #4]
 80031f4:	0018      	movs	r0, r3
 80031f6:	f000 f9ab 	bl	8003550 <UART_AdvFeatureConfig>
 80031fa:	687b      	ldr	r3, [r7, #4]
 80031fc:	681b      	ldr	r3, [r3, #0]
 80031fe:	685a      	ldr	r2, [r3, #4]
 8003200:	687b      	ldr	r3, [r7, #4]
 8003202:	681b      	ldr	r3, [r3, #0]
 8003204:	490d      	ldr	r1, [pc, #52]	; (800323c <HAL_UART_Init+0xa4>)
 8003206:	400a      	ands	r2, r1
 8003208:	605a      	str	r2, [r3, #4]
 800320a:	687b      	ldr	r3, [r7, #4]
 800320c:	681b      	ldr	r3, [r3, #0]
 800320e:	689a      	ldr	r2, [r3, #8]
 8003210:	687b      	ldr	r3, [r7, #4]
 8003212:	681b      	ldr	r3, [r3, #0]
 8003214:	212a      	movs	r1, #42	; 0x2a
 8003216:	438a      	bics	r2, r1
 8003218:	609a      	str	r2, [r3, #8]
 800321a:	687b      	ldr	r3, [r7, #4]
 800321c:	681b      	ldr	r3, [r3, #0]
 800321e:	681a      	ldr	r2, [r3, #0]
 8003220:	687b      	ldr	r3, [r7, #4]
 8003222:	681b      	ldr	r3, [r3, #0]
 8003224:	2101      	movs	r1, #1
 8003226:	430a      	orrs	r2, r1
 8003228:	601a      	str	r2, [r3, #0]
 800322a:	687b      	ldr	r3, [r7, #4]
 800322c:	0018      	movs	r0, r3
 800322e:	f000 fa43 	bl	80036b8 <UART_CheckIdleState>
 8003232:	0003      	movs	r3, r0
 8003234:	0018      	movs	r0, r3
 8003236:	46bd      	mov	sp, r7
 8003238:	b002      	add	sp, #8
 800323a:	bd80      	pop	{r7, pc}
 800323c:	ffffb7ff 	.word	0xffffb7ff

08003240 <UART_SetConfig>:
 8003240:	b580      	push	{r7, lr}
 8003242:	b088      	sub	sp, #32
 8003244:	af00      	add	r7, sp, #0
 8003246:	6078      	str	r0, [r7, #4]
 8003248:	231e      	movs	r3, #30
 800324a:	18fb      	adds	r3, r7, r3
 800324c:	2200      	movs	r2, #0
 800324e:	701a      	strb	r2, [r3, #0]
 8003250:	687b      	ldr	r3, [r7, #4]
 8003252:	689a      	ldr	r2, [r3, #8]
 8003254:	687b      	ldr	r3, [r7, #4]
 8003256:	691b      	ldr	r3, [r3, #16]
 8003258:	431a      	orrs	r2, r3
 800325a:	687b      	ldr	r3, [r7, #4]
 800325c:	695b      	ldr	r3, [r3, #20]
 800325e:	431a      	orrs	r2, r3
 8003260:	687b      	ldr	r3, [r7, #4]
 8003262:	69db      	ldr	r3, [r3, #28]
 8003264:	4313      	orrs	r3, r2
 8003266:	617b      	str	r3, [r7, #20]
 8003268:	687b      	ldr	r3, [r7, #4]
 800326a:	681b      	ldr	r3, [r3, #0]
 800326c:	681b      	ldr	r3, [r3, #0]
 800326e:	4aaf      	ldr	r2, [pc, #700]	; (800352c <UART_SetConfig+0x2ec>)
 8003270:	4013      	ands	r3, r2
 8003272:	0019      	movs	r1, r3
 8003274:	687b      	ldr	r3, [r7, #4]
 8003276:	681b      	ldr	r3, [r3, #0]
 8003278:	697a      	ldr	r2, [r7, #20]
 800327a:	430a      	orrs	r2, r1
 800327c:	601a      	str	r2, [r3, #0]
 800327e:	687b      	ldr	r3, [r7, #4]
 8003280:	681b      	ldr	r3, [r3, #0]
 8003282:	685b      	ldr	r3, [r3, #4]
 8003284:	4aaa      	ldr	r2, [pc, #680]	; (8003530 <UART_SetConfig+0x2f0>)
 8003286:	4013      	ands	r3, r2
 8003288:	0019      	movs	r1, r3
 800328a:	687b      	ldr	r3, [r7, #4]
 800328c:	68da      	ldr	r2, [r3, #12]
 800328e:	687b      	ldr	r3, [r7, #4]
 8003290:	681b      	ldr	r3, [r3, #0]
 8003292:	430a      	orrs	r2, r1
 8003294:	605a      	str	r2, [r3, #4]
 8003296:	687b      	ldr	r3, [r7, #4]
 8003298:	699b      	ldr	r3, [r3, #24]
 800329a:	617b      	str	r3, [r7, #20]
 800329c:	687b      	ldr	r3, [r7, #4]
 800329e:	6a1b      	ldr	r3, [r3, #32]
 80032a0:	697a      	ldr	r2, [r7, #20]
 80032a2:	4313      	orrs	r3, r2
 80032a4:	617b      	str	r3, [r7, #20]
 80032a6:	687b      	ldr	r3, [r7, #4]
 80032a8:	681b      	ldr	r3, [r3, #0]
 80032aa:	689b      	ldr	r3, [r3, #8]
 80032ac:	4aa1      	ldr	r2, [pc, #644]	; (8003534 <UART_SetConfig+0x2f4>)
 80032ae:	4013      	ands	r3, r2
 80032b0:	0019      	movs	r1, r3
 80032b2:	687b      	ldr	r3, [r7, #4]
 80032b4:	681b      	ldr	r3, [r3, #0]
 80032b6:	697a      	ldr	r2, [r7, #20]
 80032b8:	430a      	orrs	r2, r1
 80032ba:	609a      	str	r2, [r3, #8]
 80032bc:	687b      	ldr	r3, [r7, #4]
 80032be:	681b      	ldr	r3, [r3, #0]
 80032c0:	4a9d      	ldr	r2, [pc, #628]	; (8003538 <UART_SetConfig+0x2f8>)
 80032c2:	4293      	cmp	r3, r2
 80032c4:	d127      	bne.n	8003316 <UART_SetConfig+0xd6>
 80032c6:	4b9d      	ldr	r3, [pc, #628]	; (800353c <UART_SetConfig+0x2fc>)
 80032c8:	6b1b      	ldr	r3, [r3, #48]	; 0x30
 80032ca:	2203      	movs	r2, #3
 80032cc:	4013      	ands	r3, r2
 80032ce:	2b03      	cmp	r3, #3
 80032d0:	d00d      	beq.n	80032ee <UART_SetConfig+0xae>
 80032d2:	d81b      	bhi.n	800330c <UART_SetConfig+0xcc>
 80032d4:	2b02      	cmp	r3, #2
 80032d6:	d014      	beq.n	8003302 <UART_SetConfig+0xc2>
 80032d8:	d818      	bhi.n	800330c <UART_SetConfig+0xcc>
 80032da:	2b00      	cmp	r3, #0
 80032dc:	d002      	beq.n	80032e4 <UART_SetConfig+0xa4>
 80032de:	2b01      	cmp	r3, #1
 80032e0:	d00a      	beq.n	80032f8 <UART_SetConfig+0xb8>
 80032e2:	e013      	b.n	800330c <UART_SetConfig+0xcc>
 80032e4:	231f      	movs	r3, #31
 80032e6:	18fb      	adds	r3, r7, r3
 80032e8:	2200      	movs	r2, #0
 80032ea:	701a      	strb	r2, [r3, #0]
 80032ec:	e065      	b.n	80033ba <UART_SetConfig+0x17a>
 80032ee:	231f      	movs	r3, #31
 80032f0:	18fb      	adds	r3, r7, r3
 80032f2:	2202      	movs	r2, #2
 80032f4:	701a      	strb	r2, [r3, #0]
 80032f6:	e060      	b.n	80033ba <UART_SetConfig+0x17a>
 80032f8:	231f      	movs	r3, #31
 80032fa:	18fb      	adds	r3, r7, r3
 80032fc:	2204      	movs	r2, #4
 80032fe:	701a      	strb	r2, [r3, #0]
 8003300:	e05b      	b.n	80033ba <UART_SetConfig+0x17a>
 8003302:	231f      	movs	r3, #31
 8003304:	18fb      	adds	r3, r7, r3
 8003306:	2208      	movs	r2, #8
 8003308:	701a      	strb	r2, [r3, #0]
 800330a:	e056      	b.n	80033ba <UART_SetConfig+0x17a>
 800330c:	231f      	movs	r3, #31
 800330e:	18fb      	adds	r3, r7, r3
 8003310:	2210      	movs	r2, #16
 8003312:	701a      	strb	r2, [r3, #0]
 8003314:	e051      	b.n	80033ba <UART_SetConfig+0x17a>
 8003316:	687b      	ldr	r3, [r7, #4]
 8003318:	681b      	ldr	r3, [r3, #0]
 800331a:	4a89      	ldr	r2, [pc, #548]	; (8003540 <UART_SetConfig+0x300>)
 800331c:	4293      	cmp	r3, r2
 800331e:	d134      	bne.n	800338a <UART_SetConfig+0x14a>
 8003320:	4b86      	ldr	r3, [pc, #536]	; (800353c <UART_SetConfig+0x2fc>)
 8003322:	6b1a      	ldr	r2, [r3, #48]	; 0x30
 8003324:	23c0      	movs	r3, #192	; 0xc0
 8003326:	029b      	lsls	r3, r3, #10
 8003328:	4013      	ands	r3, r2
 800332a:	22c0      	movs	r2, #192	; 0xc0
 800332c:	0292      	lsls	r2, r2, #10
 800332e:	4293      	cmp	r3, r2
 8003330:	d017      	beq.n	8003362 <UART_SetConfig+0x122>
 8003332:	22c0      	movs	r2, #192	; 0xc0
 8003334:	0292      	lsls	r2, r2, #10
 8003336:	4293      	cmp	r3, r2
 8003338:	d822      	bhi.n	8003380 <UART_SetConfig+0x140>
 800333a:	2280      	movs	r2, #128	; 0x80
 800333c:	0292      	lsls	r2, r2, #10
 800333e:	4293      	cmp	r3, r2
 8003340:	d019      	beq.n	8003376 <UART_SetConfig+0x136>
 8003342:	2280      	movs	r2, #128	; 0x80
 8003344:	0292      	lsls	r2, r2, #10
 8003346:	4293      	cmp	r3, r2
 8003348:	d81a      	bhi.n	8003380 <UART_SetConfig+0x140>
 800334a:	2b00      	cmp	r3, #0
 800334c:	d004      	beq.n	8003358 <UART_SetConfig+0x118>
 800334e:	2280      	movs	r2, #128	; 0x80
 8003350:	0252      	lsls	r2, r2, #9
 8003352:	4293      	cmp	r3, r2
 8003354:	d00a      	beq.n	800336c <UART_SetConfig+0x12c>
 8003356:	e013      	b.n	8003380 <UART_SetConfig+0x140>
 8003358:	231f      	movs	r3, #31
 800335a:	18fb      	adds	r3, r7, r3
 800335c:	2200      	movs	r2, #0
 800335e:	701a      	strb	r2, [r3, #0]
 8003360:	e02b      	b.n	80033ba <UART_SetConfig+0x17a>
 8003362:	231f      	movs	r3, #31
 8003364:	18fb      	adds	r3, r7, r3
 8003366:	2202      	movs	r2, #2
 8003368:	701a      	strb	r2, [r3, #0]
 800336a:	e026      	b.n	80033ba <UART_SetConfig+0x17a>
 800336c:	231f      	movs	r3, #31
 800336e:	18fb      	adds	r3, r7, r3
 8003370:	2204      	movs	r2, #4
 8003372:	701a      	strb	r2, [r3, #0]
 8003374:	e021      	b.n	80033ba <UART_SetConfig+0x17a>
 8003376:	231f      	movs	r3, #31
 8003378:	18fb      	adds	r3, r7, r3
 800337a:	2208      	movs	r2, #8
 800337c:	701a      	strb	r2, [r3, #0]
 800337e:	e01c      	b.n	80033ba <UART_SetConfig+0x17a>
 8003380:	231f      	movs	r3, #31
 8003382:	18fb      	adds	r3, r7, r3
 8003384:	2210      	movs	r2, #16
 8003386:	701a      	strb	r2, [r3, #0]
 8003388:	e017      	b.n	80033ba <UART_SetConfig+0x17a>
 800338a:	687b      	ldr	r3, [r7, #4]
 800338c:	681b      	ldr	r3, [r3, #0]
 800338e:	4a6d      	ldr	r2, [pc, #436]	; (8003544 <UART_SetConfig+0x304>)
 8003390:	4293      	cmp	r3, r2
 8003392:	d104      	bne.n	800339e <UART_SetConfig+0x15e>
 8003394:	231f      	movs	r3, #31
 8003396:	18fb      	adds	r3, r7, r3
 8003398:	2200      	movs	r2, #0
 800339a:	701a      	strb	r2, [r3, #0]
 800339c:	e00d      	b.n	80033ba <UART_SetConfig+0x17a>
 800339e:	687b      	ldr	r3, [r7, #4]
 80033a0:	681b      	ldr	r3, [r3, #0]
 80033a2:	4a69      	ldr	r2, [pc, #420]	; (8003548 <UART_SetConfig+0x308>)
 80033a4:	4293      	cmp	r3, r2
 80033a6:	d104      	bne.n	80033b2 <UART_SetConfig+0x172>
 80033a8:	231f      	movs	r3, #31
 80033aa:	18fb      	adds	r3, r7, r3
 80033ac:	2200      	movs	r2, #0
 80033ae:	701a      	strb	r2, [r3, #0]
 80033b0:	e003      	b.n	80033ba <UART_SetConfig+0x17a>
 80033b2:	231f      	movs	r3, #31
 80033b4:	18fb      	adds	r3, r7, r3
 80033b6:	2210      	movs	r2, #16
 80033b8:	701a      	strb	r2, [r3, #0]
 80033ba:	687b      	ldr	r3, [r7, #4]
 80033bc:	69da      	ldr	r2, [r3, #28]
 80033be:	2380      	movs	r3, #128	; 0x80
 80033c0:	021b      	lsls	r3, r3, #8
 80033c2:	429a      	cmp	r2, r3
 80033c4:	d15d      	bne.n	8003482 <UART_SetConfig+0x242>
 80033c6:	231f      	movs	r3, #31
 80033c8:	18fb      	adds	r3, r7, r3
 80033ca:	781b      	ldrb	r3, [r3, #0]
 80033cc:	2b08      	cmp	r3, #8
 80033ce:	d015      	beq.n	80033fc <UART_SetConfig+0x1bc>
 80033d0:	dc18      	bgt.n	8003404 <UART_SetConfig+0x1c4>
 80033d2:	2b04      	cmp	r3, #4
 80033d4:	d00d      	beq.n	80033f2 <UART_SetConfig+0x1b2>
 80033d6:	dc15      	bgt.n	8003404 <UART_SetConfig+0x1c4>
 80033d8:	2b00      	cmp	r3, #0
 80033da:	d002      	beq.n	80033e2 <UART_SetConfig+0x1a2>
 80033dc:	2b02      	cmp	r3, #2
 80033de:	d005      	beq.n	80033ec <UART_SetConfig+0x1ac>
 80033e0:	e010      	b.n	8003404 <UART_SetConfig+0x1c4>
 80033e2:	f7fe fad5 	bl	8001990 <HAL_RCC_GetPCLK1Freq>
 80033e6:	0003      	movs	r3, r0
 80033e8:	61bb      	str	r3, [r7, #24]
 80033ea:	e012      	b.n	8003412 <UART_SetConfig+0x1d2>
 80033ec:	4b57      	ldr	r3, [pc, #348]	; (800354c <UART_SetConfig+0x30c>)
 80033ee:	61bb      	str	r3, [r7, #24]
 80033f0:	e00f      	b.n	8003412 <UART_SetConfig+0x1d2>
 80033f2:	f7fe fa43 	bl	800187c <HAL_RCC_GetSysClockFreq>
 80033f6:	0003      	movs	r3, r0
 80033f8:	61bb      	str	r3, [r7, #24]
 80033fa:	e00a      	b.n	8003412 <UART_SetConfig+0x1d2>
 80033fc:	2380      	movs	r3, #128	; 0x80
 80033fe:	021b      	lsls	r3, r3, #8
 8003400:	61bb      	str	r3, [r7, #24]
 8003402:	e006      	b.n	8003412 <UART_SetConfig+0x1d2>
 8003404:	2300      	movs	r3, #0
 8003406:	61bb      	str	r3, [r7, #24]
 8003408:	231e      	movs	r3, #30
 800340a:	18fb      	adds	r3, r7, r3
 800340c:	2201      	movs	r2, #1
 800340e:	701a      	strb	r2, [r3, #0]
 8003410:	46c0      	nop			; (mov r8, r8)
 8003412:	69bb      	ldr	r3, [r7, #24]
 8003414:	2b00      	cmp	r3, #0
 8003416:	d100      	bne.n	800341a <UART_SetConfig+0x1da>
 8003418:	e07b      	b.n	8003512 <UART_SetConfig+0x2d2>
 800341a:	69bb      	ldr	r3, [r7, #24]
 800341c:	005a      	lsls	r2, r3, #1
 800341e:	687b      	ldr	r3, [r7, #4]
 8003420:	685b      	ldr	r3, [r3, #4]
 8003422:	085b      	lsrs	r3, r3, #1
 8003424:	18d2      	adds	r2, r2, r3
 8003426:	687b      	ldr	r3, [r7, #4]
 8003428:	685b      	ldr	r3, [r3, #4]
 800342a:	0019      	movs	r1, r3
 800342c:	0010      	movs	r0, r2
 800342e:	f7fc fe6b 	bl	8000108 <__udivsi3>
 8003432:	0003      	movs	r3, r0
 8003434:	b29b      	uxth	r3, r3
 8003436:	613b      	str	r3, [r7, #16]
 8003438:	693b      	ldr	r3, [r7, #16]
 800343a:	2b0f      	cmp	r3, #15
 800343c:	d91c      	bls.n	8003478 <UART_SetConfig+0x238>
 800343e:	693a      	ldr	r2, [r7, #16]
 8003440:	2380      	movs	r3, #128	; 0x80
 8003442:	025b      	lsls	r3, r3, #9
 8003444:	429a      	cmp	r2, r3
 8003446:	d217      	bcs.n	8003478 <UART_SetConfig+0x238>
 8003448:	693b      	ldr	r3, [r7, #16]
 800344a:	b29a      	uxth	r2, r3
 800344c:	200e      	movs	r0, #14
 800344e:	183b      	adds	r3, r7, r0
 8003450:	210f      	movs	r1, #15
 8003452:	438a      	bics	r2, r1
 8003454:	801a      	strh	r2, [r3, #0]
 8003456:	693b      	ldr	r3, [r7, #16]
 8003458:	085b      	lsrs	r3, r3, #1
 800345a:	b29b      	uxth	r3, r3
 800345c:	2207      	movs	r2, #7
 800345e:	4013      	ands	r3, r2
 8003460:	b299      	uxth	r1, r3
 8003462:	183b      	adds	r3, r7, r0
 8003464:	183a      	adds	r2, r7, r0
 8003466:	8812      	ldrh	r2, [r2, #0]
 8003468:	430a      	orrs	r2, r1
 800346a:	801a      	strh	r2, [r3, #0]
 800346c:	687b      	ldr	r3, [r7, #4]
 800346e:	681b      	ldr	r3, [r3, #0]
 8003470:	183a      	adds	r2, r7, r0
 8003472:	8812      	ldrh	r2, [r2, #0]
 8003474:	60da      	str	r2, [r3, #12]
 8003476:	e04c      	b.n	8003512 <UART_SetConfig+0x2d2>
 8003478:	231e      	movs	r3, #30
 800347a:	18fb      	adds	r3, r7, r3
 800347c:	2201      	movs	r2, #1
 800347e:	701a      	strb	r2, [r3, #0]
 8003480:	e047      	b.n	8003512 <UART_SetConfig+0x2d2>
 8003482:	231f      	movs	r3, #31
 8003484:	18fb      	adds	r3, r7, r3
 8003486:	781b      	ldrb	r3, [r3, #0]
 8003488:	2b08      	cmp	r3, #8
 800348a:	d015      	beq.n	80034b8 <UART_SetConfig+0x278>
 800348c:	dc18      	bgt.n	80034c0 <UART_SetConfig+0x280>
 800348e:	2b04      	cmp	r3, #4
 8003490:	d00d      	beq.n	80034ae <UART_SetConfig+0x26e>
 8003492:	dc15      	bgt.n	80034c0 <UART_SetConfig+0x280>
 8003494:	2b00      	cmp	r3, #0
 8003496:	d002      	beq.n	800349e <UART_SetConfig+0x25e>
 8003498:	2b02      	cmp	r3, #2
 800349a:	d005      	beq.n	80034a8 <UART_SetConfig+0x268>
 800349c:	e010      	b.n	80034c0 <UART_SetConfig+0x280>
 800349e:	f7fe fa77 	bl	8001990 <HAL_RCC_GetPCLK1Freq>
 80034a2:	0003      	movs	r3, r0
 80034a4:	61bb      	str	r3, [r7, #24]
 80034a6:	e012      	b.n	80034ce <UART_SetConfig+0x28e>
 80034a8:	4b28      	ldr	r3, [pc, #160]	; (800354c <UART_SetConfig+0x30c>)
 80034aa:	61bb      	str	r3, [r7, #24]
 80034ac:	e00f      	b.n	80034ce <UART_SetConfig+0x28e>
 80034ae:	f7fe f9e5 	bl	800187c <HAL_RCC_GetSysClockFreq>
 80034b2:	0003      	movs	r3, r0
 80034b4:	61bb      	str	r3, [r7, #24]
 80034b6:	e00a      	b.n	80034ce <UART_SetConfig+0x28e>
 80034b8:	2380      	movs	r3, #128	; 0x80
 80034ba:	021b      	lsls	r3, r3, #8
 80034bc:	61bb      	str	r3, [r7, #24]
 80034be:	e006      	b.n	80034ce <UART_SetConfig+0x28e>
 80034c0:	2300      	movs	r3, #0
 80034c2:	61bb      	str	r3, [r7, #24]
 80034c4:	231e      	movs	r3, #30
 80034c6:	18fb      	adds	r3, r7, r3
 80034c8:	2201      	movs	r2, #1
 80034ca:	701a      	strb	r2, [r3, #0]
 80034cc:	46c0      	nop			; (mov r8, r8)
 80034ce:	69bb      	ldr	r3, [r7, #24]
 80034d0:	2b00      	cmp	r3, #0
 80034d2:	d01e      	beq.n	8003512 <UART_SetConfig+0x2d2>
 80034d4:	687b      	ldr	r3, [r7, #4]
 80034d6:	685b      	ldr	r3, [r3, #4]
 80034d8:	085a      	lsrs	r2, r3, #1
 80034da:	69bb      	ldr	r3, [r7, #24]
 80034dc:	18d2      	adds	r2, r2, r3
 80034de:	687b      	ldr	r3, [r7, #4]
 80034e0:	685b      	ldr	r3, [r3, #4]
 80034e2:	0019      	movs	r1, r3
 80034e4:	0010      	movs	r0, r2
 80034e6:	f7fc fe0f 	bl	8000108 <__udivsi3>
 80034ea:	0003      	movs	r3, r0
 80034ec:	b29b      	uxth	r3, r3
 80034ee:	613b      	str	r3, [r7, #16]
 80034f0:	693b      	ldr	r3, [r7, #16]
 80034f2:	2b0f      	cmp	r3, #15
 80034f4:	d909      	bls.n	800350a <UART_SetConfig+0x2ca>
 80034f6:	693a      	ldr	r2, [r7, #16]
 80034f8:	2380      	movs	r3, #128	; 0x80
 80034fa:	025b      	lsls	r3, r3, #9
 80034fc:	429a      	cmp	r2, r3
 80034fe:	d204      	bcs.n	800350a <UART_SetConfig+0x2ca>
 8003500:	687b      	ldr	r3, [r7, #4]
 8003502:	681b      	ldr	r3, [r3, #0]
 8003504:	693a      	ldr	r2, [r7, #16]
 8003506:	60da      	str	r2, [r3, #12]
 8003508:	e003      	b.n	8003512 <UART_SetConfig+0x2d2>
 800350a:	231e      	movs	r3, #30
 800350c:	18fb      	adds	r3, r7, r3
 800350e:	2201      	movs	r2, #1
 8003510:	701a      	strb	r2, [r3, #0]
 8003512:	687b      	ldr	r3, [r7, #4]
 8003514:	2200      	movs	r2, #0
 8003516:	665a      	str	r2, [r3, #100]	; 0x64
 8003518:	687b      	ldr	r3, [r7, #4]
 800351a:	2200      	movs	r2, #0
 800351c:	669a      	str	r2, [r3, #104]	; 0x68
 800351e:	231e      	movs	r3, #30
 8003520:	18fb      	adds	r3, r7, r3
 8003522:	781b      	ldrb	r3, [r3, #0]
 8003524:	0018      	movs	r0, r3
 8003526:	46bd      	mov	sp, r7
 8003528:	b008      	add	sp, #32
 800352a:	bd80      	pop	{r7, pc}
 800352c:	efff69f3 	.word	0xefff69f3
 8003530:	ffffcfff 	.word	0xffffcfff
 8003534:	fffff4ff 	.word	0xfffff4ff
 8003538:	40013800 	.word	0x40013800
 800353c:	40021000 	.word	0x40021000
 8003540:	40004400 	.word	0x40004400
 8003544:	40004800 	.word	0x40004800
 8003548:	40004c00 	.word	0x40004c00
 800354c:	007a1200 	.word	0x007a1200

08003550 <UART_AdvFeatureConfig>:
 8003550:	b580      	push	{r7, lr}
 8003552:	b082      	sub	sp, #8
 8003554:	af00      	add	r7, sp, #0
 8003556:	6078      	str	r0, [r7, #4]
 8003558:	687b      	ldr	r3, [r7, #4]
 800355a:	6a5b      	ldr	r3, [r3, #36]	; 0x24
 800355c:	2201      	movs	r2, #1
 800355e:	4013      	ands	r3, r2
 8003560:	d00b      	beq.n	800357a <UART_AdvFeatureConfig+0x2a>
 8003562:	687b      	ldr	r3, [r7, #4]
 8003564:	681b      	ldr	r3, [r3, #0]
 8003566:	685b      	ldr	r3, [r3, #4]
 8003568:	4a4a      	ldr	r2, [pc, #296]	; (8003694 <UART_AdvFeatureConfig+0x144>)
 800356a:	4013      	ands	r3, r2
 800356c:	0019      	movs	r1, r3
 800356e:	687b      	ldr	r3, [r7, #4]
 8003570:	6a9a      	ldr	r2, [r3, #40]	; 0x28
 8003572:	687b      	ldr	r3, [r7, #4]
 8003574:	681b      	ldr	r3, [r3, #0]
 8003576:	430a      	orrs	r2, r1
 8003578:	605a      	str	r2, [r3, #4]
 800357a:	687b      	ldr	r3, [r7, #4]
 800357c:	6a5b      	ldr	r3, [r3, #36]	; 0x24
 800357e:	2202      	movs	r2, #2
 8003580:	4013      	ands	r3, r2
 8003582:	d00b      	beq.n	800359c <UART_AdvFeatureConfig+0x4c>
 8003584:	687b      	ldr	r3, [r7, #4]
 8003586:	681b      	ldr	r3, [r3, #0]
 8003588:	685b      	ldr	r3, [r3, #4]
 800358a:	4a43      	ldr	r2, [pc, #268]	; (8003698 <UART_AdvFeatureConfig+0x148>)
 800358c:	4013      	ands	r3, r2
 800358e:	0019      	movs	r1, r3
 8003590:	687b      	ldr	r3, [r7, #4]
 8003592:	6ada      	ldr	r2, [r3, #44]	; 0x2c
 8003594:	687b      	ldr	r3, [r7, #4]
 8003596:	681b      	ldr	r3, [r3, #0]
 8003598:	430a      	orrs	r2, r1
 800359a:	605a      	str	r2, [r3, #4]
 800359c:	687b      	ldr	r3, [r7, #4]
 800359e:	6a5b      	ldr	r3, [r3, #36]	; 0x24
 80035a0:	2204      	movs	r2, #4
 80035a2:	4013      	ands	r3, r2
 80035a4:	d00b      	beq.n	80035be <UART_AdvFeatureConfig+0x6e>
 80035a6:	687b      	ldr	r3, [r7, #4]
 80035a8:	681b      	ldr	r3, [r3, #0]
 80035aa:	685b      	ldr	r3, [r3, #4]
 80035ac:	4a3b      	ldr	r2, [pc, #236]	; (800369c <UART_AdvFeatureConfig+0x14c>)
 80035ae:	4013      	ands	r3, r2
 80035b0:	0019      	movs	r1, r3
 80035b2:	687b      	ldr	r3, [r7, #4]
 80035b4:	6b1a      	ldr	r2, [r3, #48]	; 0x30
 80035b6:	687b      	ldr	r3, [r7, #4]
 80035b8:	681b      	ldr	r3, [r3, #0]
 80035ba:	430a      	orrs	r2, r1
 80035bc:	605a      	str	r2, [r3, #4]
 80035be:	687b      	ldr	r3, [r7, #4]
 80035c0:	6a5b      	ldr	r3, [r3, #36]	; 0x24
 80035c2:	2208      	movs	r2, #8
 80035c4:	4013      	ands	r3, r2
 80035c6:	d00b      	beq.n	80035e0 <UART_AdvFeatureConfig+0x90>
 80035c8:	687b      	ldr	r3, [r7, #4]
 80035ca:	681b      	ldr	r3, [r3, #0]
 80035cc:	685b      	ldr	r3, [r3, #4]
 80035ce:	4a34      	ldr	r2, [pc, #208]	; (80036a0 <UART_AdvFeatureConfig+0x150>)
 80035d0:	4013      	ands	r3, r2
 80035d2:	0019      	movs	r1, r3
 80035d4:	687b      	ldr	r3, [r7, #4]
 80035d6:	6b5a      	ldr	r2, [r3, #52]	; 0x34
 80035d8:	687b      	ldr	r3, [r7, #4]
 80035da:	681b      	ldr	r3, [r3, #0]
 80035dc:	430a      	orrs	r2, r1
 80035de:	605a      	str	r2, [r3, #4]
 80035e0:	687b      	ldr	r3, [r7, #4]
 80035e2:	6a5b      	ldr	r3, [r3, #36]	; 0x24
 80035e4:	2210      	movs	r2, #16
 80035e6:	4013      	ands	r3, r2
 80035e8:	d00b      	beq.n	8003602 <UART_AdvFeatureConfig+0xb2>
 80035ea:	687b      	ldr	r3, [r7, #4]
 80035ec:	681b      	ldr	r3, [r3, #0]
 80035ee:	689b      	ldr	r3, [r3, #8]
 80035f0:	4a2c      	ldr	r2, [pc, #176]	; (80036a4 <UART_AdvFeatureConfig+0x154>)
 80035f2:	4013      	ands	r3, r2
 80035f4:	0019      	movs	r1, r3
 80035f6:	687b      	ldr	r3, [r7, #4]
 80035f8:	6b9a      	ldr	r2, [r3, #56]	; 0x38
 80035fa:	687b      	ldr	r3, [r7, #4]
 80035fc:	681b      	ldr	r3, [r3, #0]
 80035fe:	430a      	orrs	r2, r1
 8003600:	609a      	str	r2, [r3, #8]
 8003602:	687b      	ldr	r3, [r7, #4]
 8003604:	6a5b      	ldr	r3, [r3, #36]	; 0x24
 8003606:	2220      	movs	r2, #32
 8003608:	4013      	ands	r3, r2
 800360a:	d00b      	beq.n	8003624 <UART_AdvFeatureConfig+0xd4>
 800360c:	687b      	ldr	r3, [r7, #4]
 800360e:	681b      	ldr	r3, [r3, #0]
 8003610:	689b      	ldr	r3, [r3, #8]
 8003612:	4a25      	ldr	r2, [pc, #148]	; (80036a8 <UART_AdvFeatureConfig+0x158>)
 8003614:	4013      	ands	r3, r2
 8003616:	0019      	movs	r1, r3
 8003618:	687b      	ldr	r3, [r7, #4]
 800361a:	6bda      	ldr	r2, [r3, #60]	; 0x3c
 800361c:	687b      	ldr	r3, [r7, #4]
 800361e:	681b      	ldr	r3, [r3, #0]
 8003620:	430a      	orrs	r2, r1
 8003622:	609a      	str	r2, [r3, #8]
 8003624:	687b      	ldr	r3, [r7, #4]
 8003626:	6a5b      	ldr	r3, [r3, #36]	; 0x24
 8003628:	2240      	movs	r2, #64	; 0x40
 800362a:	4013      	ands	r3, r2
 800362c:	d01d      	beq.n	800366a <UART_AdvFeatureConfig+0x11a>
 800362e:	687b      	ldr	r3, [r7, #4]
 8003630:	681b      	ldr	r3, [r3, #0]
 8003632:	685b      	ldr	r3, [r3, #4]
 8003634:	4a1d      	ldr	r2, [pc, #116]	; (80036ac <UART_AdvFeatureConfig+0x15c>)
 8003636:	4013      	ands	r3, r2
 8003638:	0019      	movs	r1, r3
 800363a:	687b      	ldr	r3, [r7, #4]
 800363c:	6c1a      	ldr	r2, [r3, #64]	; 0x40
 800363e:	687b      	ldr	r3, [r7, #4]
 8003640:	681b      	ldr	r3, [r3, #0]
 8003642:	430a      	orrs	r2, r1
 8003644:	605a      	str	r2, [r3, #4]
 8003646:	687b      	ldr	r3, [r7, #4]
 8003648:	6c1a      	ldr	r2, [r3, #64]	; 0x40
 800364a:	2380      	movs	r3, #128	; 0x80
 800364c:	035b      	lsls	r3, r3, #13
 800364e:	429a      	cmp	r2, r3
 8003650:	d10b      	bne.n	800366a <UART_AdvFeatureConfig+0x11a>
 8003652:	687b      	ldr	r3, [r7, #4]
 8003654:	681b      	ldr	r3, [r3, #0]
 8003656:	685b      	ldr	r3, [r3, #4]
 8003658:	4a15      	ldr	r2, [pc, #84]	; (80036b0 <UART_AdvFeatureConfig+0x160>)
 800365a:	4013      	ands	r3, r2
 800365c:	0019      	movs	r1, r3
 800365e:	687b      	ldr	r3, [r7, #4]
 8003660:	6c5a      	ldr	r2, [r3, #68]	; 0x44
 8003662:	687b      	ldr	r3, [r7, #4]
 8003664:	681b      	ldr	r3, [r3, #0]
 8003666:	430a      	orrs	r2, r1
 8003668:	605a      	str	r2, [r3, #4]
 800366a:	687b      	ldr	r3, [r7, #4]
 800366c:	6a5b      	ldr	r3, [r3, #36]	; 0x24
 800366e:	2280      	movs	r2, #128	; 0x80
 8003670:	4013      	ands	r3, r2
 8003672:	d00b      	beq.n	800368c <UART_AdvFeatureConfig+0x13c>
 8003674:	687b      	ldr	r3, [r7, #4]
 8003676:	681b      	ldr	r3, [r3, #0]
 8003678:	685b      	ldr	r3, [r3, #4]
 800367a:	4a0e      	ldr	r2, [pc, #56]	; (80036b4 <UART_AdvFeatureConfig+0x164>)
 800367c:	4013      	ands	r3, r2
 800367e:	0019      	movs	r1, r3
 8003680:	687b      	ldr	r3, [r7, #4]
 8003682:	6c9a      	ldr	r2, [r3, #72]	; 0x48
 8003684:	687b      	ldr	r3, [r7, #4]
 8003686:	681b      	ldr	r3, [r3, #0]
 8003688:	430a      	orrs	r2, r1
 800368a:	605a      	str	r2, [r3, #4]
 800368c:	46c0      	nop			; (mov r8, r8)
 800368e:	46bd      	mov	sp, r7
 8003690:	b002      	add	sp, #8
 8003692:	bd80      	pop	{r7, pc}
 8003694:	fffdffff 	.word	0xfffdffff
 8003698:	fffeffff 	.word	0xfffeffff
 800369c:	fffbffff 	.word	0xfffbffff
 80036a0:	ffff7fff 	.word	0xffff7fff
 80036a4:	ffffefff 	.word	0xffffefff
 80036a8:	ffffdfff 	.word	0xffffdfff
 80036ac:	ffefffff 	.word	0xffefffff
 80036b0:	ff9fffff 	.word	0xff9fffff
 80036b4:	fff7ffff 	.word	0xfff7ffff

080036b8 <UART_CheckIdleState>:
 80036b8:	b580      	push	{r7, lr}
 80036ba:	b086      	sub	sp, #24
 80036bc:	af02      	add	r7, sp, #8
 80036be:	6078      	str	r0, [r7, #4]
 80036c0:	687b      	ldr	r3, [r7, #4]
 80036c2:	2280      	movs	r2, #128	; 0x80
 80036c4:	2100      	movs	r1, #0
 80036c6:	5099      	str	r1, [r3, r2]
 80036c8:	f7fd fa00 	bl	8000acc <HAL_GetTick>
 80036cc:	0003      	movs	r3, r0
 80036ce:	60fb      	str	r3, [r7, #12]
 80036d0:	687b      	ldr	r3, [r7, #4]
 80036d2:	681b      	ldr	r3, [r3, #0]
 80036d4:	681b      	ldr	r3, [r3, #0]
 80036d6:	2208      	movs	r2, #8
 80036d8:	4013      	ands	r3, r2
 80036da:	2b08      	cmp	r3, #8
 80036dc:	d10c      	bne.n	80036f8 <UART_CheckIdleState+0x40>
 80036de:	68fb      	ldr	r3, [r7, #12]
 80036e0:	2280      	movs	r2, #128	; 0x80
 80036e2:	0391      	lsls	r1, r2, #14
 80036e4:	6878      	ldr	r0, [r7, #4]
 80036e6:	4a17      	ldr	r2, [pc, #92]	; (8003744 <UART_CheckIdleState+0x8c>)
 80036e8:	9200      	str	r2, [sp, #0]
 80036ea:	2200      	movs	r2, #0
 80036ec:	f000 f82c 	bl	8003748 <UART_WaitOnFlagUntilTimeout>
 80036f0:	1e03      	subs	r3, r0, #0
 80036f2:	d001      	beq.n	80036f8 <UART_CheckIdleState+0x40>
 80036f4:	2303      	movs	r3, #3
 80036f6:	e021      	b.n	800373c <UART_CheckIdleState+0x84>
 80036f8:	687b      	ldr	r3, [r7, #4]
 80036fa:	681b      	ldr	r3, [r3, #0]
 80036fc:	681b      	ldr	r3, [r3, #0]
 80036fe:	2204      	movs	r2, #4
 8003700:	4013      	ands	r3, r2
 8003702:	2b04      	cmp	r3, #4
 8003704:	d10c      	bne.n	8003720 <UART_CheckIdleState+0x68>
 8003706:	68fb      	ldr	r3, [r7, #12]
 8003708:	2280      	movs	r2, #128	; 0x80
 800370a:	03d1      	lsls	r1, r2, #15
 800370c:	6878      	ldr	r0, [r7, #4]
 800370e:	4a0d      	ldr	r2, [pc, #52]	; (8003744 <UART_CheckIdleState+0x8c>)
 8003710:	9200      	str	r2, [sp, #0]
 8003712:	2200      	movs	r2, #0
 8003714:	f000 f818 	bl	8003748 <UART_WaitOnFlagUntilTimeout>
 8003718:	1e03      	subs	r3, r0, #0
 800371a:	d001      	beq.n	8003720 <UART_CheckIdleState+0x68>
 800371c:	2303      	movs	r3, #3
 800371e:	e00d      	b.n	800373c <UART_CheckIdleState+0x84>
 8003720:	687b      	ldr	r3, [r7, #4]
 8003722:	2220      	movs	r2, #32
 8003724:	679a      	str	r2, [r3, #120]	; 0x78
 8003726:	687b      	ldr	r3, [r7, #4]
 8003728:	2220      	movs	r2, #32
 800372a:	67da      	str	r2, [r3, #124]	; 0x7c
 800372c:	687b      	ldr	r3, [r7, #4]
 800372e:	2200      	movs	r2, #0
 8003730:	661a      	str	r2, [r3, #96]	; 0x60
 8003732:	687b      	ldr	r3, [r7, #4]
 8003734:	2274      	movs	r2, #116	; 0x74
 8003736:	2100      	movs	r1, #0
 8003738:	5499      	strb	r1, [r3, r2]
 800373a:	2300      	movs	r3, #0
 800373c:	0018      	movs	r0, r3
 800373e:	46bd      	mov	sp, r7
 8003740:	b004      	add	sp, #16
 8003742:	bd80      	pop	{r7, pc}
 8003744:	01ffffff 	.word	0x01ffffff

08003748 <UART_WaitOnFlagUntilTimeout>:
 8003748:	b580      	push	{r7, lr}
 800374a:	b094      	sub	sp, #80	; 0x50
 800374c:	af00      	add	r7, sp, #0
 800374e:	60f8      	str	r0, [r7, #12]
 8003750:	60b9      	str	r1, [r7, #8]
 8003752:	603b      	str	r3, [r7, #0]
 8003754:	1dfb      	adds	r3, r7, #7
 8003756:	701a      	strb	r2, [r3, #0]
 8003758:	e0a3      	b.n	80038a2 <UART_WaitOnFlagUntilTimeout+0x15a>
 800375a:	6dbb      	ldr	r3, [r7, #88]	; 0x58
 800375c:	3301      	adds	r3, #1
 800375e:	d100      	bne.n	8003762 <UART_WaitOnFlagUntilTimeout+0x1a>
 8003760:	e09f      	b.n	80038a2 <UART_WaitOnFlagUntilTimeout+0x15a>
 8003762:	f7fd f9b3 	bl	8000acc <HAL_GetTick>
 8003766:	0002      	movs	r2, r0
 8003768:	683b      	ldr	r3, [r7, #0]
 800376a:	1ad3      	subs	r3, r2, r3
 800376c:	6dba      	ldr	r2, [r7, #88]	; 0x58
 800376e:	429a      	cmp	r2, r3
 8003770:	d302      	bcc.n	8003778 <UART_WaitOnFlagUntilTimeout+0x30>
 8003772:	6dbb      	ldr	r3, [r7, #88]	; 0x58
 8003774:	2b00      	cmp	r3, #0
 8003776:	d13d      	bne.n	80037f4 <UART_WaitOnFlagUntilTimeout+0xac>
 8003778:	f3ef 8310 	mrs	r3, PRIMASK
 800377c:	62bb      	str	r3, [r7, #40]	; 0x28
 800377e:	6abb      	ldr	r3, [r7, #40]	; 0x28
 8003780:	647b      	str	r3, [r7, #68]	; 0x44
 8003782:	2301      	movs	r3, #1
 8003784:	62fb      	str	r3, [r7, #44]	; 0x2c
 8003786:	6afb      	ldr	r3, [r7, #44]	; 0x2c
 8003788:	f383 8810 	msr	PRIMASK, r3
 800378c:	46c0      	nop			; (mov r8, r8)
 800378e:	68fb      	ldr	r3, [r7, #12]
 8003790:	681b      	ldr	r3, [r3, #0]
 8003792:	681a      	ldr	r2, [r3, #0]
 8003794:	68fb      	ldr	r3, [r7, #12]
 8003796:	681b      	ldr	r3, [r3, #0]
 8003798:	494c      	ldr	r1, [pc, #304]	; (80038cc <UART_WaitOnFlagUntilTimeout+0x184>)
 800379a:	400a      	ands	r2, r1
 800379c:	601a      	str	r2, [r3, #0]
 800379e:	6c7b      	ldr	r3, [r7, #68]	; 0x44
 80037a0:	633b      	str	r3, [r7, #48]	; 0x30
 80037a2:	6b3b      	ldr	r3, [r7, #48]	; 0x30
 80037a4:	f383 8810 	msr	PRIMASK, r3
 80037a8:	46c0      	nop			; (mov r8, r8)
 80037aa:	f3ef 8310 	mrs	r3, PRIMASK
 80037ae:	637b      	str	r3, [r7, #52]	; 0x34
 80037b0:	6b7b      	ldr	r3, [r7, #52]	; 0x34
 80037b2:	643b      	str	r3, [r7, #64]	; 0x40
 80037b4:	2301      	movs	r3, #1
 80037b6:	63bb      	str	r3, [r7, #56]	; 0x38
 80037b8:	6bbb      	ldr	r3, [r7, #56]	; 0x38
 80037ba:	f383 8810 	msr	PRIMASK, r3
 80037be:	46c0      	nop			; (mov r8, r8)
 80037c0:	68fb      	ldr	r3, [r7, #12]
 80037c2:	681b      	ldr	r3, [r3, #0]
 80037c4:	689a      	ldr	r2, [r3, #8]
 80037c6:	68fb      	ldr	r3, [r7, #12]
 80037c8:	681b      	ldr	r3, [r3, #0]
 80037ca:	2101      	movs	r1, #1
 80037cc:	438a      	bics	r2, r1
 80037ce:	609a      	str	r2, [r3, #8]
 80037d0:	6c3b      	ldr	r3, [r7, #64]	; 0x40
 80037d2:	63fb      	str	r3, [r7, #60]	; 0x3c
 80037d4:	6bfb      	ldr	r3, [r7, #60]	; 0x3c
 80037d6:	f383 8810 	msr	PRIMASK, r3
 80037da:	46c0      	nop			; (mov r8, r8)
 80037dc:	68fb      	ldr	r3, [r7, #12]
 80037de:	2220      	movs	r2, #32
 80037e0:	679a      	str	r2, [r3, #120]	; 0x78
 80037e2:	68fb      	ldr	r3, [r7, #12]
 80037e4:	2220      	movs	r2, #32
 80037e6:	67da      	str	r2, [r3, #124]	; 0x7c
 80037e8:	68fb      	ldr	r3, [r7, #12]
 80037ea:	2274      	movs	r2, #116	; 0x74
 80037ec:	2100      	movs	r1, #0
 80037ee:	5499      	strb	r1, [r3, r2]
 80037f0:	2303      	movs	r3, #3
 80037f2:	e067      	b.n	80038c4 <UART_WaitOnFlagUntilTimeout+0x17c>
 80037f4:	68fb      	ldr	r3, [r7, #12]
 80037f6:	681b      	ldr	r3, [r3, #0]
 80037f8:	681b      	ldr	r3, [r3, #0]
 80037fa:	2204      	movs	r2, #4
 80037fc:	4013      	ands	r3, r2
 80037fe:	d050      	beq.n	80038a2 <UART_WaitOnFlagUntilTimeout+0x15a>
 8003800:	68fb      	ldr	r3, [r7, #12]
 8003802:	681b      	ldr	r3, [r3, #0]
 8003804:	69da      	ldr	r2, [r3, #28]
 8003806:	2380      	movs	r3, #128	; 0x80
 8003808:	011b      	lsls	r3, r3, #4
 800380a:	401a      	ands	r2, r3
 800380c:	2380      	movs	r3, #128	; 0x80
 800380e:	011b      	lsls	r3, r3, #4
 8003810:	429a      	cmp	r2, r3
 8003812:	d146      	bne.n	80038a2 <UART_WaitOnFlagUntilTimeout+0x15a>
 8003814:	68fb      	ldr	r3, [r7, #12]
 8003816:	681b      	ldr	r3, [r3, #0]
 8003818:	2280      	movs	r2, #128	; 0x80
 800381a:	0112      	lsls	r2, r2, #4
 800381c:	621a      	str	r2, [r3, #32]
 800381e:	f3ef 8310 	mrs	r3, PRIMASK
 8003822:	613b      	str	r3, [r7, #16]
 8003824:	693b      	ldr	r3, [r7, #16]
 8003826:	64fb      	str	r3, [r7, #76]	; 0x4c
 8003828:	2301      	movs	r3, #1
 800382a:	617b      	str	r3, [r7, #20]
 800382c:	697b      	ldr	r3, [r7, #20]
 800382e:	f383 8810 	msr	PRIMASK, r3
 8003832:	46c0      	nop			; (mov r8, r8)
 8003834:	68fb      	ldr	r3, [r7, #12]
 8003836:	681b      	ldr	r3, [r3, #0]
 8003838:	681a      	ldr	r2, [r3, #0]
 800383a:	68fb      	ldr	r3, [r7, #12]
 800383c:	681b      	ldr	r3, [r3, #0]
 800383e:	4923      	ldr	r1, [pc, #140]	; (80038cc <UART_WaitOnFlagUntilTimeout+0x184>)
 8003840:	400a      	ands	r2, r1
 8003842:	601a      	str	r2, [r3, #0]
 8003844:	6cfb      	ldr	r3, [r7, #76]	; 0x4c
 8003846:	61bb      	str	r3, [r7, #24]
 8003848:	69bb      	ldr	r3, [r7, #24]
 800384a:	f383 8810 	msr	PRIMASK, r3
 800384e:	46c0      	nop			; (mov r8, r8)
 8003850:	f3ef 8310 	mrs	r3, PRIMASK
 8003854:	61fb      	str	r3, [r7, #28]
 8003856:	69fb      	ldr	r3, [r7, #28]
 8003858:	64bb      	str	r3, [r7, #72]	; 0x48
 800385a:	2301      	movs	r3, #1
 800385c:	623b      	str	r3, [r7, #32]
 800385e:	6a3b      	ldr	r3, [r7, #32]
 8003860:	f383 8810 	msr	PRIMASK, r3
 8003864:	46c0      	nop			; (mov r8, r8)
 8003866:	68fb      	ldr	r3, [r7, #12]
 8003868:	681b      	ldr	r3, [r3, #0]
 800386a:	689a      	ldr	r2, [r3, #8]
 800386c:	68fb      	ldr	r3, [r7, #12]
 800386e:	681b      	ldr	r3, [r3, #0]
 8003870:	2101      	movs	r1, #1
 8003872:	438a      	bics	r2, r1
 8003874:	609a      	str	r2, [r3, #8]
 8003876:	6cbb      	ldr	r3, [r7, #72]	; 0x48
 8003878:	627b      	str	r3, [r7, #36]	; 0x24
 800387a:	6a7b      	ldr	r3, [r7, #36]	; 0x24
 800387c:	f383 8810 	msr	PRIMASK, r3
 8003880:	46c0      	nop			; (mov r8, r8)
 8003882:	68fb      	ldr	r3, [r7, #12]
 8003884:	2220      	movs	r2, #32
 8003886:	679a      	str	r2, [r3, #120]	; 0x78
 8003888:	68fb      	ldr	r3, [r7, #12]
 800388a:	2220      	movs	r2, #32
 800388c:	67da      	str	r2, [r3, #124]	; 0x7c
 800388e:	68fb      	ldr	r3, [r7, #12]
 8003890:	2280      	movs	r2, #128	; 0x80
 8003892:	2120      	movs	r1, #32
 8003894:	5099      	str	r1, [r3, r2]
 8003896:	68fb      	ldr	r3, [r7, #12]
 8003898:	2274      	movs	r2, #116	; 0x74
 800389a:	2100      	movs	r1, #0
 800389c:	5499      	strb	r1, [r3, r2]
 800389e:	2303      	movs	r3, #3
 80038a0:	e010      	b.n	80038c4 <UART_WaitOnFlagUntilTimeout+0x17c>
 80038a2:	68fb      	ldr	r3, [r7, #12]
 80038a4:	681b      	ldr	r3, [r3, #0]
 80038a6:	69db      	ldr	r3, [r3, #28]
 80038a8:	68ba      	ldr	r2, [r7, #8]
 80038aa:	4013      	ands	r3, r2
 80038ac:	68ba      	ldr	r2, [r7, #8]
 80038ae:	1ad3      	subs	r3, r2, r3
 80038b0:	425a      	negs	r2, r3
 80038b2:	4153      	adcs	r3, r2
 80038b4:	b2db      	uxtb	r3, r3
 80038b6:	001a      	movs	r2, r3
 80038b8:	1dfb      	adds	r3, r7, #7
 80038ba:	781b      	ldrb	r3, [r3, #0]
 80038bc:	429a      	cmp	r2, r3
 80038be:	d100      	bne.n	80038c2 <UART_WaitOnFlagUntilTimeout+0x17a>
 80038c0:	e74b      	b.n	800375a <UART_WaitOnFlagUntilTimeout+0x12>
 80038c2:	2300      	movs	r3, #0
 80038c4:	0018      	movs	r0, r3
 80038c6:	46bd      	mov	sp, r7
 80038c8:	b014      	add	sp, #80	; 0x50
 80038ca:	bd80      	pop	{r7, pc}
 80038cc:	fffffe5f 	.word	0xfffffe5f

080038d0 <memset>:
 80038d0:	0003      	movs	r3, r0
 80038d2:	1882      	adds	r2, r0, r2
 80038d4:	4293      	cmp	r3, r2
 80038d6:	d100      	bne.n	80038da <memset+0xa>
 80038d8:	4770      	bx	lr
 80038da:	7019      	strb	r1, [r3, #0]
 80038dc:	3301      	adds	r3, #1
 80038de:	e7f9      	b.n	80038d4 <memset+0x4>

080038e0 <__libc_init_array>:
 80038e0:	b570      	push	{r4, r5, r6, lr}
 80038e2:	2600      	movs	r6, #0
 80038e4:	4c0c      	ldr	r4, [pc, #48]	; (8003918 <__libc_init_array+0x38>)
 80038e6:	4d0d      	ldr	r5, [pc, #52]	; (800391c <__libc_init_array+0x3c>)
 80038e8:	1b64      	subs	r4, r4, r5
 80038ea:	10a4      	asrs	r4, r4, #2
 80038ec:	42a6      	cmp	r6, r4
 80038ee:	d109      	bne.n	8003904 <__libc_init_array+0x24>
 80038f0:	2600      	movs	r6, #0
 80038f2:	f000 f819 	bl	8003928 <_init>
 80038f6:	4c0a      	ldr	r4, [pc, #40]	; (8003920 <__libc_init_array+0x40>)
 80038f8:	4d0a      	ldr	r5, [pc, #40]	; (8003924 <__libc_init_array+0x44>)
 80038fa:	1b64      	subs	r4, r4, r5
 80038fc:	10a4      	asrs	r4, r4, #2
 80038fe:	42a6      	cmp	r6, r4
 8003900:	d105      	bne.n	800390e <__libc_init_array+0x2e>
 8003902:	bd70      	pop	{r4, r5, r6, pc}
 8003904:	00b3      	lsls	r3, r6, #2
 8003906:	58eb      	ldr	r3, [r5, r3]
 8003908:	4798      	blx	r3
 800390a:	3601      	adds	r6, #1
 800390c:	e7ee      	b.n	80038ec <__libc_init_array+0xc>
 800390e:	00b3      	lsls	r3, r6, #2
 8003910:	58eb      	ldr	r3, [r5, r3]
 8003912:	4798      	blx	r3
 8003914:	3601      	adds	r6, #1
 8003916:	e7f2      	b.n	80038fe <__libc_init_array+0x1e>
 8003918:	08003978 	.word	0x08003978
 800391c:	08003978 	.word	0x08003978
 8003920:	0800397c 	.word	0x0800397c
 8003924:	08003978 	.word	0x08003978

08003928 <_init>:
 8003928:	b5f8      	push	{r3, r4, r5, r6, r7, lr}
 800392a:	46c0      	nop			; (mov r8, r8)
 800392c:	bcf8      	pop	{r3, r4, r5, r6, r7}
 800392e:	bc08      	pop	{r3}
 8003930:	469e      	mov	lr, r3
 8003932:	4770      	bx	lr

08003934 <_fini>:
 8003934:	b5f8      	push	{r3, r4, r5, r6, r7, lr}
 8003936:	46c0      	nop			; (mov r8, r8)
 8003938:	bcf8      	pop	{r3, r4, r5, r6, r7}
 800393a:	bc08      	pop	{r3}
 800393c:	469e      	mov	lr, r3
 800393e:	4770      	bx	lr
